(dp0
S'rest'
p1
(lp2
(I-35
I-59
I22
I-80
I-90
I-10
I-3
I-33
tp3
a(I-2
I11
I-39
I88
I46
I-113
I-11
I-6
tp4
a(I-2
I9
I-22
I44
I24
I-69
I-10
I-2
tp5
a(I7
I16
I-2
I23
I20
I-12
I2
I9
tp6
a(I7
I13
I-1
I-3
I13
I39
I-3
I9
tp7
a(I-3
I-7
I12
I-48
I-23
I66
I1
I1
tp8
a(I-7
I-12
I0
I-31
I-20
I16
I-7
I-8
tp9
a(I-8
I-9
I-14
I-17
I-8
I8
I-8
I-8
tp10
a(I5
I7
I-4
I10
I12
I7
I2
I5
tp11
a(I-1
I-5
I7
I-20
I-12
I18
I1
I-3
tp12
a(I5
I7
I-2
I13
I11
I-1
I3
I4
tp13
a(I-3
I-6
I0
I-6
I-9
I-13
I-1
I-6
tp14
a(I3
I9
I-7
I20
I17
I-10
I0
I3
tp15
a(I3
I4
I7
I-5
I-3
I12
I5
I3
tp16
a(I-2
I-6
I2
I-14
I-9
I5
I2
I-2
tp17
a(I-1
I-3
I-2
I5
I0
I-14
I-1
I-3
tp18
a(I1
I4
I-8
I15
I9
I-17
I-3
I0
tp19
a(I-3
I-4
I-1
I-9
I-6
I10
I-3
I-2
tp20
a(I-2
I-2
I3
I-3
I-6
I1
I0
I-1
tp21
a(I-2
I-4
I-1
I5
I0
I-13
I-2
I-3
tp22
a(I6
I10
I-4
I18
I15
I-6
I1
I5
tp23
a(I-2
I-4
I3
I-10
I-7
I8
I0
I-1
tp24
a(I-1
I-3
I-1
I-1
I-2
I-4
I-4
I-2
tp25
a(I1
I2
I0
I6
I2
I-8
I1
I0
tp26
a(I-3
I-1
I-2
I0
I-6
I-5
I-2
I-4
tp27
a(I-3
I-3
I-4
I-3
I5
I-5
I-4
I-1
tp28
a(I0
I1
I-1
I4
I5
I-1
I0
I-1
tp29
a(I-3
I-1
I0
I-2
I-2
I2
I-1
I0
tp30
a(I0
I2
I0
I7
I7
I-3
I-1
I0
tp31
a(I-1
I-2
I-1
I-12
I-9
I-4
I-1
I-2
tp32
a(I0
I0
I-2
I2
I3
I-2
I1
I0
tp33
a(I1
I-1
I3
I1
I3
I1
I1
I0
tp34
a(I-1
I-2
I-1
I-7
I-2
I0
I1
I0
tp35
a(I-3
I0
I0
I8
I1
I-2
I-3
I-1
tp36
a(I-1
I2
I-5
I2
I1
I-4
I-1
I0
tp37
a(I-1
I-1
I-1
I-4
I-5
I2
I-1
I-2
tp38
a(I0
I1
I-3
I3
I0
I-2
I-1
I0
tp39
a(I-1
I0
I-2
I0
I1
I3
I-2
I-3
tp40
a(I-1
I0
I1
I-2
I-3
I-4
I0
I-1
tp41
a(I0
I1
I-2
I1
I1
I-1
I1
I0
tp42
a(I0
I-1
I1
I-3
I-1
I-2
I-1
I0
tp43
a(I-1
I-1
I-3
I-5
I-4
I1
I-1
I-1
tp44
a(I-2
I1
I2
I-1
I0
I-2
I-1
I-1
tp45
a(I-1
I-1
I-5
I-1
I-1
I-1
I-1
I-1
tp46
a(I0
I0
I-1
I4
I0
I-2
I1
I-1
tp47
a(I-1
I-2
I-1
I1
I-3
I0
I-1
I0
tp48
a(I0
I0
I-1
I-1
I2
I-1
I-1
I-2
tp49
a(I1
I-1
I3
I1
I-1
I-1
I0
I0
tp50
a(I-2
I-2
I-1
I0
I-4
I-2
I-1
I-2
tp51
a(I0
I-1
I-1
I-1
I0
I1
I-1
I-2
tp52
a(I0
I-1
I0
I2
I1
I2
I-1
I-1
tp53
a(I-1
I1
I-1
I-1
I0
I0
I-2
I-2
tp54
a(I-1
I0
I-3
I-1
I-2
I-2
I0
I0
tp55
a(I0
I-3
I0
I-1
I-2
I-1
I0
I0
tp56
a(I0
I0
I0
I0
I-1
I-2
I-1
I1
tp57
a(I-1
I-2
I-1
I2
I-2
I0
I-2
I0
tp58
a(I-1
I-2
I-2
I-3
I-1
I-3
I-1
I-1
tp59
a(I-3
I-1
I-2
I-1
I-1
I-1
I0
I-2
tp60
a(I-1
I0
I-1
I-1
I0
I0
I1
I-2
tp61
a(I-2
I0
I3
I2
I-8
I-1
I0
I-1
tp62
a(I0
I-1
I-1
I2
I0
I-1
I-2
I-1
tp63
a(I0
I-1
I-2
I-3
I-5
I0
I0
I0
tp64
a(I-1
I-1
I-1
I0
I-3
I-3
I-1
I-1
tp65
a(I0
I-1
I-2
I-1
I0
I1
I-2
I-1
tp66
a(I-1
I-2
I-2
I-1
I3
I0
I-2
I-2
tp67
a(I-2
I-1
I1
I-2
I-1
I-4
I-2
I0
tp68
a(I-1
I0
I-1
I1
I-4
I-2
I-1
I0
tp69
a(I-1
I0
I0
I1
I4
I1
I-4
I0
tp70
a(I-2
I-1
I-1
I-1
I-4
I-2
I-1
I0
tp71
a(I0
I-1
I0
I-5
I3
I-2
I0
I0
tp72
a(I-2
I-1
I-3
I0
I-3
I-2
I-1
I-1
tp73
a(I-1
I-1
I0
I0
I-2
I0
I-1
I-1
tp74
a(I-1
I-2
I0
I1
I1
I-2
I-2
I-2
tp75
a(I0
I0
I-3
I-3
I-4
I-1
I0
I0
tp76
a(I-3
I-1
I-1
I-1
I1
I0
I-1
I-2
tp77
a(I0
I-1
I-1
I-1
I0
I-2
I-1
I-2
tp78
a(I-1
I-1
I0
I-1
I-3
I-3
I-1
I0
tp79
a(I-1
I1
I0
I-1
I-1
I0
I-1
I0
tp80
a(I1
I-1
I0
I-3
I0
I-1
I0
I-1
tp81
a(I-1
I-2
I-2
I1
I0
I-2
I-1
I-1
tp82
a(I0
I-1
I0
I-1
I-2
I-2
I-2
I0
tp83
a(I-2
I-1
I-1
I-2
I-2
I-2
I-1
I-1
tp84
a(I-1
I-2
I0
I-1
I-2
I0
I-1
I-1
tp85
a(I0
I-1
I0
I1
I0
I0
I-1
I0
tp86
a(I-1
I-2
I0
I-2
I-3
I0
I1
I-2
tp87
a(I-1
I-1
I-3
I0
I-1
I-2
I0
I-2
tp88
a(I0
I1
I1
I-1
I1
I-1
I-1
I-1
tp89
a(I-1
I0
I1
I-2
I-1
I-1
I-1
I0
tp90
a(I0
I-2
I0
I-2
I-3
I1
I-2
I-1
tp91
a(I0
I0
I-2
I0
I5
I-2
I-1
I-1
tp92
a(I0
I-1
I0
I0
I-3
I-1
I0
I-1
tp93
a(I-2
I-2
I-1
I1
I0
I0
I0
I-1
tp94
a(I-1
I0
I1
I0
I-1
I0
I-1
I0
tp95
a(I-1
I-1
I1
I0
I-2
I-2
I-1
I0
tp96
a(I0
I-2
I-1
I-1
I0
I-2
I-1
I-2
tp97
a(I0
I-2
I1
I0
I3
I-2
I-1
I-2
tp98
a(I-1
I0
I-3
I-2
I-3
I-1
I-1
I-1
tp99
a(I-1
I1
I0
I-1
I-7
I-1
I-1
I0
tp100
a(I-1
I-1
I1
I1
I4
I1
I0
I-1
tp101
a(I-1
I-2
I-4
I-2
I0
I-2
I-2
I-1
tp102
a(I-1
I-1
I-2
I1
I-4
I-2
I1
I2
tp103
a(I-1
I0
I-1
I-3
I-5
I0
I0
I-2
tp104
a(I0
I0
I-2
I-3
I1
I0
I0
I0
tp105
a(I0
I-1
I0
I-2
I-2
I-1
I0
I1
tp106
a(I0
I-2
I-1
I-1
I-1
I-2
I-1
I-1
tp107
a(I-1
I-1
I-2
I1
I0
I-1
I0
I-1
tp108
a(I-1
I1
I-3
I-3
I-7
I-2
I0
I-1
tp109
a(I0
I-3
I-1
I1
I2
I0
I-2
I-2
tp110
a(I-1
I1
I-1
I3
I-4
I1
I0
I1
tp111
a(I-1
I0
I-4
I-1
I2
I-2
I0
I-1
tp112
a(I1
I0
I-1
I3
I-1
I-1
I-1
I1
tp113
a(I-1
I0
I-1
I-2
I0
I-2
I1
I-1
tp114
a(I0
I1
I-1
I-5
I-1
I2
I-2
I0
tp115
a(I0
I-1
I-1
I-1
I-3
I-2
I0
I0
tp116
a(I-1
I-1
I-3
I0
I3
I0
I0
I0
tp117
a(I-1
I-2
I-1
I0
I-5
I0
I-1
I-1
tp118
a(I-1
I-1
I-1
I-2
I2
I1
I-2
I-1
tp119
a(I1
I0
I0
I0
I-2
I-2
I-1
I-1
tp120
a(I-1
I0
I-2
I-1
I-1
I-1
I-3
I-1
tp121
a(I0
I-1
I-1
I2
I2
I-1
I0
I0
tp122
a(I1
I0
I-2
I-4
I-2
I-3
I0
I-2
tp123
a(I-1
I-2
I-2
I-1
I-1
I-1
I-2
I-1
tp124
a(I-1
I-2
I1
I1
I1
I-1
I-1
I1
tp125
a(I-1
I1
I0
I-2
I-2
I-1
I-1
I-1
tp126
a(I-1
I-1
I-1
I0
I-2
I-1
I-2
I0
tp127
a(I0
I-1
I0
I-4
I-2
I0
I-1
I-2
tp128
a(I-1
I-2
I0
I4
I-2
I-1
I0
I-1
tp129
a(I-1
I-1
I-3
I1
I1
I-1
I0
I0
tp130
a(I-1
I-1
I-1
I1
I-2
I-4
I-1
I0
tp131
a(I-2
I-1
I0
I-2
I-4
I0
I-2
I0
tp132
a(I-2
I-1
I-2
I2
I-1
I-2
I0
I-1
tp133
a(I-1
I0
I0
I-2
I1
I0
I-1
I0
tp134
a(I0
I1
I-1
I-2
I-2
I-1
I0
I-1
tp135
a(I0
I-2
I-2
I1
I-2
I-2
I0
I-1
tp136
a(I-2
I0
I1
I-1
I3
I-1
I-1
I0
tp137
a(I0
I-3
I0
I0
I-1
I-3
I1
I-1
tp138
a(I0
I0
I-1
I-4
I-3
I-1
I-1
I-1
tp139
a(I0
I-2
I0
I0
I1
I1
I0
I0
tp140
a(I-3
I0
I-1
I-1
I-2
I-1
I-2
I-2
tp141
a(I-2
I-2
I-1
I1
I0
I-1
I0
I-1
tp142
a(I0
I0
I-1
I2
I3
I1
I0
I0
tp143
a(I-2
I-1
I-3
I-1
I-4
I-4
I-1
I0
tp144
a(I0
I0
I0
I3
I0
I-2
I-1
I-3
tp145
a(I-2
I-1
I-1
I-2
I-4
I-1
I-3
I-1
tp146
a(I0
I-1
I-1
I0
I-3
I-2
I-1
I-1
tp147
a(I-1
I0
I-1
I1
I0
I-1
I0
I0
tp148
a(I0
I-1
I1
I-2
I-2
I0
I-1
I0
tp149
a(I-1
I0
I1
I-1
I-1
I-1
I-2
I0
tp150
a(I-1
I-1
I0
I-2
I-1
I-2
I0
I-1
tp151
a(I1
I2
I-1
I-1
I-1
I0
I0
I1
tp152
a(I-1
I-3
I-2
I-1
I0
I3
I0
I0
tp153
a(I0
I0
I-1
I0
I-1
I-6
I-1
I-1
tp154
a(I-1
I-1
I0
I-1
I0
I-2
I-1
I-1
tp155
a(I-1
I-2
I-1
I0
I2
I1
I-1
I0
tp156
a(I-2
I0
I0
I0
I0
I0
I-1
I-1
tp157
a(I-1
I0
I-1
I-1
I-3
I-3
I-1
I-3
tp158
a(I0
I-2
I-2
I-1
I-3
I-1
I-1
I1
tp159
a(I-2
I-2
I0
I0
I3
I-2
I0
I-2
tp160
a(I-2
I-2
I-3
I-2
I-3
I-3
I-1
I-1
tp161
a(I-1
I-2
I2
I0
I1
I2
I-1
I-1
tp162
a(I-2
I-2
I-2
I0
I-3
I-1
I-2
I-1
tp163
a(I-1
I-1
I0
I-1
I0
I-2
I0
I0
tp164
a(I0
I0
I0
I2
I0
I-1
I0
I1
tp165
a(I0
I1
I-1
I-4
I-1
I0
I0
I-1
tp166
a(I-1
I-1
I0
I-2
I-2
I-2
I0
I-1
tp167
a(I0
I-1
I0
I0
I-1
I-1
I-1
I-1
tp168
a(I-1
I-2
I-1
I-1
I0
I0
I0
I-2
tp169
a(I-1
I0
I0
I-1
I0
I0
I-2
I-1
tp170
a(I-2
I-1
I-2
I-4
I-3
I-3
I1
I0
tp171
a(I1
I0
I-2
I-1
I0
I-2
I-1
I-1
tp172
a(I0
I0
I1
I-2
I-1
I-1
I-1
I0
tp173
a(I0
I-1
I-1
I-4
I-6
I-3
I0
I-1
tp174
a(I1
I0
I0
I0
I1
I0
I0
I-2
tp175
a(I0
I-2
I-1
I-1
I-1
I-2
I0
I0
tp176
a(I0
I0
I-2
I0
I-1
I0
I1
I-1
tp177
a(I0
I-2
I-1
I1
I1
I1
I0
I-1
tp178
a(I0
I0
I-2
I1
I-2
I-3
I-3
I0
tp179
a(I0
I-1
I-1
I-1
I-2
I-1
I-2
I-1
tp180
a(I0
I1
I-1
I-3
I1
I-2
I0
I0
tp181
a(I-2
I0
I1
I1
I-4
I-2
I-2
I-1
tp182
a(I-1
I-2
I-3
I-2
I2
I-2
I-1
I1
tp183
a(I-1
I0
I1
I-1
I-2
I-3
I-1
I-1
tp184
a(I-14
I-43
I79
I-67
I-71
I54
I18
I-14
tp185
a(I-2
I9
I-27
I82
I39
I-103
I-8
I-3
tp186
a(I-1
I5
I-9
I35
I19
I-31
I-6
I1
tp187
a(I4
I14
I-9
I16
I17
I1
I-1
I8
tp188
a(I4
I10
I-15
I-1
I10
I16
I-4
I7
tp189
a(I0
I-6
I10
I-36
I-13
I45
I3
I1
tp190
a(I-6
I-10
I1
I-24
I-13
I22
I-2
I-8
tp191
a(I-4
I-10
I3
I-21
I-12
I23
I-2
I-5
tp192
a(I2
I7
I-10
I10
I12
I-11
I-2
I0
tp193
a(I-2
I-5
I4
I-13
I-10
I4
I-1
I-2
tp194
a(I2
I5
I-7
I8
I7
I-5
I-1
I2
tp195
a(I-2
I-5
I6
I-8
I-9
I7
I2
I-2
tp196
a(I1
I6
I-13
I19
I13
I-26
I-4
I-1
tp197
a(I2
I4
I-1
I2
I4
I-3
I0
I3
tp198
a(I0
I-6
I6
I-10
I-8
I15
I1
I-1
tp199
a(I-1
I-2
I3
I-1
I-5
I-1
I0
I-3
tp200
a(I-2
I2
I-14
I12
I5
I-26
I-5
I-1
tp201
a(I-3
I-4
I1
I-8
I-5
I7
I-1
I-3
tp202
a(I-1
I-4
I-1
I-6
I-7
I7
I0
I-2
tp203
a(I0
I-2
I-2
I1
I1
I-5
I1
I-2
tp204
a(I3
I8
I-12
I17
I14
I-20
I-3
I3
tp205
a(I-2
I-3
I2
I-7
I-3
I6
I-2
I-1
tp206
a(I-1
I0
I3
I-2
I-1
I3
I0
I1
tp207
a(I0
I2
I-1
I1
I1
I-4
I1
I0
tp208
a(I-3
I-1
I0
I-4
I-3
I-3
I-1
I-2
tp209
a(I-1
I-5
I-3
I2
I-1
I-1
I-1
I-1
tp210
a(I-1
I1
I-3
I5
I3
I-6
I-1
I-1
tp211
a(I0
I0
I0
I-1
I-2
I1
I0
I-1
tp212
a(I2
I1
I0
I3
I3
I-1
I0
I-1
tp213
a(I-2
I-1
I2
I-5
I-3
I-2
I-2
I-1
tp214
a(I0
I0
I-5
I5
I3
I-4
I-1
I0
tp215
a(I0
I-1
I-5
I0
I-2
I-4
I0
I-1
tp216
a(I-1
I-2
I1
I-5
I-2
I2
I0
I0
tp217
a(I0
I-2
I0
I-2
I-4
I0
I-1
I-1
tp218
a(I0
I0
I-4
I6
I7
I-4
I-2
I-2
tp219
a(I0
I0
I1
I-2
I-4
I-1
I-2
I0
tp220
a(I0
I3
I-6
I0
I0
I-4
I-1
I0
tp221
a(I-1
I-1
I1
I1
I2
I2
I-1
I-1
tp222
a(I-1
I0
I0
I-5
I-3
I-1
I0
I1
tp223
a(I1
I0
I0
I-1
I-1
I-4
I-1
I0
tp224
a(I-1
I0
I-1
I0
I0
I-2
I-2
I0
tp225
a(I0
I-1
I0
I-2
I-2
I0
I-2
I-3
tp226
a(I0
I-1
I0
I-1
I-2
I0
I0
I0
tp227
a(I-2
I0
I-1
I0
I-1
I-4
I-3
I-1
tp228
a(I-1
I-1
I-4
I1
I1
I-4
I-1
I0
tp229
a(I-3
I0
I0
I-2
I-2
I2
I0
I-1
tp230
a(I0
I1
I-1
I1
I0
I0
I0
I-2
tp231
a(I0
I-2
I-3
I0
I-2
I0
I-1
I0
tp232
a(I0
I0
I-3
I-5
I3
I4
I1
I0
tp233
a(I-1
I-1
I-2
I1
I3
I-2
I0
I-1
tp234
a(I-1
I-3
I0
I-1
I-1
I-4
I-3
I-2
tp235
a(I-1
I-1
I-2
I-2
I-1
I0
I-1
I0
tp236
a(I-1
I1
I0
I2
I-2
I-1
I-1
I1
tp237
a(I0
I1
I2
I-4
I-2
I-1
I-1
I-1
tp238
a(I1
I-4
I-5
I1
I-1
I-2
I0
I1
tp239
a(I0
I-3
I-1
I-2
I0
I1
I-1
I-1
tp240
a(I-2
I-2
I-1
I1
I-3
I-2
I0
I-2
tp241
a(I1
I0
I-2
I0
I3
I-2
I0
I-1
tp242
a(I-1
I0
I0
I-2
I0
I-2
I0
I-1
tp243
a(I-1
I0
I-3
I-3
I-1
I2
I-1
I-1
tp244
a(I-2
I0
I-2
I-1
I2
I4
I1
I-1
tp245
a(I0
I-2
I-3
I-1
I3
I-2
I-1
I0
tp246
a(I-1
I-1
I-1
I-1
I-2
I-1
I-1
I0
tp247
a(I-2
I-2
I0
I0
I1
I0
I-1
I-2
tp248
a(I1
I-1
I-1
I2
I-2
I-4
I-2
I-1
tp249
a(I1
I0
I1
I-3
I1
I2
I0
I-1
tp250
a(I-2
I-2
I-1
I-4
I-3
I-1
I-1
I0
tp251
a(I-1
I-2
I-3
I-3
I-2
I-4
I-1
I-1
tp252
a(I-1
I-1
I-1
I0
I0
I-1
I-2
I-2
tp253
a(I1
I-1
I-2
I0
I-3
I-2
I-2
I-1
tp254
a(I0
I0
I-1
I0
I3
I-1
I-1
I-1
tp255
a(I-1
I-1
I-1
I0
I-1
I-3
I-1
I1
tp256
a(I1
I-2
I0
I-1
I-2
I0
I-1
I-2
tp257
a(I-1
I-1
I2
I0
I0
I0
I0
I0
tp258
a(I-1
I-1
I-3
I-3
I0
I-1
I0
I-1
tp259
a(I0
I1
I0
I-1
I-2
I-1
I0
I-2
tp260
a(I0
I-1
I0
I-1
I-2
I-1
I-1
I0
tp261
a(I-1
I0
I1
I3
I0
I-2
I-1
I-2
tp262
a(I-1
I0
I-3
I-1
I-6
I-3
I-3
I0
tp263
a(I-1
I-2
I0
I-1
I1
I-2
I-1
I-1
tp264
a(I-1
I-1
I-2
I-3
I1
I4
I0
I-1
tp265
a(I-1
I-1
I-2
I1
I0
I-4
I-1
I0
tp266
a(I0
I0
I0
I-3
I-3
I0
I0
I1
tp267
a(I-2
I-2
I-3
I-1
I3
I-2
I0
I0
tp268
a(I0
I-1
I-2
I1
I1
I1
I-1
I-1
tp269
a(I-1
I2
I3
I-1
I-1
I-1
I-1
I0
tp270
a(I-1
I-2
I-1
I-2
I-1
I0
I-1
I0
tp271
a(I-3
I-2
I0
I-1
I1
I-3
I-3
I-2
tp272
a(I-1
I-1
I1
I-1
I-1
I-1
I-1
I-2
tp273
a(I0
I0
I-2
I-2
I-3
I-1
I-2
I0
tp274
a(I-1
I0
I-1
I-1
I-1
I-1
I2
I-2
tp275
a(I0
I-2
I-3
I0
I-1
I-1
I0
I-1
tp276
a(I0
I1
I-1
I-2
I0
I-4
I1
I-1
tp277
a(I0
I0
I2
I-1
I0
I0
I-2
I-3
tp278
a(I-1
I0
I0
I1
I3
I0
I1
I1
tp279
a(I1
I-2
I-2
I0
I-1
I0
I-1
I1
tp280
a(I1
I-1
I-1
I-3
I-4
I0
I-1
I-1
tp281
a(I-1
I-1
I-2
I3
I0
I-1
I-1
I-2
tp282
a(I-1
I0
I-1
I1
I2
I-2
I-2
I-1
tp283
a(I-3
I-1
I-2
I-1
I-2
I1
I0
I-2
tp284
a(I-1
I-3
I0
I0
I-3
I0
I-2
I-1
tp285
a(I0
I-1
I-1
I-3
I-2
I0
I-1
I0
tp286
a(I-2
I-1
I-1
I1
I-1
I-1
I-1
I-1
tp287
a(I0
I-2
I-3
I0
I-1
I1
I-1
I0
tp288
a(I-2
I1
I0
I-1
I-2
I-2
I-1
I0
tp289
a(I0
I0
I-3
I-1
I0
I-3
I-1
I-1
tp290
a(I-2
I-1
I0
I-1
I1
I0
I-3
I-1
tp291
a(I1
I0
I0
I0
I-1
I2
I0
I-1
tp292
a(I-1
I-1
I0
I0
I-2
I0
I-1
I0
tp293
a(I1
I-1
I1
I2
I1
I-3
I-1
I-1
tp294
a(I0
I-3
I-2
I0
I-3
I-3
I-1
I0
tp295
a(I0
I1
I-1
I-5
I-3
I-3
I0
I-2
tp296
a(I-1
I-2
I-3
I-1
I6
I-1
I0
I0
tp297
a(I-1
I-2
I0
I-2
I-3
I2
I1
I-1
tp298
a(I0
I-1
I1
I2
I-1
I-1
I0
I-1
tp299
a(I-3
I0
I-1
I1
I0
I-3
I-1
I-1
tp300
a(I-1
I-2
I-2
I-1
I-2
I1
I1
I-2
tp301
a(I-1
I-1
I-4
I-4
I-2
I-2
I-1
I0
tp302
a(I0
I0
I0
I-1
I0
I0
I0
I0
tp303
a(I0
I0
I-1
I0
I-1
I-2
I-1
I1
tp304
a(I0
I-1
I-1
I-1
I-2
I-2
I-1
I-2
tp305
a(I0
I-1
I-1
I4
I0
I-2
I-3
I-1
tp306
a(I0
I0
I1
I-1
I1
I-1
I0
I-1
tp307
a(I-1
I0
I1
I2
I0
I0
I-1
I-1
tp308
a(I-1
I0
I-1
I0
I0
I-2
I-1
I-2
tp309
a(I-1
I1
I3
I3
I-3
I0
I-1
I0
tp310
a(I0
I-2
I-1
I-4
I0
I-3
I0
I-1
tp311
a(I0
I0
I-1
I-4
I-3
I0
I0
I2
tp312
a(I-1
I-1
I-1
I-3
I1
I0
I-1
I-2
tp313
a(I-1
I-1
I-2
I0
I0
I-2
I-1
I-1
tp314
a(I-1
I0
I-1
I1
I-3
I0
I-1
I0
tp315
a(I-3
I-2
I-1
I0
I-1
I-1
I-2
I-1
tp316
a(I0
I0
I1
I-1
I-1
I1
I0
I-2
tp317
a(I0
I0
I1
I0
I0
I0
I0
I-1
tp318
a(I0
I-1
I1
I-1
I1
I0
I-2
I1
tp319
a(I-2
I-3
I-2
I0
I0
I-3
I-1
I-1
tp320
a(I-1
I1
I-1
I-4
I-2
I-3
I0
I-2
tp321
a(I-1
I-1
I0
I0
I-1
I-1
I0
I0
tp322
a(I-1
I0
I-2
I-1
I-3
I-3
I0
I-1
tp323
a(I1
I-2
I1
I0
I3
I-1
I0
I-1
tp324
a(I-1
I0
I1
I-1
I-2
I-2
I-2
I0
tp325
a(I-1
I0
I-4
I0
I-3
I0
I0
I-1
tp326
a(I-1
I-2
I-1
I-2
I-3
I0
I-2
I-1
tp327
a(I-1
I-1
I-3
I-4
I0
I-2
I-1
I-1
tp328
a(I0
I-1
I0
I0
I-1
I-1
I0
I-3
tp329
a(I-1
I1
I-2
I1
I-1
I-1
I-1
I-2
tp330
a(I-1
I-2
I0
I2
I-1
I0
I-1
I0
tp331
a(I0
I-2
I1
I-3
I-1
I0
I0
I-1
tp332
a(I-2
I-1
I-3
I-2
I3
I-3
I-2
I-1
tp333
a(I-1
I1
I1
I-2
I0
I0
I-1
I0
tp334
a(I-1
I-2
I-3
I-3
I1
I-1
I-1
I-1
tp335
a(I1
I-1
I-1
I2
I-3
I-1
I-1
I0
tp336
a(I1
I1
I2
I-1
I-2
I-1
I0
I-1
tp337
a(I2
I1
I0
I-1
I1
I-1
I0
I0
tp338
a(I-1
I0
I-3
I0
I-3
I-4
I-2
I0
tp339
a(I-1
I-2
I-2
I-2
I-1
I-1
I-1
I-1
tp340
a(I-1
I-2
I1
I-2
I-2
I-3
I1
I-1
tp341
a(I-1
I-2
I-2
I-1
I2
I1
I0
I-2
tp342
a(I-1
I-1
I-1
I0
I-1
I-2
I-1
I0
tp343
a(I-2
I-1
I-3
I-1
I-3
I-2
I1
I-2
tp344
a(I-1
I-1
I-1
I1
I1
I1
I-2
I-1
tp345
a(I-1
I-1
I-1
I-3
I-1
I0
I-1
I0
tp346
a(I-1
I0
I0
I4
I-3
I-1
I0
I0
tp347
a(I0
I-1
I-3
I-3
I-1
I-2
I-1
I-1
tp348
a(I-1
I-1
I-1
I-2
I-1
I0
I-1
I0
tp349
a(I0
I1
I1
I-1
I-3
I-3
I-1
I-2
tp350
a(I0
I-1
I1
I-1
I2
I3
I-2
I1
tp351
a(I0
I-1
I-3
I0
I-5
I-4
I0
I-2
tp352
a(I-1
I-1
I0
I-2
I-3
I-2
I-2
I-2
tp353
a(I-2
I-2
I-2
I-2
I0
I-3
I-2
I0
tp354
as.