(dp0
S'close'
p1
(lp2
(lp3
(I0
I-1
I-5
I1
I1
I-8
I-3
I-2
tp4
a(I-1
I-1
I3
I-6
I-3
I6
I-1
I-1
tp5
a(I0
I-2
I5
I-4
I-4
I10
I0
I0
tp6
a(I-1
I-2
I-9
I2
I0
I-7
I-2
I-2
tp7
a(I-1
I2
I1
I3
I2
I-7
I0
I-1
tp8
a(I-1
I-1
I-2
I-3
I-2
I3
I-2
I-1
tp9
a(I1
I-2
I5
I-7
I-3
I5
I0
I0
tp10
a(I-1
I2
I-2
I1
I-1
I-3
I0
I0
tp11
a(I-2
I-2
I-5
I10
I4
I-7
I-1
I-1
tp12
a(I-1
I-2
I-1
I-1
I-2
I-2
I-1
I0
tp13
a(I1
I-2
I1
I-5
I-3
I7
I1
I2
tp14
a(I-1
I-3
I-3
I2
I-1
I-5
I-1
I-1
tp15
a(I-1
I0
I-5
I-1
I0
I-5
I-1
I-1
tp16
a(I0
I-1
I4
I-1
I0
I4
I1
I-2
tp17
a(I-2
I-1
I2
I-2
I-1
I3
I0
I-1
tp18
a(I1
I1
I1
I-2
I0
I-5
I-1
I-2
tp19
a(I-1
I-1
I-2
I2
I-1
I-5
I0
I0
tp20
a(I-1
I-1
I1
I-3
I1
I1
I-1
I2
tp21
a(I-1
I-2
I2
I-3
I-3
I2
I-1
I-3
tp22
a(I-2
I-1
I-4
I3
I0
I-4
I-1
I0
tp23
a(I0
I2
I-2
I-2
I1
I-3
I-1
I0
tp24
a(I-2
I-1
I0
I-3
I-2
I-2
I0
I0
tp25
a(I-2
I0
I-1
I-3
I1
I0
I-1
I0
tp26
a(I-2
I-2
I-2
I2
I-1
I-3
I-1
I-1
tp27
a(I0
I-2
I-1
I-1
I-2
I0
I-2
I-1
tp28
a(I0
I-1
I-3
I-1
I0
I-1
I-2
I-1
tp29
a(I0
I-1
I-1
I-3
I-3
I-2
I-1
I1
tp30
a(I1
I0
I0
I1
I-1
I-1
I0
I-2
tp31
a(I-1
I-4
I-4
I-4
I3
I1
I0
I1
tp32
a(I2
I-1
I-1
I0
I2
I-2
I-1
I-1
tp33
a(I-1
I-3
I-3
I1
I2
I0
I-1
I1
tp34
a(I2
I2
I1
I0
I-3
I-4
I-1
I1
tp35
a(I-2
I0
I0
I-3
I-3
I-3
I-3
I-1
tp36
a(I-1
I-1
I0
I-2
I-2
I-3
I-2
I0
tp37
a(I-1
I0
I-2
I1
I0
I-1
I-2
I-1
tp38
a(I-2
I-1
I1
I-4
I0
I0
I-1
I0
tp39
a(I0
I0
I-2
I1
I-1
I-2
I-1
I-3
tp40
a(I2
I-3
I-2
I0
I0
I-3
I-1
I2
tp41
a(I-2
I0
I-3
I-1
I0
I-2
I-3
I-2
tp42
a(I0
I1
I-3
I-2
I1
I0
I-1
I1
tp43
a(I0
I-2
I0
I0
I-2
I-1
I0
I-1
tp44
a(I0
I0
I-7
I-5
I2
I1
I-1
I0
tp45
a(I-1
I-1
I6
I-2
I-2
I-1
I1
I1
tp46
a(I-3
I-3
I-2
I1
I0
I-2
I0
I-3
tp47
a(I0
I3
I0
I1
I-2
I-2
I-2
I0
tp48
a(I-3
I-3
I-2
I-1
I1
I-1
I0
I-1
tp49
a(I2
I1
I-4
I2
I-2
I-1
I0
I0
tp50
a(I-1
I-1
I-4
I1
I0
I-1
I-2
I-1
tp51
a(I0
I-2
I-1
I-7
I-2
I0
I-1
I0
tp52
a(I-2
I-1
I3
I1
I-2
I0
I0
I0
tp53
a(I-1
I0
I-3
I0
I0
I0
I1
I-3
tp54
a(I0
I-1
I-2
I0
I-3
I0
I-1
I0
tp55
a(I0
I-1
I-1
I3
I0
I-2
I0
I0
tp56
a(I-1
I1
I0
I-3
I0
I-1
I-1
I0
tp57
a(I0
I-1
I-2
I-2
I-2
I-1
I-3
I-1
tp58
a(I-1
I-3
I0
I1
I-1
I-2
I0
I0
tp59
a(I-1
I0
I-1
I1
I-1
I0
I1
I-3
tp60
a(I-1
I-1
I-2
I0
I-1
I-2
I0
I-2
tp61
a(I0
I-3
I0
I-2
I-1
I-1
I0
I-1
tp62
a(I0
I1
I0
I-1
I0
I-2
I0
I0
tp63
a(I-1
I-2
I-3
I-1
I0
I-2
I-2
I-1
tp64
a(I0
I0
I-1
I0
I-1
I-2
I0
I2
tp65
a(I-1
I-1
I0
I-2
I-1
I-2
I-1
I-2
tp66
a(I0
I-1
I1
I-2
I-1
I0
I-1
I-1
tp67
a(I-3
I-1
I2
I3
I2
I0
I-2
I-2
tp68
a(I2
I-1
I0
I3
I-1
I0
I-1
I0
tp69
a(I-2
I0
I-3
I-2
I-1
I-1
I-1
I-1
tp70
a(I0
I-1
I-3
I-1
I0
I-2
I-1
I-2
tp71
a(I0
I-3
I1
I-4
I-1
I0
I-1
I-1
tp72
a(I-2
I-1
I-2
I0
I-2
I-2
I-3
I-3
tp73
a(I0
I1
I-1
I-1
I-1
I-1
I-1
I0
tp74
a(I0
I-1
I-2
I0
I0
I2
I-1
I0
tp75
a(I0
I1
I-1
I-2
I-1
I-1
I-1
I-1
tp76
a(I-1
I-2
I-2
I0
I1
I0
I-1
I-3
tp77
a(I-1
I-1
I-2
I0
I-3
I-3
I0
I1
tp78
a(I0
I0
I1
I-2
I-1
I1
I-1
I2
tp79
a(I-1
I-3
I-2
I1
I-1
I-5
I-1
I-3
tp80
a(I0
I0
I-2
I1
I-1
I-1
I-1
I-1
tp81
a(I-1
I-1
I0
I-1
I1
I1
I1
I0
tp82
a(I-1
I-2
I2
I-3
I-2
I-2
I0
I-1
tp83
a(I-2
I1
I-3
I0
I-1
I-2
I-2
I0
tp84
a(I-4
I-2
I-1
I0
I-3
I-2
I0
I-1
tp85
a(I-1
I-1
I-1
I0
I-1
I0
I1
I-1
tp86
a(I-1
I0
I-1
I-2
I1
I-2
I0
I-2
tp87
a(I0
I-1
I-2
I-1
I2
I0
I0
I-2
tp88
a(I-1
I-3
I-1
I4
I1
I-6
I-1
I1
tp89
a(I-2
I-2
I0
I-4
I-3
I-2
I2
I1
tp90
a(I1
I0
I0
I-2
I0
I-3
I-1
I0
tp91
a(I-2
I-1
I-2
I-3
I0
I-1
I-2
I-3
tp92
a(I-1
I-1
I0
I1
I-1
I-1
I-1
I0
tp93
a(I-2
I-1
I-1
I-1
I2
I0
I-1
I-1
tp94
a(I-1
I0
I-4
I0
I-2
I-3
I-2
I0
tp95
a(I1
I0
I2
I1
I1
I0
I-1
I1
tp96
a(I-2
I0
I0
I-1
I-1
I-1
I-1
I0
tp97
a(I0
I0
I-3
I-1
I1
I0
I-1
I0
tp98
a(I-1
I-3
I-4
I-2
I0
I-2
I-1
I-1
tp99
a(I1
I3
I0
I-2
I-2
I1
I-1
I-2
tp100
a(I0
I-1
I-1
I0
I-3
I-2
I-1
I-1
tp101
a(I0
I-4
I-1
I-1
I-3
I-1
I-2
I0
tp102
a(I0
I0
I-2
I0
I-1
I-1
I-1
I-1
tp103
a(I0
I0
I-1
I-1
I0
I-4
I-1
I0
tp104
a(I-2
I0
I-2
I-4
I-1
I0
I0
I-2
tp105
a(I-1
I0
I-1
I0
I-3
I0
I0
I-1
tp106
a(I-1
I0
I-2
I0
I1
I3
I-1
I-1
tp107
a(I-2
I-2
I-2
I1
I0
I-1
I-1
I-1
tp108
a(I-2
I0
I-3
I-1
I-3
I-4
I-3
I-1
tp109
a(I-2
I-2
I-1
I-2
I2
I0
I0
I0
tp110
a(I-1
I-3
I-3
I-3
I-2
I-4
I-1
I-1
tp111
a(I0
I0
I-1
I-1
I-1
I-1
I0
I0
tp112
a(I-2
I-1
I0
I1
I0
I-1
I-2
I0
tp113
a(I-3
I-1
I-2
I0
I1
I-3
I-1
I-1
tp114
a(I0
I0
I-2
I3
I-3
I-2
I0
I0
tp115
a(I0
I1
I-1
I0
I0
I-3
I-2
I0
tp116
a(I-2
I-2
I0
I-1
I0
I-1
I-1
I-3
tp117
a(I-1
I0
I-1
I0
I-1
I-1
I-2
I-1
tp118
a(I-2
I-1
I-1
I-1
I-1
I-2
I-3
I-2
tp119
a(I-2
I0
I-2
I1
I-1
I-1
I0
I-1
tp120
a(I-2
I-1
I0
I-1
I0
I0
I0
I-1
tp121
a(I0
I0
I-4
I-2
I-2
I-1
I0
I-3
tp122
a(I-1
I-1
I-1
I-4
I1
I0
I0
I-2
tp123
a(I-2
I0
I1
I0
I-1
I0
I0
I-3
tp124
a(I-1
I0
I1
I-3
I1
I-8
I-8
I1
tp125
a(I-1
I-1
I0
I1
I1
I6
I-4
I0
tp126
a(I-3
I-1
I0
I-1
I-3
I8
I1
I-1
tp127
a(I0
I0
I-2
I2
I2
I2
I-1
I0
tp128
a(I-1
I-2
I-1
I-3
I0
I2
I-3
I1
tp129
a(I0
I1
I-3
I-1
I2
I-1
I3
I-1
tp130
a(I-4
I-1
I-1
I1
I-1
I-3
I1
I0
tp131
a(I0
I0
I-1
I-1
I-2
I-2
I0
I0
tp132
a(I0
I0
I1
I1
I0
I-1
I-1
I0
tp133
a(I-1
I0
I-1
I0
I-3
I-2
I0
I-1
tp134
a(I-2
I-1
I1
I-1
I-2
I0
I0
I0
tp135
a(I-2
I-2
I-1
I0
I-1
I0
I-1
I-1
tp136
a(I-1
I-2
I0
I-1
I-2
I0
I0
I0
tp137
a(I-1
I-2
I-2
I-1
I0
I1
I-2
I1
tp138
a(I1
I2
I-3
I0
I-2
I-2
I-2
I-2
tp139
a(I-3
I-1
I-1
I-3
I-1
I-2
I-1
I-2
tp140
a(I-2
I-2
I-2
I-1
I-1
I-1
I-1
I-3
tp141
a(I-1
I-2
I-3
I1
I-2
I-1
I0
I0
tp142
a(I0
I-1
I-3
I-2
I1
I-1
I0
I-1
tp143
a(I1
I0
I-1
I1
I-1
I-3
I0
I0
tp144
a(I-3
I-2
I-3
I-2
I1
I1
I0
I0
tp145
a(I0
I1
I-4
I-3
I-3
I-2
I-3
I-1
tp146
a(I-1
I-3
I-1
I-1
I0
I1
I-2
I0
tp147
a(I-2
I-1
I1
I-2
I-1
I-1
I-1
I-2
tp148
a(I-1
I0
I-1
I-1
I-1
I1
I1
I0
tp149
a(I0
I1
I2
I2
I1
I-1
I0
I-2
tp150
a(I0
I-1
I-3
I-1
I-1
I-1
I-1
I0
tp151
a(I0
I1
I-3
I1
I-2
I-1
I1
I-2
tp152
a(I0
I-1
I0
I-2
I0
I0
I0
I-2
tp153
a(I-2
I1
I-2
I0
I-2
I-1
I0
I-2
tp154
a(I-2
I0
I0
I-2
I2
I-3
I-2
I0
tp155
a(I-1
I0
I-3
I-2
I-1
I-3
I-2
I-2
tp156
a(I-3
I-2
I0
I1
I1
I-1
I-1
I-1
tp157
a(I-2
I0
I1
I-2
I-4
I-3
I-2
I-1
tp158
a(I-3
I-1
I0
I-2
I-3
I-2
I-1
I1
tp159
a(I0
I-2
I-2
I0
I4
I1
I-1
I-1
tp160
a(I-2
I-1
I1
I1
I-1
I-4
I-3
I-1
tp161
a(I-1
I-2
I0
I-3
I2
I0
I0
I0
tp162
a(I2
I0
I0
I1
I-1
I0
I-1
I0
tp163
a(I-1
I-1
I0
I-3
I-3
I-2
I-1
I1
tp164
a(I1
I1
I-2
I-1
I1
I-1
I2
I-1
tp165
a(I0
I-4
I-1
I-3
I-1
I-1
I-1
I-1
tp166
a(I-1
I-2
I0
I0
I-1
I-2
I0
I-2
tp167
a(I-1
I-2
I-1
I2
I-1
I-4
I-1
I0
tp168
a(I-2
I1
I1
I0
I-1
I-1
I0
I-1
tp169
a(I0
I-3
I-1
I-1
I0
I-1
I-1
I-1
tp170
a(I-2
I-2
I-1
I-2
I-3
I-1
I0
I-1
tp171
a(I-2
I1
I-1
I1
I-2
I1
I-1
I-2
tp172
a(I-2
I-2
I-2
I-1
I-3
I-3
I-2
I0
tp173
a(I0
I-1
I-3
I2
I1
I0
I-2
I-1
tp174
a(I-2
I-3
I-2
I1
I-3
I1
I0
I0
tp175
a(I1
I1
I3
I-4
I1
I-4
I-2
I0
tp176
a(I1
I-1
I-1
I-1
I-2
I-1
I0
I-1
tp177
a(I-1
I-1
I0
I0
I-1
I-3
I0
I-2
tp178
a(I-1
I-2
I-1
I-2
I1
I1
I0
I0
tp179
a(I-1
I-1
I1
I0
I0
I0
I0
I0
tp180
a(I1
I-1
I0
I-1
I0
I-1
I-2
I1
tp181
a(I-1
I-2
I-2
I-1
I0
I-1
I1
I1
tp182
a(I-1
I-1
I-3
I1
I-1
I-2
I0
I0
tp183
a(I-1
I-2
I0
I-1
I-2
I0
I0
I-2
tp184
a(I-1
I1
I0
I-1
I0
I-2
I-1
I-1
tp185
a(I-2
I2
I-3
I1
I-3
I-2
I-1
I-2
tp186
a(I-2
I-4
I0
I-1
I1
I3
I0
I-2
tp187
a(I-1
I0
I-3
I-2
I-2
I-3
I-1
I-1
tp188
a(I2
I1
I-2
I-1
I0
I-1
I0
I0
tp189
a(I-1
I-2
I-1
I0
I-2
I-1
I-1
I-1
tp190
a(I-1
I0
I0
I-1
I-2
I-1
I0
I-1
tp191
a(I-3
I-1
I-1
I0
I-1
I0
I-3
I-1
tp192
a(I-1
I-2
I0
I-2
I0
I0
I-1
I-1
tp193
a(I-2
I0
I-1
I0
I1
I-4
I-2
I-1
tp194
a(I0
I-2
I-1
I-2
I-1
I-2
I-3
I1
tp195
a(I-1
I-2
I0
I-4
I0
I1
I0
I-1
tp196
a(I0
I0
I0
I2
I-1
I-1
I-1
I-1
tp197
a(I0
I-2
I-4
I-2
I0
I-2
I0
I-1
tp198
a(I-1
I0
I1
I1
I1
I2
I-1
I-1
tp199
a(I-1
I1
I1
I0
I-1
I0
I1
I1
tp200
a(I0
I-1
I-2
I0
I0
I-1
I-1
I0
tp201
a(I0
I-1
I-1
I-1
I-1
I-2
I-1
I-1
tp202
a(I-1
I1
I-1
I-2
I-2
I-2
I-1
I-2
tp203
a(I0
I-3
I-2
I0
I0
I0
I-1
I0
tp204
a(I-1
I0
I-2
I-2
I-1
I0
I-2
I-1
tp205
a(I0
I0
I-1
I0
I-3
I-1
I-1
I-1
tp206
a(I-2
I-2
I-3
I-2
I2
I2
I-1
I-1
tp207
a(I-3
I-1
I-2
I-1
I-1
I-4
I1
I-1
tp208
a(I-1
I-1
I-1
I-1
I0
I0
I-1
I-1
tp209
a(I-1
I0
I-2
I-2
I0
I0
I-1
I-2
tp210
a(I-1
I-1
I-2
I1
I1
I-2
I1
I0
tp211
a(I1
I-1
I-2
I-3
I1
I1
I0
I-2
tp212
a(I0
I-2
I-2
I2
I-3
I-2
I-1
I-1
tp213
a(I-3
I0
I1
I1
I-1
I-2
I-1
I-2
tp214
a(I0
I-2
I-2
I-2
I-1
I-1
I-2
I0
tp215
a(I-1
I-2
I-1
I-1
I1
I-4
I0
I0
tp216
a(I1
I0
I0
I-2
I0
I0
I1
I-1
tp217
a(I-1
I0
I-3
I-1
I0
I-3
I-1
I-1
tp218
a(I-3
I-1
I-3
I-1
I-3
I-2
I-1
I-1
tp219
a(I1
I-1
I0
I-3
I-3
I-3
I-1
I0
tp220
a(I-1
I1
I2
I-1
I3
I1
I0
I-1
tp221
a(I0
I-1
I0
I0
I-3
I-1
I1
I-2
tp222
a(I-2
I-1
I-2
I-1
I1
I-1
I-4
I-1
tp223
a(I-2
I1
I0
I0
I1
I2
I-2
I-2
tp224
a(I-1
I-1
I-1
I-1
I-3
I-1
I-1
I0
tp225
a(I-1
I0
I3
I0
I-2
I-1
I-2
I-1
tp226
a(I-2
I-3
I1
I1
I-1
I1
I1
I0
tp227
a(I-1
I-1
I-3
I-1
I1
I1
I0
I1
tp228
a(I-2
I0
I-3
I-4
I-2
I-2
I-1
I-2
tp229
a(I0
I-1
I-2
I1
I0
I1
I-2
I-1
tp230
a(I-3
I0
I0
I-1
I-1
I-2
I-1
I1
tp231
a(I1
I0
I-4
I-4
I-1
I-2
I-1
I0
tp232
a(I-1
I-2
I1
I-2
I-3
I-3
I-2
I0
tp233
a(I0
I0
I1
I-2
I-2
I-1
I-1
I-2
tp234
a(I-1
I-2
I0
I1
I1
I1
I0
I1
tp235
a(I0
I0
I-2
I2
I0
I-2
I-2
I-2
tp236
a(I-3
I1
I-2
I-3
I-1
I1
I0
I-1
tp237
a(I-1
I-3
I-1
I-1
I0
I0
I0
I-1
tp238
a(I0
I-1
I-1
I-2
I-3
I-2
I-2
I-1
tp239
a(I-1
I0
I-2
I-1
I1
I-1
I-2
I1
tp240
a(I-1
I-1
I-2
I0
I0
I0
I-1
I-1
tp241
a(I-2
I-3
I-2
I0
I1
I0
I0
I-1
tp242
a(I0
I1
I-1
I-1
I-3
I-2
I-2
I-1
tp243
a(I0
I-1
I0
I-3
I-1
I-4
I-1
I1
tp244
a(I-1
I1
I-2
I0
I1
I0
I0
I-1
tp245
a(I-1
I0
I-2
I-3
I0
I-2
I-1
I0
tp246
a(I0
I0
I-1
I-1
I0
I-2
I0
I-2
tp247
a(I0
I-1
I-1
I-1
I0
I1
I0
I-1
tp248
a(I-1
I-1
I1
I-2
I-1
I-1
I0
I0
tp249
a(I-1
I-1
I0
I2
I1
I-1
I-1
I-1
tp250
a(I-1
I1
I0
I-3
I0
I0
I0
I-2
tp251
a(I0
I-2
I-2
I-3
I-1
I2
I0
I-2
tp252
a(I1
I1
I-2
I-1
I-1
I-1
I-2
I0
tp253
a(I0
I1
I-1
I-1
I0
I1
I0
I0
tp254
a(I-2
I-2
I-1
I-1
I3
I-2
I2
I0
tp255
a(I-1
I-1
I0
I-1
I0
I0
I0
I1
tp256
a(I0
I-2
I-1
I-2
I-1
I-1
I-1
I0
tp257
a(I-1
I-1
I-2
I-1
I-3
I-1
I0
I0
tp258
a(I-1
I-1
I0
I1
I-2
I-3
I-2
I0
tp259
a(I-2
I-1
I-3
I-1
I-1
I-2
I-1
I-2
tp260
a(I-1
I-1
I-1
I1
I0
I0
I-2
I0
tp261
a(I-2
I-2
I-1
I2
I1
I-1
I-1
I0
tp262
a(I0
I1
I0
I-2
I0
I-1
I-2
I0
tp263
a(I0
I-1
I0
I2
I-1
I-4
I-1
I-1
tp264
a(I-1
I-2
I-1
I0
I0
I0
I-2
I0
tp265
a(I-5
I1
I-1
I0
I-1
I-2
I0
I-1
tp266
a(I0
I-1
I-1
I-2
I2
I0
I1
I0
tp267
a(I-2
I-1
I-1
I-2
I-2
I0
I-1
I-1
tp268
a(I-1
I0
I-1
I-1
I-2
I-3
I1
I1
tp269
a(I2
I1
I-3
I-2
I0
I-1
I-1
I-1
tp270
a(I0
I-2
I-3
I-2
I-2
I-1
I-1
I-1
tp271
a(I1
I-1
I-1
I2
I1
I-1
I0
I-1
tp272
a(I0
I-2
I-2
I0
I-3
I-2
I-1
I0
tp273
a(I0
I1
I0
I2
I1
I-2
I-1
I-2
tp274
a(I-1
I2
I0
I0
I0
I-2
I0
I-1
tp275
a(I0
I-1
I-2
I-2
I2
I0
I1
I0
tp276
a(I0
I0
I-1
I0
I-1
I-1
I-2
I-2
tp277
a(I1
I-3
I1
I-2
I-2
I-2
I-2
I-1
tp278
a(I-2
I1
I0
I1
I2
I0
I1
I0
tp279
a(I-2
I0
I-2
I-1
I-2
I-1
I-2
I-1
tp280
a(I1
I-2
I-2
I-4
I-1
I0
I0
I-1
tp281
a(I-1
I-2
I0
I-2
I-3
I-3
I-1
I1
tp282
a(I1
I0
I-1
I0
I3
I1
I0
I-1
tp283
a(I1
I-2
I-1
I3
I0
I-1
I0
I-1
tp284
a(I-4
I-1
I-1
I-1
I-2
I-4
I-1
I-2
tp285
a(I0
I1
I0
I-5
I-1
I-1
I0
I-1
tp286
a(I0
I-2
I1
I-3
I0
I-1
I-1
I-2
tp287
a(I-1
I0
I-1
I0
I0
I0
I-2
I0
tp288
a(I-1
I0
I-1
I0
I0
I2
I-1
I-2
tp289
a(I-1
I0
I-2
I0
I3
I0
I0
I1
tp290
a(I1
I-2
I-1
I1
I-2
I-2
I0
I-1
tp291
a(I-2
I1
I0
I-1
I-1
I0
I-2
I-1
tp292
a(I-1
I-3
I-1
I-1
I-3
I-2
I-1
I0
tp293
a(I1
I1
I1
I-1
I1
I0
I-1
I-2
tp294
a(I-1
I0
I-1
I-3
I-1
I0
I0
I0
tp295
a(I-2
I0
I-1
I0
I-1
I-1
I0
I-2
tp296
a(I0
I-1
I-1
I1
I-1
I-3
I0
I-3
tp297
a(I-1
I0
I-2
I1
I-1
I-3
I1
I0
tp298
a(I-2
I-1
I0
I-1
I-3
I0
I-1
I-1
tp299
a(I0
I1
I0
I0
I2
I0
I-2
I-1
tp300
a(I-1
I-1
I-3
I1
I-1
I-1
I-1
I0
tp301
a(I-1
I0
I-2
I-2
I-4
I-2
I-1
I-1
tp302
a(I-2
I-2
I0
I-1
I0
I-1
I-1
I-1
tp303
a(I1
I-1
I0
I0
I-3
I1
I-1
I-1
tp304
a(I-2
I-2
I-1
I-1
I2
I-1
I-2
I-1
tp305
a(I0
I-2
I-2
I-2
I-3
I0
I-2
I-2
tp306
a(I-1
I0
I-1
I-1
I-1
I-1
I1
I1
tp307
a(I-2
I-2
I-4
I2
I-2
I-3
I-2
I-1
tp308
a(I0
I2
I3
I-3
I-2
I-2
I1
I1
tp309
a(I-3
I-3
I0
I-1
I0
I0
I1
I-3
tp310
a(I-1
I-2
I-1
I0
I0
I0
I0
I-1
tp311
a(I-1
I-2
I-3
I-1
I-3
I-3
I0
I0
tp312
a(I2
I0
I1
I1
I0
I-1
I-3
I-1
tp313
a(I-2
I0
I1
I0
I0
I1
I1
I0
tp314
a(I-2
I-3
I-2
I0
I-1
I-1
I0
I-2
tp315
a(I0
I0
I-1
I-1
I-2
I0
I-1
I0
tp316
a(I-2
I-1
I-1
I-2
I1
I-1
I-1
I-1
tp317
a(I0
I-1
I0
I-2
I-2
I-1
I-2
I-2
tp318
a(I-2
I-1
I-2
I1
I-2
I-1
I-1
I0
tp319
a(I2
I0
I-1
I-2
I0
I0
I-2
I-1
tp320
a(I0
I0
I-1
I-2
I-1
I-1
I-1
I0
tp321
a(I0
I-2
I-1
I0
I-1
I-4
I-2
I0
tp322
a(I-1
I0
I-2
I-3
I-3
I-1
I-1
I1
tp323
a(I-1
I-3
I-1
I1
I0
I-2
I-1
I-2
tp324
a(I0
I-1
I-3
I0
I1
I1
I0
I0
tp325
a(I-3
I21
I-50
I53
I55
I-46
I-12
I2
tp326
a(I0
I9
I8
I-16
I12
I17
I0
I5
tp327
a(I-1
I4
I23
I-36
I-7
I35
I3
I4
tp328
a(I2
I-5
I37
I-47
I-26
I47
I7
I2
tp329
a(I-3
I-7
I17
I-26
I-24
I22
I4
I-3
tp330
a(I1
I-4
I-1
I-3
I-7
I4
I1
I-3
tp331
a(I0
I-2
I8
I-14
I-15
I10
I2
I-1
tp332
a(I-1
I1
I-6
I4
I0
I-4
I-1
I-2
tp333
a(I0
I-4
I-2
I-4
I-6
I-2
I1
I-2
tp334
a(I-1
I0
I-9
I6
I1
I-9
I-3
I-4
tp335
a(I-2
I-3
I1
I-3
I-2
I1
I-1
I-1
tp336
a(I-1
I-1
I-8
I7
I4
I-11
I-3
I-1
tp337
a(I0
I0
I-3
I1
I-3
I-5
I0
I0
tp338
a(I-3
I-3
I2
I-12
I-6
I4
I0
I0
tp339
a(I1
I-1
I-5
I4
I4
I-4
I-2
I-1
tp340
a(I-2
I-1
I-8
I7
I6
I-6
I-3
I0
tp341
a(I-1
I-2
I4
I-6
I-4
I4
I0
I-2
tp342
a(I-3
I-2
I-1
I1
I-3
I-5
I-1
I-2
tp343
a(I-2
I-1
I-4
I2
I3
I-1
I-2
I-2
tp344
a(I-2
I1
I-6
I2
I6
I-4
I-2
I0
tp345
a(I0
I-3
I1
I-4
I-5
I1
I-1
I-1
tp346
a(I0
I2
I-3
I2
I-1
I-2
I-2
I-2
tp347
a(I-1
I0
I-1
I2
I1
I-3
I-2
I-3
tp348
a(I1
I1
I1
I-1
I-2
I2
I0
I-3
tp349
a(I0
I0
I-1
I-3
I-3
I1
I-1
I1
tp350
a(I0
I1
I-3
I0
I1
I-4
I0
I-2
tp351
a(I-3
I-2
I0
I1
I0
I-2
I0
I0
tp352
a(I-1
I0
I-2
I2
I-1
I-3
I1
I0
tp353
a(I-2
I-1
I-2
I-2
I-1
I-2
I-1
I0
tp354
a(I-1
I-1
I-3
I-2
I1
I-3
I0
I0
tp355
a(I0
I-1
I-2
I-1
I-3
I1
I-2
I-1
tp356
a(I1
I0
I-1
I-3
I-3
I0
I-3
I-2
tp357
a(I0
I-1
I-2
I-1
I1
I1
I0
I0
tp358
a(I0
I1
I-2
I2
I0
I-6
I-1
I0
tp359
a(I-1
I-2
I-1
I-1
I1
I3
I-1
I-1
tp360
a(I0
I-1
I0
I-1
I0
I-1
I-1
I-2
tp361
a(I0
I-1
I0
I-2
I-2
I0
I-1
I-2
tp362
a(I0
I0
I-1
I-3
I-2
I-2
I-1
I-1
tp363
a(I0
I1
I1
I2
I0
I-2
I-1
I-2
tp364
a(I-1
I-1
I-2
I-2
I-2
I-2
I-1
I0
tp365
a(I-2
I-1
I1
I2
I-2
I-2
I-1
I1
tp366
a(I0
I1
I-1
I-1
I0
I0
I-1
I1
tp367
a(I-2
I1
I1
I2
I-1
I1
I0
I0
tp368
a(I-3
I-1
I-2
I-1
I-1
I0
I-2
I-1
tp369
a(I1
I0
I-1
I-3
I-1
I-2
I-1
I-1
tp370
a(I-1
I-1
I-1
I-1
I0
I-1
I-1
I0
tp371
a(I0
I-2
I0
I-3
I0
I0
I-1
I-1
tp372
a(I-1
I-1
I-1
I2
I1
I-4
I0
I-1
tp373
a(I-4
I-2
I-2
I-1
I1
I-3
I0
I-1
tp374
a(I-3
I-1
I-1
I1
I-2
I-1
I-1
I0
tp375
a(I-1
I-4
I-1
I-2
I-1
I-1
I-2
I-1
tp376
a(I0
I-1
I1
I-2
I1
I1
I1
I1
tp377
a(I1
I1
I-3
I-1
I-1
I-1
I-1
I-1
tp378
a(I0
I-1
I-2
I0
I-1
I-4
I-2
I-1
tp379
a(I-2
I0
I-1
I-2
I1
I3
I1
I0
tp380
a(I-1
I0
I-2
I1
I-2
I-3
I-1
I0
tp381
a(I-1
I-1
I-2
I-2
I0
I-2
I0
I0
tp382
a(I-1
I-2
I-3
I-1
I1
I-1
I-1
I-2
tp383
a(I-2
I0
I-1
I-2
I0
I-1
I-1
I0
tp384
a(I-2
I-2
I0
I1
I0
I0
I0
I-1
tp385
a(I0
I1
I-1
I-2
I0
I-3
I-2
I-1
tp386
a(I-2
I-3
I-2
I0
I-2
I-2
I-1
I-1
tp387
a(I-1
I-1
I-1
I-1
I-2
I-3
I-1
I0
tp388
a(I0
I-1
I-4
I-2
I1
I-1
I-1
I0
tp389
a(I0
I-2
I-2
I-2
I-2
I0
I-1
I1
tp390
a(I-1
I0
I1
I1
I-2
I-1
I-2
I-1
tp391
a(I-1
I-2
I-1
I0
I1
I-2
I-1
I-2
tp392
a(I-1
I-1
I-3
I0
I1
I-3
I2
I-1
tp393
a(I-1
I-1
I2
I-1
I-1
I-2
I-2
I-1
tp394
a(I0
I1
I-2
I-1
I-2
I-2
I0
I-1
tp395
a(I0
I-2
I-1
I0
I0
I2
I-1
I0
tp396
a(I-1
I-1
I-2
I0
I-1
I-2
I-2
I-1
tp397
a(I1
I-2
I-2
I-4
I1
I-2
I-1
I1
tp398
a(I1
I1
I-1
I-2
I0
I-3
I-1
I-1
tp399
a(I-2
I-2
I-4
I1
I-1
I-1
I0
I-1
tp400
a(I-1
I-1
I-1
I-2
I2
I0
I-1
I-2
tp401
a(I0
I-1
I0
I-1
I-3
I-1
I-2
I0
tp402
a(I-2
I-2
I-2
I-2
I-1
I0
I-1
I0
tp403
a(I0
I-2
I0
I4
I-1
I-2
I-1
I-3
tp404
a(I-2
I-1
I0
I-2
I-1
I-3
I-2
I-2
tp405
a(I-1
I1
I-1
I0
I1
I-1
I2
I0
tp406
a(I-1
I1
I-1
I2
I0
I-3
I-1
I2
tp407
a(I-1
I2
I-1
I-6
I-3
I0
I-3
I1
tp408
a(I0
I-2
I1
I1
I-1
I0
I0
I0
tp409
a(I-2
I1
I0
I-1
I1
I-1
I-1
I-1
tp410
a(I-1
I-3
I-2
I-2
I-4
I-2
I-1
I-2
tp411
a(I-1
I-1
I-1
I-3
I0
I-1
I-1
I-1
tp412
a(I1
I-1
I-3
I1
I-1
I-1
I0
I0
tp413
a(I1
I-2
I-2
I0
I-1
I-1
I1
I0
tp414
a(I0
I1
I1
I-1
I-2
I1
I0
I0
tp415
a(I-2
I-3
I-1
I1
I-1
I-3
I-1
I-1
tp416
a(I-1
I0
I-1
I-2
I0
I1
I-1
I0
tp417
a(I0
I0
I-1
I0
I0
I1
I0
I-1
tp418
a(I-1
I-1
I-2
I0
I1
I-2
I1
I0
tp419
a(I0
I-1
I-3
I-2
I-2
I-1
I0
I-1
tp420
a(I1
I0
I-2
I1
I0
I-1
I-2
I-1
tp421
a(I-2
I-1
I-1
I-1
I0
I-2
I0
I-1
tp422
a(I-1
I-2
I-1
I2
I-1
I0
I-1
I-1
tp423
a(I1
I0
I0
I-3
I0
I-1
I1
I-1
tp424
a(I-1
I0
I-1
I0
I-1
I0
I-2
I-1
tp425
a(I0
I-1
I1
I1
I-2
I-2
I0
I-2
tp426
a(I0
I-2
I-1
I-1
I0
I-2
I-1
I-1
tp427
a(I-1
I-2
I-2
I1
I1
I1
I0
I-1
tp428
a(I-2
I-1
I-1
I-2
I0
I0
I-2
I-1
tp429
a(I0
I-1
I-2
I-1
I0
I-1
I-1
I1
tp430
a(I-1
I-2
I0
I0
I1
I-1
I-1
I0
tp431
a(I0
I-1
I-1
I3
I-1
I0
I-1
I0
tp432
a(I0
I-2
I-1
I-3
I-2
I2
I1
I0
tp433
a(I-1
I-2
I0
I2
I-1
I1
I1
I1
tp434
a(I-1
I0
I-1
I-2
I-2
I-4
I-1
I-1
tp435
a(I-1
I-2
I-1
I-1
I1
I-3
I-2
I-2
tp436
a(I1
I-1
I-3
I-2
I3
I2
I1
I-1
tp437
a(I-3
I2
I3
I-1
I-3
I-1
I-1
I-1
tp438
a(I-1
I-2
I-6
I-1
I0
I-3
I0
I-1
tp439
a(I-1
I-1
I-1
I0
I-2
I-2
I-1
I-1
tp440
a(I1
I-2
I1
I-4
I-2
I0
I-2
I0
tp441
a(I2
I-1
I-1
I0
I-2
I-1
I-1
I-1
tp442
a(I-1
I0
I-1
I0
I-1
I-3
I1
I-2
tp443
a(I1
I0
I-1
I0
I-1
I-1
I-2
I-1
tp444
a(I0
I-1
I-3
I-1
I1
I-2
I-2
I0
tp445
a(I-1
I-2
I-3
I-1
I-2
I-1
I-1
I-1
tp446
a(I-1
I-1
I1
I-2
I-2
I-3
I-1
I-1
tp447
a(I-2
I-2
I-1
I-1
I-1
I-3
I-2
I-2
tp448
a(I-2
I0
I-1
I0
I0
I0
I-3
I-1
tp449
a(I1
I-1
I-2
I-2
I0
I0
I-1
I2
tp450
a(I-1
I-1
I0
I2
I-1
I0
I-1
I-1
tp451
a(I0
I1
I-1
I-2
I-2
I-2
I-1
I-1
tp452
a(I0
I-1
I-3
I-1
I1
I0
I0
I-2
tp453
a(I-2
I1
I0
I-3
I-1
I-2
I1
I-2
tp454
a(I0
I0
I1
I2
I1
I2
I0
I-1
tp455
a(I1
I0
I-3
I1
I0
I-3
I-1
I-1
tp456
a(I1
I-1
I-3
I0
I-1
I0
I-2
I1
tp457
a(I0
I-2
I0
I-3
I1
I0
I-1
I-1
tp458
a(I1
I-1
I-1
I0
I-1
I-4
I0
I-1
tp459
a(I0
I-1
I-1
I-1
I-2
I0
I-1
I-2
tp460
a(I-1
I-2
I-2
I-2
I0
I-2
I-1
I-1
tp461
a(I0
I2
I-2
I0
I-1
I0
I-1
I-1
tp462
a(I-1
I-1
I0
I0
I0
I-4
I-3
I1
tp463
a(I1
I-1
I-1
I-3
I0
I-1
I-1
I0
tp464
a(I-1
I0
I0
I1
I-1
I-1
I1
I-2
tp465
a(I0
I-2
I-3
I-1
I-2
I-2
I-1
I0
tp466
a(I0
I1
I-2
I0
I0
I0
I-2
I1
tp467
a(I-2
I0
I0
I-1
I-1
I-1
I0
I-1
tp468
a(I0
I1
I-1
I-2
I-1
I0
I-1
I-1
tp469
a(I0
I-3
I-2
I1
I-2
I-1
I0
I0
tp470
a(I-2
I-1
I-5
I-2
I0
I-3
I0
I0
tp471
a(I-1
I1
I-1
I1
I-1
I-1
I-1
I-2
tp472
a(I0
I-3
I-2
I1
I3
I1
I-1
I1
tp473
a(I-2
I0
I0
I0
I-4
I-2
I-2
I-1
tp474
a(I-2
I-1
I-1
I-1
I0
I-1
I1
I-1
tp475
a(I1
I0
I-1
I-2
I-1
I-3
I-1
I0
tp476
a(I-3
I-3
I-4
I-2
I-2
I-2
I1
I-2
tp477
a(I1
I1
I1
I3
I1
I0
I0
I0
tp478
a(I0
I0
I2
I0
I1
I0
I-1
I-1
tp479
a(I-1
I-1
I-3
I-1
I1
I-2
I-2
I-1
tp480
a(I-1
I1
I-2
I-1
I-2
I-2
I0
I-2
tp481
a(I-1
I0
I-1
I-1
I-1
I-1
I-1
I0
tp482
a(I-1
I-1
I-1
I-1
I-2
I-2
I-2
I-1
tp483
a(I-3
I-2
I-3
I-5
I0
I-2
I-2
I-2
tp484
a(I-1
I0
I0
I1
I-1
I-1
I0
I1
tp485
a(I-1
I-2
I0
I-1
I-1
I-1
I-1
I-1
tp486
a(I1
I-1
I0
I2
I-1
I-1
I0
I1
tp487
a(I-1
I-2
I-1
I-1
I0
I0
I-2
I-1
tp488
a(I0
I-2
I1
I-5
I-3
I-1
I-2
I-1
tp489
a(I-1
I-2
I-1
I0
I1
I1
I1
I-2
tp490
a(I0
I0
I-2
I-1
I-1
I-2
I-1
I-2
tp491
a(I-2
I0
I-2
I0
I2
I1
I-1
I0
tp492
a(I-1
I-2
I0
I-1
I-1
I-1
I-1
I1
tp493
a(I-1
I-1
I0
I1
I0
I1
I0
I0
tp494
a(I-1
I-1
I-3
I-3
I0
I-1
I-1
I-2
tp495
a(I0
I1
I-2
I1
I-1
I-2
I-2
I-1
tp496
a(I-1
I0
I-1
I0
I1
I-1
I1
I0
tp497
a(I1
I-1
I-2
I-3
I-2
I-2
I0
I-1
tp498
a(I-1
I-1
I-1
I-3
I-1
I0
I0
I1
tp499
a(I0
I-1
I-4
I-1
I0
I0
I1
I-1
tp500
a(I-2
I0
I-1
I3
I0
I-4
I-2
I-1
tp501
a(I-1
I-1
I0
I-2
I2
I-2
I-3
I-1
tp502
a(I0
I-1
I-1
I1
I0
I-1
I0
I0
tp503
a(I1
I-3
I-2
I0
I-2
I-2
I-1
I-2
tp504
a(I-1
I1
I-1
I-1
I1
I0
I-1
I0
tp505
a(I-2
I-1
I-3
I0
I2
I-1
I-1
I1
tp506
a(I-1
I-1
I0
I1
I-1
I-1
I-2
I0
tp507
a(I1
I-1
I-1
I-1
I1
I-1
I0
I-3
tp508
a(I1
I0
I1
I-1
I0
I1
I0
I-1
tp509
a(I-1
I-1
I0
I-2
I-1
I-3
I-1
I0
tp510
a(I-3
I-2
I-1
I0
I1
I-2
I0
I-2
tp511
a(I0
I-2
I0
I1
I-2
I-2
I1
I-1
tp512
a(I0
I0
I-4
I-2
I-2
I-1
I-2
I-2
tp513
a(I-2
I-1
I-1
I-1
I0
I0
I-1
I-1
tp514
a(I-1
I-1
I-2
I-3
I-3
I-1
I0
I-1
tp515
a(I-2
I-1
I-3
I-1
I0
I0
I0
I-1
tp516
a(I1
I-1
I-1
I-1
I-1
I-1
I-1
I0
tp517
a(I-2
I0
I-4
I-2
I-1
I-3
I-1
I-1
tp518
a(I-1
I1
I3
I2
I-1
I-1
I0
I0
tp519
a(I-2
I-1
I0
I0
I2
I-2
I0
I-2
tp520
a(I-2
I0
I-3
I-1
I-3
I-3
I-1
I0
tp521
a(I-1
I0
I0
I-2
I-1
I1
I1
I-1
tp522
a(I0
I-2
I0
I-3
I1
I0
I-2
I-2
tp523
a(I-2
I1
I-1
I-1
I-1
I-1
I-1
I0
tp524
a(I-4
I-2
I-3
I1
I-1
I0
I-1
I-3
tp525
a(I-1
I2
I-1
I-2
I-2
I-1
I-2
I0
tp526
a(I0
I0
I-1
I-1
I-1
I-1
I0
I0
tp527
a(I1
I-1
I-2
I-1
I1
I0
I0
I0
tp528
a(I1
I0
I-1
I-2
I-1
I-3
I-2
I-2
tp529
a(I-3
I1
I-2
I1
I1
I-1
I-2
I-3
tp530
a(I1
I-1
I-3
I2
I-1
I-1
I0
I0
tp531
a(I0
I-2
I-4
I-4
I-2
I-1
I-2
I-1
tp532
a(I-1
I-1
I-1
I-2
I1
I0
I0
I-1
tp533
a(I0
I-2
I-2
I1
I-3
I-3
I-1
I-2
tp534
a(I-1
I0
I0
I0
I0
I0
I-1
I-2
tp535
a(I-2
I0
I-1
I-2
I-1
I-2
I-1
I-3
tp536
a(I-1
I-1
I-2
I1
I0
I-3
I-1
I0
tp537
a(I0
I0
I-3
I-3
I0
I-1
I0
I0
tp538
a(I1
I-1
I-1
I0
I0
I-2
I1
I-2
tp539
a(I1
I-1
I0
I-2
I-2
I-1
I-2
I-2
tp540
a(I-1
I0
I0
I-2
I-2
I0
I-1
I-2
tp541
a(I-2
I-1
I-2
I0
I-1
I1
I0
I-1
tp542
a(I-1
I0
I0
I0
I-1
I-1
I-2
I-1
tp543
a(I-2
I-1
I0
I1
I-1
I-3
I-1
I0
tp544
a(I-1
I1
I-1
I0
I0
I-2
I-1
I-1
tp545
a(I-1
I-2
I0
I-3
I0
I-1
I-1
I-2
tp546
a(I-1
I1
I-2
I-1
I-2
I-1
I0
I0
tp547
a(I-2
I-1
I-1
I-1
I0
I-2
I-1
I0
tp548
a(I-1
I-1
I-1
I0
I0
I-1
I0
I-3
tp549
a(I-1
I-3
I-2
I-1
I-1
I-2
I-2
I1
tp550
a(I-2
I-2
I-4
I-1
I-2
I-2
I-1
I-1
tp551
a(I1
I-1
I1
I-1
I0
I1
I0
I1
tp552
a(I-2
I-2
I-1
I-4
I-5
I-3
I-2
I0
tp553
a(I1
I-1
I-1
I0
I0
I-3
I-1
I0
tp554
a(I-1
I-1
I-2
I0
I0
I0
I-1
I0
tp555
a(I-1
I2
I0
I0
I0
I1
I-1
I-1
tp556
a(I-1
I-3
I0
I-1
I-1
I-2
I0
I0
tp557
a(I0
I-1
I0
I-1
I-1
I-2
I1
I-2
tp558
a(I-1
I0
I-2
I-1
I1
I-1
I-1
I-1
tp559
a(I0
I-2
I-2
I0
I-2
I-1
I-2
I-1
tp560
a(I0
I1
I-1
I-1
I-2
I-1
I0
I1
tp561
a(I0
I0
I0
I0
I0
I-3
I-1
I-2
tp562
a(I-3
I1
I-1
I-1
I2
I0
I0
I-1
tp563
a(I0
I-1
I0
I-1
I-2
I-1
I-1
I-2
tp564
a(I-2
I-1
I0
I1
I-1
I1
I-1
I-1
tp565
a(I-1
I1
I2
I-3
I1
I1
I1
I-1
tp566
a(I0
I-1
I-1
I0
I1
I2
I0
I-2
tp567
a(I-4
I-1
I-3
I-5
I-3
I-3
I-2
I-1
tp568
a(I-2
I-1
I0
I1
I0
I-2
I0
I0
tp569
a(I1
I-1
I-2
I-1
I0
I-2
I0
I1
tp570
a(I-2
I-1
I-3
I-3
I-2
I-1
I1
I-2
tp571
a(I0
I-1
I-3
I2
I2
I2
I-1
I-2
tp572
a(I-2
I0
I0
I-1
I-3
I0
I0
I-1
tp573
a(I1
I0
I1
I-2
I0
I-3
I-1
I0
tp574
a(I0
I-1
I0
I1
I-1
I-2
I-1
I-1
tp575
a(I-2
I-2
I-2
I0
I-1
I-1
I-1
I0
tp576
a(I0
I0
I-2
I-1
I-1
I-2
I-1
I-1
tp577
a(I0
I0
I0
I-1
I1
I1
I-1
I0
tp578
a(I0
I-3
I-1
I-3
I-1
I-2
I0
I-1
tp579
a(I-1
I-1
I-1
I1
I-2
I-2
I0
I-1
tp580
a(I-2
I-1
I0
I-2
I-1
I1
I-2
I-1
tp581
a(I2
I-1
I-2
I2
I0
I-2
I-1
I0
tp582
a(I1
I1
I-2
I1
I0
I2
I1
I0
tp583
a(I1
I0
I-2
I-4
I-1
I-2
I0
I-2
tp584
a(I0
I-2
I-1
I-1
I0
I-1
I-1
I0
tp585
a(I-1
I-2
I-1
I-1
I-2
I-4
I0
I-1
tp586
a(I0
I-2
I-2
I0
I1
I-3
I-1
I0
tp587
a(I-1
I-1
I1
I1
I-2
I0
I0
I-1
tp588
a(I0
I2
I2
I-1
I-1
I-1
I-2
I-1
tp589
a(I0
I1
I0
I-3
I-1
I0
I0
I0
tp590
a(I-1
I-2
I0
I-1
I-1
I-1
I0
I-2
tp591
a(I0
I1
I-2
I1
I-1
I-1
I0
I-1
tp592
a(I-2
I-3
I-1
I0
I0
I-5
I-3
I0
tp593
a(I-1
I-2
I-1
I-3
I2
I1
I0
I0
tp594
a(I1
I-2
I-1
I1
I-2
I-1
I-3
I-1
tp595
a(I0
I0
I-2
I-2
I-1
I-2
I0
I-2
tp596
a(I1
I-1
I-3
I-1
I0
I0
I1
I-1
tp597
a(I0
I-3
I-3
I-1
I-3
I-2
I-2
I0
tp598
a(I-3
I0
I1
I-4
I0
I-1
I-1
I-1
tp599
a(I-2
I-1
I-1
I1
I-1
I0
I0
I1
tp600
a(I-1
I-1
I-3
I-2
I0
I-2
I-2
I-1
tp601
a(I-1
I-2
I-2
I0
I0
I-1
I-1
I0
tp602
a(I-3
I0
I0
I1
I-2
I1
I-3
I-3
tp603
a(I-1
I-2
I-1
I0
I-2
I0
I-2
I-2
tp604
a(I-1
I0
I-1
I-1
I1
I-2
I-1
I-1
tp605
a(I-1
I-1
I-2
I2
I0
I-1
I-1
I-1
tp606
a(I-1
I-1
I-4
I-2
I-1
I1
I1
I-1
tp607
a(I-1
I1
I-1
I1
I-2
I-1
I0
I-1
tp608
a(I1
I-1
I-3
I0
I-2
I-3
I-1
I0
tp609
a(I-3
I-1
I0
I1
I-2
I-2
I0
I0
tp610
a(I1
I-1
I0
I-5
I0
I-3
I-1
I0
tp611
a(I-1
I3
I-2
I-2
I-1
I0
I1
I-1
tp612
a(I0
I-2
I0
I1
I-1
I0
I1
I-1
tp613
a(I-1
I-1
I-1
I-2
I0
I1
I-1
I1
tp614
a(I-1
I-1
I-3
I-1
I-1
I-1
I-1
I-2
tp615
a(I0
I0
I0
I-2
I0
I-1
I0
I-3
tp616
a(I-2
I-1
I-2
I-1
I-1
I-1
I0
I1
tp617
a(I1
I-3
I0
I0
I-1
I0
I-1
I-1
tp618
a(I-2
I-1
I-1
I0
I1
I-1
I0
I0
tp619
a(I0
I0
I1
I-1
I0
I-3
I-1
I-2
tp620
a(I-1
I0
I-1
I0
I-1
I0
I0
I-1
tp621
a(I-1
I-1
I-1
I-3
I-2
I-1
I-1
I-2
tp622
a(I1
I-1
I0
I2
I-1
I2
I-1
I0
tp623
a(I-1
I-2
I-5
I0
I0
I-2
I1
I-1
tp624
a(I0
I0
I-1
I1
I0
I-1
I-1
I-1
tp625
a(I-2
I-1
I-1
I-3
I1
I-1
I0
I2
tp626
a(I1
I0
I3
I-1
I-1
I-4
I-2
I-2
tp627
a(I-1
I-2
I-3
I-2
I-1
I-1
I0
I-1
tp628
a(I-1
I0
I2
I-1
I0
I0
I-1
I1
tp629
a(I0
I-2
I-3
I-1
I-2
I-2
I-2
I-3
tp630
a(I-1
I-1
I-2
I1
I-1
I-1
I-2
I-1
tp631
a(I-2
I1
I0
I0
I0
I0
I0
I0
tp632
a(I0
I-2
I-1
I-2
I-1
I-2
I0
I-1
tp633
a(I0
I-1
I-2
I0
I1
I1
I0
I-1
tp634
a(I0
I-3
I0
I1
I-1
I-2
I1
I-1
tp635
a(I1
I-3
I-2
I-1
I-2
I-1
I-1
I-1
tp636
a(I0
I0
I-1
I-2
I0
I-2
I0
I-1
tp637
a(I0
I-3
I-1
I-2
I-1
I1
I-2
I0
tp638
a(I-1
I-3
I0
I-2
I-1
I-1
I-1
I-1
tp639
a(I0
I0
I-1
I-1
I-1
I-1
I-1
I-1
tp640
a(I-1
I-1
I1
I0
I0
I-1
I0
I-1
tp641
a(I0
I0
I-1
I-2
I1
I-1
I0
I-1
tp642
a(I-2
I-2
I-2
I-1
I0
I-2
I-2
I-3
tp643
a(I-2
I-2
I-1
I3
I-2
I0
I-1
I-2
tp644
a(I-2
I-1
I-2
I-3
I-2
I-1
I-1
I-1
tp645
a(I0
I-1
I-4
I-1
I-1
I0
I1
I0
tp646
a(I0
I0
I-2
I-3
I-1
I1
I-1
I0
tp647
a(I0
I1
I-1
I-1
I0
I-4
I0
I1
tp648
a(I0
I0
I0
I1
I-1
I-2
I0
I-2
tp649
a(I-1
I-2
I-2
I-2
I1
I1
I-1
I-1
tp650
a(I-1
I0
I-2
I0
I0
I-2
I-1
I-1
tp651
a(I1
I0
I0
I-1
I-1
I-1
I0
I-1
tp652
a(I1
I0
I-1
I2
I-1
I-1
I0
I-2
tp653
a(I-1
I-1
I-2
I0
I-1
I-3
I-2
I-2
tp654
a(I-3
I-2
I1
I0
I-3
I-2
I-1
I-1
tp655
a(I-1
I1
I1
I0
I2
I3
I0
I-2
tp656
a(I-3
I0
I-3
I-1
I-2
I-2
I0
I-1
tp657
a(I0
I0
I-2
I-2
I0
I0
I0
I-1
tp658
a(I0
I-2
I-1
I0
I0
I0
I-2
I0
tp659
a(I-2
I-2
I0
I-2
I0
I0
I0
I-1
tp660
a(I-1
I-2
I0
I0
I0
I0
I0
I-1
tp661
a(I-1
I0
I0
I-2
I-3
I-2
I-1
I0
tp662
a(I0
I-1
I-4
I-1
I0
I1
I0
I1
tp663
a(I-2
I2
I0
I3
I-3
I-2
I-1
I-2
tp664
a(I1
I-1
I-2
I1
I1
I-1
I-1
I0
tp665
a(I-1
I-2
I-1
I0
I0
I-1
I-1
I-2
tp666
a(I-1
I-1
I-1
I-2
I-1
I-1
I0
I-2
tp667
a(I-1
I-1
I-1
I-1
I1
I0
I0
I1
tp668
a(I0
I-2
I-1
I-1
I0
I-2
I-1
I-1
tp669
a(I-1
I0
I-1
I-2
I1
I-2
I-1
I-1
tp670
a(I-2
I-2
I1
I1
I-1
I-2
I-1
I1
tp671
a(I-2
I-2
I-3
I-1
I-2
I-1
I-1
I-1
tp672
a(I-1
I0
I-3
I0
I0
I-1
I1
I1
tp673
a(I0
I0
I-1
I0
I2
I0
I-1
I0
tp674
a(I-1
I-2
I-2
I-1
I-2
I-1
I-1
I-1
tp675
a(I-1
I-2
I-2
I0
I0
I1
I-1
I-2
tp676
a(I1
I0
I-1
I-2
I-1
I0
I-2
I0
tp677
a(I-2
I-1
I-1
I0
I0
I-2
I-3
I-1
tp678
a(I0
I2
I-3
I-1
I-2
I-1
I-1
I0
tp679
a(I-1
I-1
I1
I1
I-2
I-1
I-1
I-1
tp680
a(I1
I-2
I-2
I-3
I0
I0
I0
I-2
tp681
a(I-1
I-1
I-1
I-1
I-1
I0
I-2
I1
tp682
a(I-4
I0
I0
I-1
I0
I0
I0
I-3
tp683
a(I-2
I0
I-3
I-1
I-2
I-3
I0
I0
tp684
a(I-2
I0
I-1
I0
I0
I-1
I-1
I0
tp685
a(I-3
I-2
I-2
I0
I1
I-2
I-1
I0
tp686
a(I-1
I0
I0
I1
I1
I0
I-1
I-1
tp687
a(I-16
I17
I-77
I7
I59
I109
I15
I16
tp688
a(I20
I27
I59
I12
I19
I116
I31
I8
tp689
a(I5
I4
I17
I-42
I-14
I88
I-63
I-9
tp690
a(I-17
I0
I45
I-2
I-45
I16
I1
I29
tp691
a(I38
I-7
I10
I-15
I-16
I-35
I-18
I-9
tp692
a(I-14
I-10
I-22
I-20
I-15
I39
I46
I0
tp693
a(I-39
I-5
I22
I-4
I-21
I-28
I23
I-6
tp694
a(I-66
I-19
I-17
I-6
I2
I-70
I-3
I-86
tp695
a(I111
I11
I15
I62
I18
I7
I-10
I85
tp696
a(I-81
I-8
I-17
I24
I-10
I-3
I46
I-87
tp697
a(I89
I5
I15
I11
I-8
I61
I51
I73
tp698
a(I-25
I-2
I-22
I17
I28
I-44
I-24
I-15
tp699
a(I-9
I-2
I1
I6
I-33
I-47
I15
I-16
tp700
a(I25
I-8
I0
I6
I3
I-67
I-67
I45
tp701
a(I69
I9
I0
I-45
I-20
I43
I-9
I10
tp702
a(I-56
I-5
I-14
I-14
I11
I-31
I7
I-45
tp703
a(I17
I-3
I-1
I-42
I1
I-33
I-34
I-7
tp704
a(I15
I-11
I-17
I-16
I-13
I-46
I-10
I20
tp705
a(I-9
I0
I-5
I-26
I-1
I-36
I-38
I-32
tp706
a(I27
I11
I5
I35
I25
I50
I-5
I55
tp707
a(I-105
I-6
I5
I-42
I-29
I-28
I46
I-43
tp708
a(I-30
I1
I-1
I29
I0
I-3
I-84
I-39
tp709
a(I-28
I-12
I-13
I11
I-4
I-49
I-3
I-13
tp710
a(I40
I5
I3
I-29
I-28
I41
I5
I9
tp711
a(I-39
I-8
I-10
I-2
I21
I4
I9
I-65
tp712
a(I12
I5
I0
I49
I-16
I-43
I-30
I21
tp713
a(I55
I-5
I6
I10
I11
I18
I-3
I7
tp714
a(I95
I7
I7
I-23
I6
I25
I66
I14
tp715
a(I-59
I-6
I6
I27
I1
I-10
I-23
I-27
tp716
a(I51
I-15
I-26
I-53
I-27
I13
I60
I39
tp717
a(I-22
I-2
I-14
I-9
I11
I-44
I-64
I-12
tp718
a(I95
I10
I15
I-15
I-1
I20
I9
I20
tp719
a(I61
I0
I-4
I17
I6
I10
I41
I32
tp720
a(I-83
I1
I1
I6
I28
I-20
I-30
I-54
tp721
a(I-45
I-11
I-2
I32
I-19
I-9
I34
I2
tp722
a(I33
I-1
I-3
I14
I46
I63
I19
I-19
tp723
a(I-43
I-16
I-19
I-42
I5
I-40
I-1
I-94
tp724
a(I12
I1
I7
I43
I-12
I-9
I13
I20
tp725
a(I-42
I-3
I0
I4
I3
I-6
I54
I26
tp726
a(I7
I-2
I-12
I-26
I-8
I-10
I-21
I-36
tp727
a(I-25
I9
I16
I19
I24
I-42
I-38
I11
tp728
a(I52
I4
I-5
I-40
I6
I1
I30
I39
tp729
a(I-77
I-20
I-12
I26
I3
I22
I-77
I-75
tp730
a(I90
I5
I-2
I-19
I-4
I-20
I33
I35
tp731
a(I-61
I-12
I-11
I16
I-44
I-96
I0
I22
tp732
a(I9
I-3
I-14
I-16
I29
I0
I-106
I5
tp733
a(I-19
I9
I16
I-9
I-3
I18
I70
I1
tp734
a(I28
I5
I1
I-2
I22
I-8
I-13
I-10
tp735
a(I-37
I6
I11
I50
I-19
I43
I23
I-15
tp736
a(I45
I-2
I-16
I6
I2
I-20
I-5
I6
tp737
a(I59
I13
I30
I-23
I14
I17
I-60
I-27
tp738
a(I-74
I-17
I-6
I-12
I-1
I2
I62
I27
tp739
a(I22
I-6
I-2
I-23
I-4
I32
I-9
I18
tp740
a(I16
I2
I1
I1
I-23
I13
I10
I16
tp741
a(I36
I8
I4
I-1
I20
I42
I39
I6
tp742
a(I-16
I-3
I-7
I-5
I-9
I-36
I-35
I-46
tp743
a(I7
I0
I-6
I35
I49
I-8
I19
I-31
tp744
a(I-74
I-3
I-3
I-14
I-10
I-4
I-8
I-38
tp745
a(I51
I2
I-3
I-8
I-13
I-43
I-60
I40
tp746
a(I77
I10
I-3
I-26
I-19
I19
I-6
I35
tp747
a(I-90
I-16
I-2
I15
I-6
I-69
I-30
I-66
tp748
a(I63
I1
I-11
I-31
I-3
I56
I-4
I46
tp749
a(I45
I1
I8
I-12
I6
I6
I13
I-60
tp750
a(I-26
I2
I-4
I0
I-12
I-97
I-41
I-19
tp751
a(I100
I2
I-9
I-7
I2
I34
I15
I71
tp752
a(I-112
I-16
I-1
I-32
I-7
I-59
I-20
I-82
tp753
a(I39
I20
I32
I33
I17
I12
I-47
I58
tp754
a(I-62
I-4
I10
I3
I-5
I-17
I-41
I-41
tp755
a(I-20
I-1
I-3
I14
I14
I-19
I0
I17
tp756
a(I6
I5
I8
I71
I8
I66
I-21
I-63
tp757
a(I42
I10
I-2
I-14
I-4
I-8
I36
I78
tp758
a(I0
I-18
I-13
I-54
I-4
I-48
I-2
I-26
tp759
a(I39
I-5
I-6
I-20
I-12
I53
I61
I50
tp760
a(I-71
I-9
I-2
I66
I3
I18
I21
I-44
tp761
a(I50
I9
I-13
I-67
I6
I-47
I-9
I-8
tp762
a(I52
I-4
I-8
I30
I-12
I19
I-8
I74
tp763
a(I-71
I-12
I-12
I-89
I-16
I-11
I-30
I-82
tp764
a(I-16
I-1
I14
I90
I25
I12
I41
I54
tp765
a(I24
I-4
I0
I9
I-36
I-28
I-10
I-14
tp766
a(I-4
I12
I10
I-23
I60
I-8
I10
I-12
tp767
a(I-3
I-10
I-12
I-7
I0
I78
I-10
I-10
tp768
a(I27
I-3
I-24
I-38
I-41
I12
I41
I-28
tp769
a(I-87
I-12
I11
I30
I-23
I-14
I-38
I-54
tp770
a(I40
I3
I-4
I-33
I6
I-26
I46
I8
tp771
a(I-12
I-12
I-27
I-38
I-16
I11
I-45
I3
tp772
a(I-26
I7
I4
I24
I-23
I-46
I38
I2
tp773
a(I-7
I6
I26
I44
I-2
I42
I15
I4
tp774
a(I28
I5
I2
I-54
I-28
I-7
I-15
I-17
tp775
a(I107
I13
I3
I15
I5
I24
I40
I104
tp776
a(I-111
I-19
I-13
I3
I-9
I-14
I-38
I-65
tp777
a(I31
I-2
I-8
I-48
I-3
I-33
I-7
I16
tp778
a(I94
I24
I10
I-32
I-20
I-26
I29
I78
tp779
a(I-108
I-12
I11
I38
I23
I17
I-76
I-101
tp780
a(I68
I-2
I-21
I1
I20
I-29
I93
I52
tp781
a(I29
I2
I-17
I-18
I-73
I-72
I-74
I-46
tp782
a(I-99
I-25
I-9
I-9
I14
I-16
I-20
I-51
tp783
a(I12
I-16
I-31
I-26
I28
I-34
I23
I5
tp784
a(I-78
I4
I4
I8
I-22
I-53
I-5
I-5
tp785
a(I66
I-5
I-5
I41
I24
I37
I30
I41
tp786
a(I-71
I-6
I2
I-27
I-23
I-56
I-8
I8
tp787
a(I35
I10
I8
I-7
I-14
I37
I31
I17
tp788
a(I73
I2
I-17
I-20
I12
I34
I5
I75
tp789
a(I-84
I4
I4
I-26
I-15
I4
I-5
I-94
tp790
a(I46
I-2
I3
I32
I4
I11
I-9
I-54
tp791
a(I37
I5
I8
I46
I25
I-1
I-1
I37
tp792
a(I-8
I1
I22
I-22
I-26
I-28
I18
I21
tp793
a(I10
I-12
I-34
I-13
I-4
I-28
I47
I52
tp794
a(I25
I6
I10
I23
I17
I76
I8
I0
tp795
a(I-28
I-2
I-14
I-50
I13
I37
I49
I-5
tp796
a(I93
I11
I-8
I0
I18
I127
I90
I91
tp797
a(I-10
I15
I38
I-10
I-1
I-5
I8
I14
tp798
a(I-93
I-12
I-12
I15
I-1
I16
I-39
I-46
tp799
a(I-77
I0
I4
I-18
I24
I-8
I-18
I-25
tp800
a(I34
I7
I-5
I-4
I-57
I26
I-7
I72
tp801
a(I17
I2
I4
I9
I49
I27
I40
I-51
tp802
a(I44
I6
I3
I1
I-25
I60
I-6
I-5
tp803
a(I-14
I-3
I3
I38
I-1
I-101
I-28
I-13
tp804
a(I84
I5
I5
I-36
I9
I-22
I-29
I11
tp805
a(I-93
I-7
I-2
I32
I9
I3
I-19
I-40
tp806
a(I3
I-9
I-8
I-10
I24
I78
I-4
I4
tp807
a(I81
I0
I2
I-5
I13
I-5
I-72
I31
tp808
a(I39
I4
I-4
I-34
I1
I-13
I46
I15
tp809
a(I45
I-3
I-5
I37
I2
I37
I0
I-12
tp810
a(I39
I14
I8
I26
I41
I-26
I15
I41
tp811
a(I-15
I-6
I-3
I-6
I-16
I29
I22
I21
tp812
a(I-35
I-12
I-16
I-19
I-24
I-36
I-39
I-36
tp813
a(I46
I11
I1
I2
I-1
I-24
I-42
I-11
tp814
a(I-91
I-13
I6
I11
I-36
I-69
I-8
I-1
tp815
a(I59
I11
I-8
I-45
I20
I-11
I-19
I81
tp816
a(I-53
I0
I-6
I11
I-20
I-16
I11
I-70
tp817
a(I-32
I-5
I-4
I-19
I11
I39
I87
I-11
tp818
a(I-13
I-7
I-16
I1
I-15
I8
I-10
I27
tp819
a(I-55
I-2
I5
I-31
I-7
I24
I29
I-49
tp820
a(I23
I-4
I-1
I-27
I-2
I-18
I-21
I3
tp821
a(I26
I6
I17
I22
I-13
I-13
I23
I8
tp822
a(I18
I-2
I-21
I-38
I13
I56
I55
I-6
tp823
a(I-102
I-6
I-5
I35
I-20
I-25
I11
I-42
tp824
a(I17
I7
I10
I-34
I-12
I-28
I-28
I43
tp825
a(I-73
I-16
I-18
I7
I13
I-7
I34
I45
tp826
a(I-47
I-22
I-13
I15
I4
I-24
I-27
I-61
tp827
a(I35
I3
I6
I31
I0
I-19
I-35
I33
tp828
a(I9
I6
I16
I-23
I-17
I-30
I6
I16
tp829
a(I67
I-2
I-4
I28
I1
I31
I-5
I-53
tp830
a(I52
I11
I1
I-1
I26
I49
I-10
I21
tp831
a(I52
I-9
I-12
I-4
I-5
I-18
I20
I10
tp832
a(I-13
I-3
I9
I40
I23
I3
I-12
I35
tp833
a(I71
I17
I10
I-36
I-13
I-24
I-34
I-3
tp834
a(I-63
I-19
I-31
I-29
I20
I53
I46
I-72
tp835
a(I4
I2
I7
I6
I-10
I-24
I-60
I1
tp836
a(I80
I10
I-1
I-53
I12
I1
I-5
I41
tp837
a(I-45
I-1
I8
I59
I19
I11
I-30
I16
tp838
a(I122
I2
I-4
I8
I-5
I6
I30
I7
tp839
a(I-86
I1
I-5
I13
I2
I-26
I3
I-7
tp840
a(I-8
I6
I16
I10
I-7
I54
I2
I22
tp841
a(I4
I2
I-12
I-33
I32
I-15
I-71
I-45
tp842
a(I43
I-7
I-5
I4
I-20
I56
I55
I78
tp843
a(I86
I17
I20
I27
I-2
I7
I-28
I48
tp844
a(I-93
I0
I-13
I-8
I-15
I-10
I26
I-66
tp845
a(I55
I-14
I-1
I-27
I29
I26
I-14
I75
tp846
a(I-16
I6
I3
I-3
I-21
I11
I-12
I-4
tp847
a(I-31
I-12
I-12
I4
I6
I-7
I52
I15
tp848
a(I-6
I1
I6
I16
I4
I-39
I-6
I-53
tp849
a(I48
I0
I-10
I16
I-33
I12
I-2
I39
tp850
a(I11
I6
I13
I16
I48
I28
I-17
I-40
tp851
a(I7
I-10
I-24
I-18
I13
I-66
I-55
I3
tp852
a(I106
I15
I11
I-22
I-19
I8
I-34
I95
tp853
a(I-117
I-12
I-2
I42
I-1
I-22
I2
I-88
tp854
a(I97
I15
I31
I-5
I-5
I-13
I2
I44
tp855
a(I65
I11
I17
I5
I-31
I-23
I-62
I9
tp856
a(I29
I13
I-1
I-4
I7
I44
I16
I46
tp857
a(I-55
I-13
I-9
I38
I-10
I-14
I-1
I-31
tp858
a(I-6
I-5
I-9
I4
I11
I16
I-10
I-41
tp859
a(I-35
I3
I6
I14
I7
I24
I-4
I3
tp860
a(I6
I-2
I2
I25
I-69
I-69
I-72
I-6
tp861
a(I39
I-1
I-9
I-24
I18
I-2
I57
I42
tp862
a(I22
I6
I10
I12
I7
I34
I-21
I4
tp863
a(I-36
I-1
I-5
I-4
I-8
I25
I10
I5
tp864
a(I37
I-6
I1
I20
I16
I29
I-2
I76
tp865
a(I-65
I18
I28
I-51
I-8
I-3
I-34
I-74
tp866
a(I62
I1
I-20
I42
I4
I-5
I-19
I4
tp867
a(I52
I-8
I-8
I15
I1
I77
I-46
I29
tp868
a(I-15
I1
I5
I-31
I8
I-6
I40
I2
tp869
a(I123
I22
I13
I-6
I-14
I6
I20
I113
tp870
a(I-127
I-23
I-23
I10
I4
I-85
I-27
I-128
tp871
a(I93
I8
I8
I11
I-11
I18
I55
I56
tp872
a(I-30
I-11
I-10
I-7
I11
I32
I34
I15
tp873
a(I58
I-2
I-7
I4
I-16
I-69
I-55
I25
tp874
a(I61
I6
I-2
I-42
I4
I21
I66
I38
tp875
a(I-44
I3
I4
I-36
I6
I-29
I-29
I1
tp876
a(I86
I16
I23
I53
I-6
I-11
I-15
I28
tp877
a(I-103
I-19
I-11
I20
I1
I17
I11
I-88
tp878
a(I-17
I-9
I-5
I-15
I-8
I31
I-5
I-11
tp879
a(I-70
I-3
I5
I-44
I11
I1
I63
I-34
tp880
a(I11
I7
I-5
I-32
I7
I-61
I-105
I-53
tp881
a(I-5
I-3
I6
I40
I13
I-18
I15
I60
tp882
a(I68
I3
I-10
I-31
I-8
I39
I43
I-26
tp883
a(I-12
I2
I17
I26
I12
I31
I-62
I-5
tp884
a(I-1
I-18
I-11
I12
I-30
I-4
I67
I4
tp885
a(I2
I9
I14
I45
I-12
I-8
I-25
I-22
tp886
a(I-16
I3
I10
I31
I24
I25
I11
I31
tp887
a(I-95
I-8
I-20
I-10
I-3
I-82
I-24
I-18
tp888
a(I67
I13
I14
I32
I19
I49
I-25
I30
tp889
a(I8
I1
I-4
I-7
I-14
I-3
I13
I-17
tp890
a(I-102
I-20
I-27
I7
I-15
I-34
I-29
I-36
tp891
a(I87
I12
I6
I33
I-22
I75
I35
I34
tp892
a(I-103
I0
I-1
I15
I39
I-25
I-41
I0
tp893
a(I84
I-1
I-12
I-10
I7
I40
I45
I27
tp894
a(I2
I-1
I-10
I-73
I-26
I-58
I-48
I-38
tp895
a(I-123
I-20
I-6
I48
I20
I-13
I-4
I-47
tp896
a(I96
I5
I10
I-62
I7
I57
I39
I76
tp897
a(I-11
I2
I8
I33
I-11
I2
I47
I-6
tp898
a(I-42
I-1
I-22
I4
I-35
I-26
I-54
I-12
tp899
a(I2
I-5
I-5
I-7
I19
I-44
I-26
I-18
tp900
a(I68
I-2
I-14
I-33
I-44
I-63
I-4
I-8
tp901
a(I85
I11
I13
I-2
I17
I56
I-9
I-5
tp902
a(I-15
I-4
I2
I46
I21
I7
I15
I14
tp903
a(I65
I11
I12
I3
I4
I85
I-20
I54
tp904
a(I-62
I-7
I0
I36
I-30
I-2
I56
I-23
tp905
a(I-61
I-12
I-8
I-4
I-5
I-87
I34
I-25
tp906
a(I34
I-3
I-5
I-14
I3
I36
I18
I-9
tp907
a(I21
I-5
I2
I7
I-34
I13
I-14
I25
tp908
a(I17
I3
I23
I36
I16
I-19
I-30
I27
tp909
a(I54
I5
I-21
I-52
I2
I41
I11
I-1
tp910
a(I20
I-8
I-10
I5
I-10
I-36
I29
I-9
tp911
a(I-14
I11
I21
I7
I7
I-9
I2
I-15
tp912
a(I-18
I-3
I-6
I2
I11
I-2
I38
I-11
tp913
a(I-29
I-6
I-6
I-43
I-38
I-44
I-66
I-22
tp914
a(I37
I13
I19
I48
I-20
I-6
I31
I21
tp915
a(I12
I4
I25
I80
I-8
I-66
I-91
I-5
tp916
a(I-14
I6
I3
I5
I2
I14
I-27
I-32
tp917
a(I6
I-7
I-16
I-14
I-2
I-24
I28
I27
tp918
a(I-33
I-3
I-4
I-3
I-4
I-23
I-28
I-17
tp919
a(I-30
I-18
I-29
I20
I15
I-33
I-78
I-6
tp920
a(I6
I2
I0
I-42
I-12
I2
I29
I49
tp921
a(I21
I10
I20
I-6
I1
I-31
I-18
I-41
tp922
a(I-80
I3
I2
I34
I10
I1
I24
I-43
tp923
a(I9
I-4
I-10
I-3
I-9
I-38
I31
I21
tp924
a(I-48
I14
I22
I-23
I6
I27
I-32
I19
tp925
a(I53
I-7
I-4
I-33
I18
I3
I34
I3
tp926
a(I-30
I-5
I-8
I19
I12
I-27
I-104
I13
tp927
a(I-7
I-1
I-20
I32
I-22
I-35
I23
I-73
tp928
a(I-15
I4
I29
I0
I-34
I-19
I-37
I11
tp929
a(I107
I6
I-7
I-9
I28
I57
I55
I67
tp930
a(I-70
I-7
I1
I101
I-5
I-10
I-11
I-70
tp931
a(I-2
I-2
I-19
I-100
I6
I22
I-6
I21
tp932
a(I31
I-9
I-14
I40
I17
I36
I8
I-27
tp933
a(I-61
I5
I11
I-55
I-33
I-26
I-4
I-29
tp934
a(I-15
I-2
I2
I4
I17
I-20
I27
I-30
tp935
a(I-13
I3
I26
I45
I-14
I17
I15
I29
tp936
a(I24
I1
I-9
I-6
I13
I7
I42
I-3
tp937
a(I96
I2
I-3
I-12
I-24
I39
I32
I55
tp938
a(I-52
I-12
I-22
I-19
I18
I-22
I-57
I-53
tp939
a(I-24
I-2
I-1
I12
I3
I40
I60
I-24
tp940
a(I47
I-2
I-5
I-27
I-24
I-29
I0
I18
tp941
a(I-91
I-3
I13
I-2
I-1
I30
I1
I-52
tp942
a(I47
I2
I3
I9
I20
I-29
I6
I69
tp943
a(I67
I-9
I-28
I-7
I-14
I-7
I2
I12
tp944
a(I-124
I3
I7
I51
I29
I40
I24
I-66
tp945
a(I127
I1
I-15
I-9
I-44
I-93
I-95
I76
tp946
a(I-37
I-2
I22
I2
I18
I6
I52
I-9
tp947
a(I-61
I2
I-3
I-7
I4
I29
I-1
I-42
tp948
a(I43
I-2
I12
I11
I33
I2
I31
I27
tp949
a(I62
I10
I5
I33
I-25
I-50
I-53
I52
tp950
a(I53
I0
I-7
I-18
I4
I8
I-37
I-23
tp951
a(I-90
I-8
I13
I16
I5
I-22
I-57
I-65
tp952
a(I58
I10
I1
I-38
I-24
I49
I51
I44
tp953
a(I-103
I-11
I-7
I13
I62
I20
I-75
I-54
tp954
a(I60
I14
I16
I8
I-28
I-12
I15
I88
tp955
a(I-48
I-8
I-19
I-40
I-3
I-7
I41
I-84
tp956
a(I22
I3
I25
I72
I13
I-23
I-6
I44
tp957
a(I71
I2
I-32
I-81
I-2
I63
I-17
I-4
tp958
a(I-109
I-16
I3
I9
I8
I17
I-19
I-64
tp959
a(I58
I1
I-2
I-35
I-25
I-83
I-21
I2
tp960
a(I-65
I-11
I-14
I-3
I18
I30
I26
I-48
tp961
a(I75
I12
I-1
I5
I-9
I30
I-9
I39
tp962
a(I99
I6
I7
I-12
I-44
I-26
I-51
I80
tp963
a(I18
I2
I7
I19
I25
I-26
I9
I-8
tp964
a(I24
I-4
I-8
I-8
I-7
I8
I-23
I-44
tp965
a(I111
I17
I8
I11
I16
I62
I41
I77
tp966
a(I-64
I-11
I0
I3
I1
I-47
I-8
I-66
tp967
a(I-15
I-6
I-10
I18
I-9
I-15
I-21
I-14
tp968
a(I117
I19
I21
I-53
I1
I46
I45
I110
tp969
a(I-83
I-11
I-14
I-26
I-6
I-43
I-26
I-78
tp970
a(I36
I-4
I-11
I20
I8
I16
I41
I64
tp971
a(I35
I5
I-12
I26
I7
I-4
I3
I52
tp972
a(I-114
I-11
I-1
I5
I11
I-59
I-45
I-93
tp973
a(I5
I-2
I-2
I8
I-24
I8
I28
I31
tp974
a(I78
I5
I-5
I-63
I29
I18
I-61
I68
tp975
a(I24
I10
I-1
I1
I19
I17
I-18
I-17
tp976
a(I-120
I-5
I-6
I41
I-5
I12
I2
I-62
tp977
a(I74
I-7
I6
I-30
I48
I-21
I-11
I43
tp978
a(I-42
I-3
I3
I52
I-25
I-29
I-4
I-48
tp979
a(I45
I21
I22
I-3
I11
I53
I8
I89
tp980
a(I-39
I-18
I6
I88
I-27
I-21
I35
I-77
tp981
a(I9
I3
I-9
I-19
I-39
I-38
I0
I-15
tp982
a(I-14
I3
I8
I-10
I31
I-52
I34
I87
tp983
a(I-16
I2
I8
I-9
I11
I0
I-101
I-34
tp984
a(I15
I-9
I-8
I-5
I-23
I30
I93
I-21
tp985
a(I-6
I-1
I-5
I5
I54
I29
I-12
I5
tp986
a(I24
I-3
I0
I26
I-68
I-35
I-14
I5
tp987
a(I-44
I-11
I7
I38
I-11
I-76
I-8
I-28
tp988
a(I33
I-4
I-14
I-40
I19
I49
I-17
I-5
tp989
a(I75
I14
I15
I14
I12
I27
I6
I33
tp990
a(I16
I-12
I-15
I-35
I10
I8
I-19
I8
tp991
a(I38
I10
I6
I-38
I-43
I-11
I30
I55
tp992
a(I49
I-9
I-22
I4
I17
I10
I-45
I-41
tp993
a(I43
I6
I6
I-6
I-9
I13
I30
I35
tp994
a(I-32
I-9
I-14
I-10
I3
I-51
I-22
I17
tp995
a(I-107
I6
I10
I34
I-6
I-22
I-42
I-78
tp996
a(I91
I-1
I2
I-6
I-17
I28
I26
I30
tp997
a(I-87
I-15
I-10
I-13
I-24
I-11
I1
I-39
tp998
a(I36
I4
I-7
I-50
I30
I50
I64
I3
tp999
a(I-42
I-1
I-7
I13
I18
I-13
I-11
I-31
tp1000
a(I-10
I6
I14
I-4
I-18
I-29
I-57
I24
tp1001
a(I43
I-1
I-7
I14
I2
I19
I57
I12
tp1002
a(I46
I11
I14
I-7
I12
I6
I-52
I-3
tp1003
a(I-90
I-19
I-20
I-4
I-6
I21
I4
I7
tp1004
a(I-10
I10
I22
I113
I18
I-59
I-53
I-31
tp1005
a(I48
I-11
I-25
I-32
I-7
I-1
I11
I12
tp1006
a(I-90
I-8
I-8
I-26
I-31
I8
I1
I-29
tp1007
a(I64
I5
I6
I52
I23
I-9
I-27
I43
tp1008
a(I20
I1
I-4
I-3
I-11
I7
I-60
I-19
tp1009
a(I-34
I-13
I-9
I7
I-6
I-45
I6
I5
tp1010
a(I15
I-1
I-4
I22
I16
I68
I84
I32
tp1011
a(I-40
I-5
I2
I10
I10
I6
I-4
I3
tp1012
a(I-4
I-1
I-17
I-9
I18
I60
I20
I35
tp1013
a(I-67
I1
I17
I-22
I-19
I-25
I-5
I-54
tp1014
a(I46
I8
I5
I-11
I16
I24
I69
I53
tp1015
a(I17
I7
I1
I-16
I-26
I-41
I-27
I51
tp1016
a(I6
I-9
I-8
I9
I1
I-76
I5
I-55
tp1017
a(I-15
I-2
I4
I10
I41
I60
I21
I7
tp1018
a(I4
I2
I-9
I3
I-39
I-28
I-35
I0
tp1019
a(I-14
I-4
I10
I-70
I8
I-13
I38
I12
tp1020
a(I19
I7
I3
I-9
I-3
I6
I2
I16
tp1021
a(I29
I0
I-2
I23
I5
I10
I26
I8
tp1022
a(I-53
I-4
I-10
I-23
I9
I-8
I-13
I-7
tp1023
a(I5
I-4
I8
I64
I-31
I9
I14
I-1
tp1024
a(I72
I4
I-15
I-42
I23
I-92
I-40
I27
tp1025
a(I-20
I2
I24
I24
I-8
I18
I6
I-40
tp1026
a(I78
I-11
I-18
I-46
I-13
I-68
I-58
I33
tp1027
a(I-112
I-4
I3
I20
I5
I-10
I52
I-92
tp1028
a(I52
I-1
I-4
I30
I-25
I-11
I-37
I13
tp1029
a(I59
I3
I6
I33
I42
I9
I-33
I20
tp1030
a(I-49
I-9
I-26
I-26
I-11
I-34
I-13
I-51
tp1031
a(I53
I1
I2
I-29
I0
I23
I-3
I81
tp1032
a(I-80
I-6
I0
I-15
I-9
I29
I22
I-55
tp1033
a(I73
I4
I-6
I-68
I16
I17
I-26
I-11
tp1034
a(I-69
I-5
I5
I-47
I-45
I22
I14
I-32
tp1035
a(I-5
I-12
I-8
I-4
I-21
I-25
I-52
I16
tp1036
a(I102
I24
I27
I29
I-14
I-2
I57
I33
tp1037
a(I72
I23
I-1
I38
I62
I108
I9
I60
tp1038
a(I75
I7
I-1
I6
I14
I33
I-35
I-33
tp1039
a(I-63
I-2
I3
I6
I-3
I54
I38
I9
tp1040
a(I-8
I-1
I26
I-70
I-22
I19
I-29
I6
tp1041
a(I95
I4
I38
I-68
I-9
I58
I0
I42
tp1042
a(I-66
I-12
I-13
I16
I-38
I-2
I29
I-9
tp1043
a(I65
I5
I17
I-17
I-3
I-20
I6
I-32
tp1044
a(I50
I-14
I-14
I-16
I-17
I-33
I-69
I8
tp1045
a(I-117
I-1
I-1
I7
I2
I-32
I65
I-32
tp1046
a(I19
I-1
I-8
I4
I-22
I-27
I-9
I33
tp1047
a(I-56
I-4
I-26
I-25
I1
I-15
I0
I-24
tp1048
a(I-4
I4
I-13
I18
I3
I9
I20
I17
tp1049
a(I-12
I-3
I27
I-31
I-7
I-3
I-37
I6
tp1050
a(I2
I-2
I13
I-5
I-5
I-29
I18
I24
tp1051
a(I44
I1
I-10
I19
I30
I28
I-20
I52
tp1052
a(I15
I5
I-3
I5
I9
I-23
I-45
I-48
tp1053
a(I-96
I-18
I-11
I20
I-23
I41
I-6
I-19
tp1054
a(I32
I9
I18
I-5
I0
I-38
I39
I-53
tp1055
a(I2
I-5
I-11
I3
I1
I-24
I10
I33
tp1056
a(I12
I2
I-4
I-6
I29
I22
I-33
I17
tp1057
a(I-2
I-3
I0
I17
I2
I-48
I-40
I-18
tp1058
a(I39
I7
I16
I-21
I-15
I58
I20
I26
tp1059
a(I-50
I-11
I-19
I17
I12
I13
I37
I-81
tp1060
a(I10
I8
I15
I9
I-1
I-5
I-12
I44
tp1061
a(I-41
I-9
I-11
I-50
I12
I-26
I-19
I-23
tp1062
a(I15
I6
I-9
I6
I-45
I10
I41
I-16
tp1063
a(I72
I-8
I-3
I-26
I8
I52
I-21
I67
tp1064
a(I-28
I-8
I-18
I38
I24
I-27
I-2
I-23
tp1065
a(I-86
I0
I7
I-8
I-23
I4
I-7
I-59
tp1066
a(I25
I8
I23
I2
I2
I10
I27
I37
tp1067
a(I-24
I-4
I-28
I-26
I-9
I-56
I-33
I-55
tp1068
a(I35
I-2
I4
I33
I4
I-1
I-36
I21
tp1069
a(I66
I10
I27
I-22
I-22
I-24
I11
I23
tp1070
a(I66
I3
I-6
I0
I-29
I-19
I27
I46
tp1071
a(I-33
I-15
I-3
I4
I28
I31
I-49
I-60
tp1072
a(I-49
I8
I-8
I-20
I20
I-8
I35
I-11
tp1073
a(I97
I7
I8
I-6
I-8
I-17
I26
I-12
tp1074
a(I-11
I-2
I-16
I16
I11
I3
I-23
I-36
tp1075
a(I-1
I15
I4
I45
I-10
I4
I-19
I19
tp1076
a(I-15
I-13
I-11
I-13
I8
I-16
I19
I-49
tp1077
a(I-1
I3
I-8
I-13
I-14
I-9
I17
I13
tp1078
a(I-48
I-6
I8
I12
I6
I7
I-58
I-15
tp1079
a(I4
I-4
I-17
I-13
I16
I21
I42
I26
tp1080
a(I40
I0
I-7
I-14
I9
I-12
I-9
I-21
tp1081
a(I-16
I-6
I2
I13
I-5
I-2
I14
I-13
tp1082
a(I57
I8
I10
I50
I19
I-25
I-66
I24
tp1083
a(I79
I-6
I-9
I2
I-2
I31
I-6
I-33
tp1084
a(I-87
I-14
I-4
I18
I-10
I-7
I-17
I-12
tp1085
a(I53
I-4
I1
I15
I0
I29
I-29
I-24
tp1086
a(I-7
I8
I-6
I-10
I18
I-38
I-6
I10
tp1087
a(I32
I0
I0
I49
I-36
I30
I11
I2
tp1088
a(I-27
I-1
I4
I-11
I-12
I-24
I19
I-2
tp1089
a(I-83
I-8
I-14
I1
I-1
I-5
I-28
I-7
tp1090
a(I80
I-1
I-4
I-13
I2
I51
I42
I20
tp1091
a(I3
I8
I11
I24
I-9
I-54
I24
I10
tp1092
a(I-61
I-12
I-17
I-30
I-4
I-41
I-24
I-32
tp1093
a(I12
I6
I12
I36
I12
I-17
I-19
I48
tp1094
a(I-24
I6
I9
I-16
I-44
I70
I-8
I-29
tp1095
a(I-25
I-16
I-25
I-30
I28
I-40
I-31
I-21
tp1096
a(I62
I2
I4
I19
I-21
I41
I-7
I12
tp1097
a(I21
I10
I18
I10
I-2
I-10
I17
I23
tp1098
a(I13
I-1
I-11
I-18
I-11
I10
I15
I-3
tp1099
a(I32
I6
I-7
I-29
I-14
I-24
I-39
I60
tp1100
a(I-7
I8
I13
I-7
I5
I0
I40
I-59
tp1101
a(I22
I-15
I-12
I-2
I-16
I2
I29
I30
tp1102
a(I-16
I5
I6
I-37
I15
I15
I-44
I-8
tp1103
a(I-67
I1
I-4
I15
I1
I-73
I11
I-63
tp1104
a(I74
I-2
I3
I-17
I40
I-9
I-16
I37
tp1105
a(I2
I1
I-7
I14
I-31
I55
I42
I20
tp1106
a(I-5
I-6
I-8
I-9
I7
I-40
I-2
I-20
tp1107
a(I-47
I-6
I11
I-15
I13
I-9
I-28
I-26
tp1108
a(I100
I9
I-2
I-19
I9
I44
I4
I82
tp1109
a(I-100
I-11
I-13
I-3
I1
I-41
I-44
I-65
tp1110
a(I43
I0
I10
I-30
I1
I-5
I9
I22
tp1111
a(I-79
I1
I3
I48
I7
I10
I47
I-66
tp1112
a(I-20
I0
I1
I16
I4
I16
I10
I39
tp1113
a(I44
I12
I7
I-13
I0
I30
I12
I56
tp1114
a(I-23
I-6
I-10
I4
I2
I-38
I-55
I-37
tp1115
a(I68
I2
I9
I-17
I8
I23
I28
I35
tp1116
a(I-105
I-6
I-5
I-22
I-36
I-26
I-18
I-60
tp1117
a(I55
I2
I3
I13
I7
I28
I29
I84
tp1118
a(I-11
I18
I2
I30
I13
I2
I40
I-27
tp1119
a(I-39
I-33
I-26
I-6
I-5
I-18
I-31
I-66
tp1120
a(I18
I-5
I-9
I29
I25
I18
I-3
I18
tp1121
a(I2
I3
I5
I23
I-2
I7
I-10
I41
tp1122
a(I65
I0
I3
I-14
I27
I18
I-20
I22
tp1123
a(I-28
I-11
I-21
I-27
I2
I-64
I-43
I-56
tp1124
a(I46
I17
I10
I-34
I-32
I43
I15
I65
tp1125
a(I-18
I-10
I-12
I42
I6
I-20
I-3
I-46
tp1126
a(I-50
I-6
I1
I-11
I23
I24
I-17
I-21
tp1127
a(I86
I10
I3
I-15
I-13
I3
I20
I69
tp1128
a(I-114
I-18
I-6
I37
I3
I-6
I5
I-49
tp1129
a(I44
I-3
I-18
I-46
I-26
I-48
I-29
I-35
tp1130
a(I-10
I1
I4
I12
I-52
I-36
I-26
I-6
tp1131
a(I-30
I2
I-2
I19
I15
I-6
I1
I11
tp1132
a(I23
I-4
I-3
I-13
I22
I0
I22
I22
tp1133
a(I-111
I-1
I-1
I-7
I9
I4
I-4
I-53
tp1134
a(I65
I-5
I-7
I-13
I-11
I-5
I0
I58
tp1135
a(I77
I8
I9
I-27
I2
I9
I46
I-10
tp1136
a(I-12
I5
I-1
I1
I-18
I-32
I-12
I20
tp1137
a(I-5
I-3
I-17
I12
I17
I13
I-50
I-14
tp1138
a(I15
I-1
I24
I-23
I6
I-40
I35
I-6
tp1139
a(I-43
I-3
I-7
I-41
I-11
I-31
I5
I33
tp1140
a(I44
I8
I-3
I13
I-22
I18
I8
I-16
tp1141
a(I27
I3
I0
I-12
I6
I-10
I7
I46
tp1142
a(I-79
I-8
I-18
I18
I13
I28
I-12
I-96
tp1143
a(I43
I1
I15
I12
I-9
I-16
I-52
I66
tp1144
a(I70
I-1
I6
I-32
I16
I7
I19
I-31
tp1145
a(I-11
I2
I3
I41
I20
I18
I-19
I-9
tp1146
a(I29
I-3
I-8
I2
I0
I34
I-4
I15
tp1147
a(I41
I12
I36
I15
I18
I33
I39
I39
tp1148
a(I36
I0
I-13
I9
I4
I-1
I-40
I-5
tp1149
a(I-45
I1
I14
I-22
I2
I-16
I-19
I-45
tp1150
a(I-63
I-8
I-18
I-44
I-15
I-21
I36
I-3
tp1151
a(I87
I1
I9
I42
I15
I-25
I-5
I7
tp1152
a(I-96
I-10
I3
I3
I-20
I-22
I6
I-16
tp1153
a(I40
I-6
I-15
I40
I-21
I41
I-3
I16
tp1154
a(I65
I12
I9
I-33
I14
I-15
I-48
I20
tp1155
a(I-109
I-14
I-24
I-24
I-4
I21
I3
I-87
tp1156
a(I12
I5
I12
I15
I-5
I-35
I-47
I34
tp1157
a(I-74
I-9
I-11
I2
I16
I-3
I-35
I-21
tp1158
a(I46
I3
I1
I-25
I19
I2
I0
I9
tp1159
a(I47
I12
I10
I-3
I3
I11
I63
I55
tp1160
a(I-49
I-15
I2
I-8
I2
I7
I-38
I-18
tp1161
a(I-52
I23
I19
I5
I4
I-38
I-26
I-57
tp1162
a(I28
I4
I2
I-1
I-29
I-18
I59
I21
tp1163
a(I-95
I-5
I-9
I29
I6
I10
I-8
I-32
tp1164
a(I-18
I-3
I-6
I1
I10
I21
I33
I70
tp1165
a(I50
I-7
I-17
I-8
I5
I-23
I-30
I-37
tp1166
a(I69
I3
I4
I9
I-5
I46
I57
I8
tp1167
a(I46
I2
I4
I-14
I9
I-15
I-9
I4
tp1168
a(I-1
I13
I12
I46
I-3
I-32
I3
I-23
tp1169
a(I60
I2
I-8
I12
I-17
I-6
I30
I18
tp1170
a(I7
I-10
I2
I3
I17
I1
I3
I-13
tp1171
a(I-48
I-3
I8
I-8
I-22
I-37
I7
I-64
tp1172
a(I45
I-3
I-10
I-20
I-1
I-5
I-4
I39
tp1173
a(I-10
I3
I36
I41
I-1
I-3
I-38
I5
tp1174
a(I-22
I6
I-21
I-47
I7
I25
I32
I-4
tp1175
a(I14
I9
I-1
I25
I25
I-8
I9
I50
tp1176
a(I115
I-1
I-13
I-20
I10
I15
I-9
I39
tp1177
a(I-54
I-18
I-20
I-6
I-6
I0
I-14
I-27
tp1178
a(I61
I-4
I-13
I20
I-21
I-34
I34
I48
tp1179
a(I-109
I-12
I3
I-23
I10
I10
I-46
I-86
tp1180
a(I0
I-8
I-3
I1
I-1
I-16
I-53
I-3
tp1181
a(I82
I-2
I-1
I-49
I-38
I-6
I77
I38
tp1182
a(I6
I9
I-7
I21
I13
I11
I-20
I-10
tp1183
a(I5
I0
I13
I-10
I-3
I-22
I-11
I5
tp1184
a(I-30
I-5
I-10
I8
I-1
I32
I19
I-27
tp1185
a(I2
I-22
I-36
I-6
I10
I0
I7
I8
tp1186
a(I1
I10
I23
I-25
I-31
I24
I60
I-12
tp1187
a(I-33
I9
I10
I29
I33
I7
I-7
I15
tp1188
a(I-2
I-4
I-8
I-20
I-20
I2
I-49
I-12
tp1189
a(I-3
I8
I2
I-6
I11
I10
I15
I60
tp1190
a(I28
I-3
I11
I3
I3
I-39
I-45
I-44
tp1191
a(I-1
I-1
I-8
I-27
I-9
I74
I25
I7
tp1192
a(I-17
I1
I2
I1
I-8
I3
I1
I-7
tp1193
a(I-50
I-12
I-8
I-10
I4
I-34
I-45
I-34
tp1194
a(I0
I-7
I-13
I-37
I-4
I-66
I-26
I2
tp1195
a(I35
I17
I23
I22
I-11
I-2
I-2
I31
tp1196
a(I6
I4
I10
I6
I-4
I14
I47
I40
tp1197
a(I-44
I-9
I-5
I18
I6
I18
I-40
I-60
tp1198
a(I-18
I-5
I-10
I-13
I3
I-61
I-3
I13
tp1199
a(I-13
I-3
I-10
I3
I-1
I-9
I-12
I0
tp1200
a(I-16
I-14
I-16
I-14
I-22
I5
I1
I-4
tp1201
a(I32
I3
I-2
I-24
I13
I-5
I10
I27
tp1202
a(I38
I-9
I-2
I46
I-2
I-7
I16
I-10
tp1203
a(I-17
I4
I17
I11
I14
I17
I-23
I-14
tp1204
a(I-13
I1
I-3
I-17
I-37
I-33
I-28
I-5
tp1205
a(I14
I-7
I3
I43
I19
I-15
I17
I20
tp1206
a(I30
I0
I-12
I4
I13
I21
I-52
I20
tp1207
a(I-39
I4
I-4
I6
I-24
I-28
I-15
I22
tp1208
a(I75
I15
I14
I-36
I-7
I38
I23
I30
tp1209
a(I-98
I-11
I-13
I0
I-17
I-7
I28
I-99
tp1210
a(I27
I-4
I9
I13
I10
I-51
I-25
I6
tp1211
a(I-9
I0
I14
I-16
I9
I8
I23
I32
tp1212
a(I-58
I1
I-4
I4
I11
I-6
I14
I-2
tp1213
a(I-27
I-2
I-13
I-55
I-12
I7
I3
I34
tp1214
a(I-33
I-1
I-7
I16
I9
I23
I-6
I-46
tp1215
a(I44
I4
I-10
I-24
I-17
I-86
I-67
I26
tp1216
a(I29
I-3
I4
I-16
I-14
I30
I51
I25
tp1217
a(I56
I-1
I3
I79
I24
I8
I-29
I-35
tp1218
a(I-97
I0
I14
I-49
I0
I-33
I10
I4
tp1219
a(I112
I11
I2
I-17
I17
I54
I22
I70
tp1220
a(I-59
I-12
I-10
I1
I5
I-40
I-50
I-58
tp1221
a(I-33
I4
I-6
I-22
I9
I16
I31
I48
tp1222
a(I67
I-1
I1
I-5
I-32
I-10
I10
I-20
tp1223
a(I-63
I-12
I-13
I34
I-13
I-46
I-30
I-57
tp1224
a(I41
I19
I21
I-15
I31
I-2
I-19
I46
tp1225
a(I16
I-9
I0
I-2
I-46
I-26
I-8
I-14
tp1226
a(I11
I13
I1
I12
I36
I60
I31
I26
tp1227
a(I15
I7
I6
I2
I-59
I-22
I-10
I4
tp1228
a(I10
I-12
I-12
I3
I70
I17
I-14
I15
tp1229
a(I-51
I2
I18
I-2
I-41
I-3
I12
I-54
tp1230
a(I-17
I-3
I-17
I12
I-6
I5
I40
I-6
tp1231
a(I98
I2
I2
I-5
I8
I18
I17
I85
tp1232
a(I-98
I1
I17
I11
I30
I52
I-21
I-22
tp1233
a(I-2
I-2
I-13
I-16
I-2
I-8
I5
I3
tp1234
a(I65
I12
I6
I16
I18
I36
I19
I52
tp1235
a(I-32
I-1
I-7
I-31
I-26
I-13
I27
I-30
tp1236
a(I-38
I-14
I-7
I16
I4
I-24
I-27
I-52
tp1237
a(I8
I-10
I-4
I11
I-14
I-22
I24
I58
tp1238
a(I25
I17
I11
I-28
I-3
I51
I1
I0
tp1239
a(I42
I-4
I-2
I41
I-5
I-16
I-24
I1
tp1240
a(I62
I7
I-9
I-34
I10
I-26
I13
I-22
tp1241
a(I-47
I-10
I-14
I-16
I27
I54
I13
I-26
tp1242
a(I-44
I-10
I-1
I-8
I-20
I-30
I-50
I-3
tp1243
a(I-18
I2
I3
I12
I49
I4
I24
I27
tp1244
a(I-41
I-4
I4
I9
I-33
I-5
I36
I-34
tp1245
a(I73
I22
I19
I8
I18
I54
I70
I64
tp1246
a(I-42
I-5
I-20
I-12
I-27
I-50
I-3
I-58
tp1247
a(I14
I2
I-4
I1
I-5
I-8
I-55
I12
tp1248
a(I-51
I-2
I-1
I-5
I-5
I43
I57
I-28
tp1249
a(I-69
I-7
I2
I34
I-1
I-68
I-20
I-9
tp1250
a(I-8
I-10
I-2
I0
I30
I60
I60
I14
tp1251
a(I58
I9
I9
I-10
I1
I42
I-40
I29
tp1252
a(I4
I1
I12
I46
I-18
I-41
I-3
I2
tp1253
a(I20
I3
I6
I7
I-6
I-5
I-52
I-11
tp1254
a(I48
I0
I4
I-5
I1
I8
I19
I51
tp1255
a(I-32
I-7
I-5
I-5
I-9
I-23
I-47
I-26
tp1256
a(I7
I4
I15
I-13
I27
I2
I-17
I-1
tp1257
a(I13
I1
I-3
I22
I5
I-6
I51
I4
tp1258
a(I12
I0
I-1
I16
I3
I8
I-32
I7
tp1259
a(I-24
I3
I5
I-16
I15
I-3
I29
I-18
tp1260
a(I36
I-5
I13
I5
I-16
I16
I-2
I-21
tp1261
a(I56
I10
I-15
I-32
I-30
I-36
I-3
I-12
tp1262
a(I-60
I-15
I-17
I-39
I55
I-2
I-27
I-38
tp1263
a(I116
I1
I25
I-29
I-17
I12
I15
I39
tp1264
a(I-88
I11
I-12
I26
I13
I-57
I-60
I-63
tp1265
a(I-31
I-6
I6
I15
I6
I33
I-2
I2
tp1266
a(I115
I14
I3
I-58
I-11
I36
I63
I77
tp1267
a(I-76
I-12
I-12
I-6
I40
I-47
I-40
I-67
tp1268
a(I27
I3
I0
I3
I-69
I11
I54
I22
tp1269
a(I54
I9
I6
I24
I18
I47
I18
I16
tp1270
a(I-33
I-6
I-4
I15
I-29
I17
I-1
I-15
tp1271
a(I11
I6
I-2
I-15
I23
I1
I22
I-11
tp1272
a(I-30
I1
I40
I37
I6
I-8
I2
I-2
tp1273
a(I-5
I1
I-11
I1
I17
I28
I8
I-28
tp1274
a(I45
I5
I5
I13
I-11
I2
I-1
I68
tp1275
a(I-31
I-15
I-10
I20
I12
I-22
I-51
I-55
tp1276
a(I22
I11
I-8
I3
I20
I11
I-3
I12
tp1277
a(I-93
I-14
I-23
I-1
I9
I-10
I-1
I21
tp1278
a(I18
I-2
I-11
I-37
I21
I30
I19
I-16
tp1279
a(I-81
I-6
I-6
I-4
I-16
I-42
I-27
I9
tp1280
a(I77
I2
I-2
I-12
I25
I25
I1
I33
tp1281
a(I46
I-5
I-1
I21
I-19
I-39
I-7
I12
tp1282
a(I19
I0
I-13
I0
I-15
I-7
I-53
I-8
tp1283
a(I11
I9
I3
I-2
I5
I6
I24
I-5
tp1284
a(I-51
I-3
I21
I-3
I-29
I-49
I-49
I-51
tp1285
a(I91
I18
I18
I4
I2
I52
I-6
I26
tp1286
a(I39
I-3
I1
I47
I22
I-33
I-2
I16
tp1287
a(I-3
I-2
I-4
I-9
I-4
I-3
I39
I18
tp1288
a(I28
I1
I-16
I31
I9
I-9
I13
I16
tp1289
a(I-33
I-1
I-1
I28
I10
I7
I15
I-18
tp1290
a(I12
I-3
I-6
I-12
I-5
I-4
I14
I24
tp1291
a(I-39
I-3
I-6
I-29
I-5
I11
I-6
I-28
tp1292
a(I-49
I-5
I-13
I-20
I-8
I-35
I-2
I0
tp1293
a(I16
I1
I-7
I-25
I-32
I-4
I-12
I13
tp1294
a(I-24
I-9
I-11
I-6
I19
I59
I21
I-2
tp1295
a(I21
I10
I12
I21
I14
I34
I86
I54
tp1296
a(I-12
I-1
I-18
I-11
I-32
I-59
I-10
I-45
tp1297
a(I-1
I1
I4
I-12
I-5
I28
I-6
I2
tp1298
a(I-33
I4
I1
I-10
I-1
I-27
I14
I-67
tp1299
a(I84
I0
I7
I33
I4
I9
I-3
I3
tp1300
a(I-2
I17
I12
I-39
I15
I65
I69
I56
tp1301
a(I-71
I2
I14
I34
I-18
I-32
I-16
I9
tp1302
a(I66
I2
I3
I-22
I-20
I9
I17
I-7
tp1303
a(I-40
I-10
I-16
I-15
I6
I60
I12
I7
tp1304
a(I-23
I-1
I7
I-4
I0
I-27
I-30
I11
tp1305
a(I55
I6
I3
I-38
I-1
I29
I-1
I34
tp1306
a(I-73
I-6
I-13
I95
I-9
I-58
I-56
I-44
tp1307
a(I19
I-9
I-4
I-17
I28
I24
I32
I-28
tp1308
a(I116
I2
I-6
I-6
I-2
I7
I12
I4
tp1309
a(I-113
I-14
I-12
I-30
I-26
I-42
I-21
I-42
tp1310
a(I41
I-9
I-5
I8
I19
I2
I43
I8
tp1311
a(I-1
I-3
I-9
I4
I-21
I-40
I-49
I25
tp1312
a(I-33
I10
I18
I-21
I21
I-11
I42
I7
tp1313
a(I39
I4
I5
I25
I5
I-21
I-30
I17
tp1314
a(I60
I7
I9
I2
I2
I-3
I56
I94
tp1315
a(I-75
I1
I2
I-28
I-25
I-18
I-12
I-100
tp1316
a(I-24
I-8
I-14
I-4
I23
I11
I30
I39
tp1317
a(I-20
I-5
I-9
I-42
I1
I-14
I-20
I-27
tp1318
a(I11
I4
I19
I30
I-11
I-85
I-70
I-7
tp1319
a(I-27
I-16
I-23
I-11
I33
I15
I22
I-12
tp1320
a(I60
I12
I17
I-13
I-9
I-57
I-55
I24
tp1321
a(I-47
I-5
I0
I-6
I21
I28
I-8
I2
tp1322
a(I116
I10
I-22
I-4
I-19
I34
I49
I-19
tp1323
a(I-65
I-6
I14
I36
I24
I-42
I32
I0
tp1324
a(I-25
I-10
I-30
I-39
I20
I-7
I-15
I-3
tp1325
a(I70
I5
I-17
I2
I-1
I27
I-2
I58
tp1326
a(I-1
I-2
I14
I1
I-19
I-34
I-11
I-15
tp1327
a(I-30
I6
I1
I2
I9
I-8
I-17
I24
tp1328
a(I-41
I-5
I0
I48
I-23
I-10
I49
I-3
tp1329
a(I-114
I-9
I-21
I-42
I-8
I-12
I-32
I-57
tp1330
a(I51
I13
I26
I-32
I-8
I15
I-3
I47
tp1331
a(I-38
I5
I11
I83
I-16
I-42
I31
I38
tp1332
a(I-24
I-11
I-8
I-32
I6
I-50
I-33
I-57
tp1333
a(I43
I-7
I-22
I41
I-30
I-15
I-38
I44
tp1334
a(I-24
I2
I8
I-55
I10
I63
I25
I-17
tp1335
a(I65
I6
I21
I-37
I-55
I-49
I-29
I-27
tp1336
a(I18
I-10
I-24
I-8
I21
I6
I47
I50
tp1337
a(I84
I1
I-4
I-18
I8
I-21
I4
I22
tp1338
a(I-98
I-17
I-6
I4
I-13
I0
I-2
I5
tp1339
a(I40
I-5
I6
I-15
I40
I-39
I6
I-1
tp1340
a(I65
I7
I2
I6
I-33
I42
I-5
I27
tp1341
a(I-30
I-6
I-15
I-13
I22
I36
I1
I7
tp1342
a(I48
I15
I29
I-22
I-38
I8
I-61
I-14
tp1343
a(I-27
I8
I3
I19
I3
I-35
I74
I66
tp1344
a(I-103
I-10
I-8
I16
I10
I8
I60
I-88
tp1345
a(I43
I-10
I-10
I17
I-2
I-26
I-26
I21
tp1346
a(I-24
I1
I-5
I-1
I25
I-20
I-36
I11
tp1347
a(I109
I7
I6
I-48
I-20
I9
I-3
I19
tp1348
a(I-63
I13
I26
I16
I30
I18
I37
I-24
tp1349
a(I23
I9
I0
I-15
I6
I47
I16
I-10
tp1350
a(I-10
I-4
I-9
I-19
I-19
I-43
I-5
I22
tp1351
a(I-3
I-13
I-17
I-41
I7
I-22
I11
I-22
tp1352
a(I19
I10
I0
I51
I-3
I33
I37
I11
tp1353
a(I-65
I-4
I1
I-4
I3
I-26
I0
I-4
tp1354
a(I75
I0
I-20
I-8
I1
I35
I10
I-18
tp1355
a(I-89
I-11
I-1
I-16
I-4
I-15
I14
I-2
tp1356
a(I-61
I-6
I-14
I-2
I3
I-9
I-3
I-7
tp1357
a(I86
I11
I6
I-14
I-2
I31
I0
I35
tp1358
a(I-8
I-3
I-11
I10
I-12
I-78
I-36
I-26
tp1359
a(I38
I-11
I-8
I-14
I-9
I14
I32
I12
tp1360
a(I23
I5
I-5
I18
I8
I47
I-1
I10
tp1361
a(I-42
I4
I-5
I15
I-11
I-20
I-48
I-11
tp1362
a(I65
I3
I9
I-17
I-21
I16
I43
I37
tp1363
a(I-113
I-10
I-6
I39
I2
I2
I-72
I-92
tp1364
a(I-15
I-3
I-5
I1
I-2
I-36
I27
I38
tp1365
a(I-1
I5
I-7
I-29
I-24
I40
I1
I12
tp1366
a(I-45
I-3
I14
I53
I3
I-68
I16
I3
tp1367
a(I92
I5
I-15
I-43
I41
I29
I-55
I0
tp1368
a(I-68
I-15
I19
I28
I-8
I-4
I63
I-69
tp1369
a(I14
I0
I0
I39
I-1
I-18
I-41
I19
tp1370
a(I88
I11
I5
I-33
I15
I37
I23
I21
tp1371
a(I-30
I-2
I2
I-6
I-45
I-28
I82
I12
tp1372
a(I-2
I-1
I6
I48
I11
I29
I-72
I6
tp1373
a(I-94
I-4
I12
I76
I-18
I-73
I-61
I-13
tp1374
a(I51
I12
I-13
I-68
I10
I31
I17
I5
tp1375
a(I19
I5
I19
I-6
I-16
I32
I-27
I32
tp1376
a(I32
I1
I9
I21
I13
I-7
I34
I-34
tp1377
aag3
asS'rest'
p1378
(lp1379
g3
ag3
as.