(dp0
S'close'
p1
(lp2
(I-2
I-4
I3
I0
I-2
I-3
I-1
I-1
tp3
a(I-1
I-2
I3
I-2
I-3
I-1
I-1
I-1
tp4
a(I-1
I-3
I-2
I-2
I-1
I-1
I-2
I-3
tp5
a(I-1
I-1
I-2
I-1
I-2
I-4
I-2
I1
tp6
a(I2
I1
I0
I0
I-2
I-1
I0
I-2
tp7
a(I-2
I-3
I3
I1
I-1
I0
I-1
I0
tp8
a(I0
I-1
I4
I0
I-1
I-1
I0
I2
tp9
a(I-1
I2
I2
I4
I-2
I-3
I-1
I-3
tp10
a(I-3
I-1
I6
I0
I-1
I1
I-2
I2
tp11
a(I-1
I1
I-2
I-1
I3
I-1
I1
I-1
tp12
a(I-10
I23
I105
I-49
I-66
I46
I30
I39
tp13
a(I-15
I10
I29
I-10
I-14
I17
I10
I11
tp14
a(I-20
I-3
I31
I-13
I-21
I3
I-5
I-1
tp15
a(I-21
I-16
I0
I6
I-9
I-21
I-21
I-15
tp16
a(I-9
I-15
I-40
I17
I24
I-24
I-21
I-25
tp17
a(I2
I-6
I-45
I17
I23
I-11
I-7
I-17
tp18
a(I-5
I-8
I-18
I7
I-5
I-14
I-8
I-5
tp19
a(I-1
I-5
I1
I-8
I-4
I-5
I-5
I-5
tp20
a(I-3
I-9
I-17
I6
I9
I-12
I-10
I-11
tp21
a(I3
I0
I-22
I5
I13
I-1
I1
I-4
tp22
a(I3
I-3
I-16
I3
I7
I-5
I-2
I-8
tp23
a(I-3
I1
I19
I-12
I-12
I5
I3
I1
tp24
a(I-3
I-2
I-4
I-1
I5
I-3
I-5
I-4
tp25
a(I2
I-4
I-28
I13
I14
I-7
I-4
I-7
tp26
a(I0
I0
I7
I-7
I-3
I1
I3
I-1
tp27
a(I-4
I2
I19
I-9
I-14
I6
I1
I4
tp28
a(I-3
I-3
I-5
I9
I-1
I-4
I-7
I-2
tp29
a(I3
I-1
I-20
I1
I11
I-4
I1
I-2
tp30
a(I2
I-4
I8
I-1
I-6
I2
I0
I1
tp31
a(I-4
I2
I13
I-5
I-10
I3
I1
I3
tp32
a(I-3
I-1
I-8
I2
I7
I-3
I-1
I-3
tp33
a(I3
I0
I-6
I1
I3
I0
I2
I0
tp34
a(I-1
I1
I5
I-5
I-3
I2
I3
I2
tp35
a(I-3
I-3
I2
I-2
I-6
I-2
I-2
I-1
tp36
a(I-1
I-2
I4
I-1
I-3
I-2
I-4
I0
tp37
a(I3
I0
I9
I-6
I-7
I0
I0
I0
tp38
a(I-3
I-2
I-3
I-1
I-1
I0
I1
I-2
tp39
a(I0
I-2
I-5
I-1
I0
I2
I-2
I0
tp40
a(I0
I-2
I0
I2
I-2
I-1
I2
I-1
tp41
a(I-2
I1
I10
I-2
I-5
I1
I2
I1
tp42
a(I-2
I-2
I3
I-1
I-2
I0
I0
I-1
tp43
a(I0
I-1
I-4
I8
I2
I-2
I-1
I-4
tp44
a(I0
I3
I-2
I-3
I0
I1
I-1
I-1
tp45
a(I-3
I-2
I1
I-2
I-5
I-1
I0
I1
tp46
a(I1
I-2
I0
I1
I-3
I-4
I-2
I-2
tp47
a(I-1
I-2
I-4
I3
I2
I-4
I-1
I-3
tp48
a(I0
I0
I-3
I0
I0
I-2
I-1
I-1
tp49
a(I-1
I-2
I0
I1
I-1
I2
I0
I0
tp50
a(I-2
I-1
I1
I-2
I-4
I1
I1
I-2
tp51
a(I-1
I-2
I2
I-5
I2
I-2
I-2
I-4
tp52
a(I-2
I-1
I-5
I-1
I2
I-2
I0
I-2
tp53
a(I-1
I2
I1
I-2
I-2
I1
I-1
I0
tp54
a(I-2
I0
I0
I-2
I0
I0
I0
I2
tp55
a(I-2
I-2
I0
I-2
I0
I-1
I-1
I-1
tp56
a(I-1
I-1
I-6
I-3
I1
I1
I-2
I-2
tp57
a(I1
I-2
I-1
I-1
I-2
I3
I2
I-1
tp58
a(I1
I0
I0
I-2
I-1
I-3
I-2
I-2
tp59
a(I-2
I1
I0
I-2
I1
I3
I-3
I-2
tp60
a(I-2
I-1
I-3
I-1
I1
I-1
I1
I0
tp61
a(I-2
I-1
I-1
I-4
I-2
I-1
I-1
I2
tp62
a(I1
I3
I-1
I-2
I-2
I-4
I0
I0
tp63
a(I-1
I1
I-2
I0
I-1
I-2
I-1
I0
tp64
a(I-1
I0
I1
I3
I-4
I3
I-1
I2
tp65
a(I1
I-4
I3
I1
I-5
I-2
I-1
I-2
tp66
a(I1
I-2
I0
I-1
I2
I2
I1
I-1
tp67
a(I-2
I2
I-2
I-3
I1
I0
I-2
I1
tp68
a(I1
I0
I2
I-9
I0
I-2
I-1
I-2
tp69
a(I-1
I-1
I1
I2
I-4
I1
I-1
I-1
tp70
a(I-1
I-2
I-1
I-2
I-2
I-2
I-2
I-2
tp71
a(I0
I-2
I2
I-1
I2
I0
I0
I-1
tp72
a(I0
I-1
I-1
I2
I0
I1
I-2
I-2
tp73
a(I0
I-3
I-1
I-3
I1
I-3
I-2
I1
tp74
a(I-1
I-2
I-3
I-1
I-1
I-2
I2
I0
tp75
a(I0
I-1
I-2
I-5
I-1
I0
I-1
I-2
tp76
a(I-2
I1
I0
I1
I-2
I1
I-2
I0
tp77
a(I-1
I1
I-1
I2
I-2
I-3
I-1
I1
tp78
a(I-2
I-2
I-2
I-3
I-1
I0
I0
I0
tp79
a(I-2
I-2
I0
I-4
I-4
I-1
I0
I1
tp80
a(I1
I0
I-2
I3
I-1
I-4
I-2
I-3
tp81
a(I0
I0
I0
I-7
I1
I3
I-2
I-1
tp82
a(I0
I-2
I-2
I3
I0
I-2
I0
I-2
tp83
a(I-2
I3
I0
I-3
I-3
I0
I3
I0
tp84
a(I1
I2
I0
I-2
I-1
I-3
I-1
I0
tp85
a(I-1
I-5
I1
I3
I-2
I0
I-2
I2
tp86
a(I-2
I-2
I0
I-2
I2
I-1
I2
I-1
tp87
a(I-1
I0
I-1
I-2
I1
I0
I1
I1
tp88
a(I-1
I-2
I1
I-5
I-1
I1
I-2
I1
tp89
a(I1
I0
I2
I0
I0
I-3
I-2
I0
tp90
a(I-2
I-1
I0
I-3
I3
I1
I-2
I-1
tp91
a(I0
I1
I3
I-2
I0
I-6
I-1
I-2
tp92
a(I-2
I-1
I0
I6
I-2
I1
I-1
I-4
tp93
a(I0
I-1
I-3
I-1
I-2
I-3
I0
I-1
tp94
a(I0
I-2
I-3
I-4
I-1
I0
I-2
I1
tp95
a(I0
I1
I-1
I-5
I-2
I0
I0
I-3
tp96
a(I-1
I0
I1
I0
I-2
I-1
I0
I1
tp97
a(I1
I-3
I0
I4
I-1
I1
I-1
I-1
tp98
a(I1
I-1
I-2
I2
I1
I1
I-1
I-1
tp99
a(I-2
I1
I-1
I-2
I-3
I-2
I2
I-1
tp100
a(I-1
I0
I3
I-1
I0
I-1
I1
I-1
tp101
a(I-1
I-2
I1
I1
I0
I2
I-3
I0
tp102
a(I1
I0
I-1
I2
I-1
I2
I-1
I-4
tp103
a(I-4
I-1
I0
I0
I-1
I-1
I1
I1
tp104
a(I-3
I0
I-3
I2
I0
I-2
I-2
I-1
tp105
a(I-2
I-2
I-1
I3
I-1
I-1
I1
I-1
tp106
a(I1
I0
I-2
I0
I-2
I1
I-2
I2
tp107
a(I1
I-3
I0
I-2
I0
I1
I-3
I-3
tp108
a(I-2
I0
I-1
I-2
I-3
I-1
I2
I-3
tp109
a(I0
I-1
I1
I-3
I-3
I2
I-4
I1
tp110
a(I-1
I-1
I-2
I-3
I2
I-4
I-1
I-2
tp111
a(I1
I-1
I-2
I-2
I-2
I1
I-2
I-2
tp112
a(I-2
I-2
I-3
I-2
I3
I-3
I1
I-2
tp113
a(I0
I1
I0
I-3
I-5
I-1
I1
I0
tp114
a(I-2
I0
I-3
I0
I-2
I0
I0
I-2
tp115
a(I-2
I-2
I2
I2
I-1
I1
I0
I0
tp116
a(I-1
I0
I-2
I0
I-3
I-1
I0
I-2
tp117
a(I0
I-2
I0
I-2
I-1
I0
I-1
I-3
tp118
a(I0
I-2
I-4
I-5
I-1
I3
I-2
I3
tp119
a(I-2
I2
I2
I0
I-4
I-4
I2
I-1
tp120
a(I1
I4
I-1
I0
I-2
I-2
I-1
I0
tp121
a(I-2
I-3
I0
I-2
I-2
I0
I-1
I1
tp122
a(I-1
I-1
I0
I-2
I3
I-2
I-2
I0
tp123
a(I-1
I0
I3
I-5
I-3
I2
I1
I-3
tp124
a(I-1
I-1
I1
I1
I0
I0
I-1
I-1
tp125
a(I0
I-1
I1
I-5
I3
I0
I-1
I-1
tp126
a(I1
I1
I-5
I-3
I-1
I-1
I-1
I1
tp127
a(I-2
I0
I3
I-3
I-1
I-2
I-2
I1
tp128
a(I-1
I1
I-2
I-4
I-2
I0
I-1
I-3
tp129
a(I0
I-2
I0
I2
I-2
I0
I-3
I1
tp130
a(I-2
I-1
I-3
I1
I1
I-3
I1
I-5
tp131
a(I0
I-3
I0
I1
I-5
I0
I-1
I1
tp132
a(I1
I-1
I-2
I-7
I0
I-1
I-1
I1
tp133
a(I-3
I-1
I3
I0
I-3
I-1
I-3
I1
tp134
a(I-1
I-4
I0
I2
I-4
I-2
I1
I-2
tp135
a(I-2
I0
I-1
I-4
I1
I-1
I-4
I-1
tp136
a(I1
I-3
I-3
I1
I-1
I2
I2
I-2
tp137
a(I0
I0
I2
I-1
I-1
I-2
I-2
I-2
tp138
a(I-1
I1
I0
I-1
I-5
I0
I3
I1
tp139
a(I0
I-2
I-3
I2
I-2
I-1
I0
I-1
tp140
a(I-1
I2
I0
I-4
I1
I5
I-1
I1
tp141
a(I1
I1
I5
I-1
I-2
I-1
I0
I0
tp142
a(I0
I-5
I-1
I0
I2
I-1
I-2
I0
tp143
a(I-3
I0
I0
I3
I-3
I-1
I-1
I-2
tp144
a(I0
I0
I1
I-3
I3
I0
I-2
I-1
tp145
a(I0
I1
I1
I-3
I-1
I1
I-3
I1
tp146
a(I0
I-2
I-2
I0
I1
I1
I-1
I-1
tp147
a(I0
I0
I1
I-1
I-1
I-1
I0
I-1
tp148
a(I-2
I0
I0
I-5
I-2
I3
I0
I-1
tp149
a(I-1
I-2
I-2
I-5
I1
I0
I1
I-2
tp150
a(I0
I-1
I2
I2
I-2
I-2
I-1
I-1
tp151
a(I3
I-1
I1
I-5
I-5
I-1
I-4
I2
tp152
a(I-3
I0
I3
I0
I1
I-1
I-3
I-4
tp153
a(I0
I2
I0
I-2
I2
I-1
I-1
I-2
tp154
a(I0
I1
I-2
I2
I-1
I2
I2
I1
tp155
a(I-1
I-2
I1
I-3
I-3
I0
I-1
I-2
tp156
a(I-1
I-1
I0
I-1
I0
I-2
I1
I1
tp157
a(I0
I-1
I-4
I-1
I-1
I-4
I-1
I1
tp158
a(I-2
I-3
I1
I2
I0
I0
I1
I-1
tp159
a(I-2
I0
I1
I-2
I-2
I-1
I-1
I0
tp160
a(I0
I-2
I-1
I1
I-3
I1
I-1
I-2
tp161
a(I-1
I-4
I0
I1
I2
I-1
I1
I1
tp162
a(I-1
I0
I-1
I-6
I-3
I-2
I0
I0
tp163
a(I0
I-1
I1
I1
I-7
I-4
I0
I0
tp164
a(I-1
I0
I-2
I1
I1
I0
I-3
I-1
tp165
a(I0
I0
I1
I-1
I-3
I2
I-1
I0
tp166
a(I-3
I1
I-2
I-2
I-4
I-1
I-1
I3
tp167
a(I0
I0
I0
I-2
I0
I-2
I-3
I-1
tp168
a(I2
I1
I-1
I4
I1
I0
I-2
I2
tp169
a(I-1
I-3
I0
I-1
I0
I-1
I-1
I0
tp170
a(I-2
I4
I-2
I2
I2
I-1
I-2
I2
tp171
a(I-2
I-1
I5
I-5
I-1
I2
I0
I-3
tp172
a(I0
I-2
I2
I-2
I-2
I0
I0
I0
tp173
a(I-1
I-1
I-2
I3
I2
I-3
I-1
I3
tp174
a(I0
I-2
I-3
I-2
I-2
I3
I0
I-3
tp175
a(I-1
I-2
I5
I-6
I-1
I3
I1
I-1
tp176
a(I-1
I-1
I-1
I-1
I-3
I-1
I-1
I2
tp177
a(I-3
I-2
I-8
I-3
I1
I1
I-1
I-2
tp178
a(I2
I-2
I0
I0
I3
I-4
I1
I-1
tp179
a(I-3
I0
I1
I-4
I-2
I-3
I-1
I-1
tp180
a(I0
I0
I-1
I2
I1
I0
I-2
I-3
tp181
a(I-2
I2
I1
I-5
I-6
I-1
I-1
I1
tp182
a(I0
I0
I2
I-5
I1
I-4
I2
I0
tp183
a(I-1
I1
I-4
I-2
I-1
I0
I-1
I-2
tp184
a(I0
I-1
I-2
I-3
I-1
I-2
I2
I-1
tp185
a(I0
I-4
I2
I2
I-3
I-1
I0
I-2
tp186
a(I-1
I-3
I-1
I-1
I-2
I-1
I-2
I-1
tp187
a(I-2
I-1
I2
I3
I0
I2
I0
I0
tp188
a(I-3
I4
I-1
I-3
I1
I-2
I0
I-3
tp189
a(I-2
I-1
I3
I-8
I-4
I0
I-2
I-1
tp190
a(I0
I-2
I-1
I-3
I-2
I0
I-1
I0
tp191
a(I0
I0
I0
I-1
I3
I-1
I-1
I1
tp192
a(I0
I-1
I-1
I-2
I0
I-2
I-3
I-2
tp193
a(I1
I-3
I0
I0
I0
I3
I-1
I1
tp194
a(I0
I-2
I0
I4
I1
I-1
I-3
I-2
tp195
a(I0
I0
I4
I-5
I-6
I-2
I0
I-3
tp196
a(I-2
I-1
I-1
I-3
I-2
I-3
I0
I-1
tp197
a(I2
I-1
I-5
I-1
I1
I0
I-2
I-2
tp198
a(I0
I-2
I-2
I-5
I0
I3
I1
I3
tp199
a(I-2
I-3
I4
I-4
I-4
I0
I-1
I-2
tp200
a(I-2
I1
I-2
I-3
I-3
I-1
I-2
I-2
tp201
a(I1
I-1
I-4
I0
I-1
I-1
I1
I-2
tp202
a(I1
I2
I-3
I-1
I1
I-1
I-2
I1
tp203
a(I1
I-1
I2
I-3
I-6
I-2
I2
I0
tp204
a(I-1
I-4
I-5
I0
I2
I2
I-1
I-3
tp205
a(I0
I0
I7
I-3
I-8
I-1
I0
I2
tp206
a(I-3
I2
I8
I-1
I-2
I2
I0
I-3
tp207
a(I0
I3
I1
I-3
I2
I-1
I-2
I-1
tp208
a(I-1
I-1
I-1
I4
I-1
I-3
I-1
I-1
tp209
a(I-2
I-4
I2
I-1
I-1
I-1
I-2
I-4
tp210
a(I1
I-2
I0
I0
I-4
I0
I2
I1
tp211
a(I-1
I-2
I-2
I-2
I0
I-2
I0
I-1
tp212
a(I-1
I-1
I0
I-2
I-2
I0
I1
I-1
tp213
a(I1
I-1
I4
I-4
I-3
I0
I-3
I3
tp214
a(I0
I-3
I2
I-2
I-3
I-1
I-1
I-2
tp215
a(I-3
I-1
I-3
I0
I-2
I-3
I-2
I-3
tp216
a(I-2
I0
I0
I1
I-3
I1
I0
I1
tp217
a(I-1
I1
I-1
I-2
I1
I-3
I-1
I-1
tp218
a(I-2
I-1
I0
I1
I1
I-1
I2
I0
tp219
a(I0
I0
I0
I0
I-5
I0
I-3
I-2
tp220
a(I-1
I1
I0
I-5
I-1
I1
I-1
I-2
tp221
a(I0
I1
I-1
I0
I0
I1
I-1
I1
tp222
a(I0
I-1
I2
I-3
I-3
I-2
I0
I0
tp223
a(I-2
I2
I0
I-3
I-4
I-2
I0
I-1
tp224
a(I1
I-2
I3
I1
I-1
I1
I-1
I2
tp225
a(I0
I-2
I-5
I3
I2
I0
I-1
I-3
tp226
a(I0
I-3
I-3
I-4
I-2
I2
I1
I1
tp227
a(I-2
I1
I4
I1
I-4
I-3
I1
I0
tp228
a(I0
I-2
I1
I4
I0
I0
I-2
I-1
tp229
a(I-3
I-2
I1
I-1
I-1
I1
I-2
I-2
tp230
a(I-1
I-1
I1
I-1
I-1
I-3
I-2
I3
tp231
a(I-1
I0
I3
I1
I-1
I1
I0
I1
tp232
a(I0
I2
I-7
I1
I0
I-3
I-1
I-3
tp233
a(I-1
I-1
I0
I0
I-4
I1
I0
I1
tp234
a(I-1
I-3
I0
I0
I-2
I2
I0
I-1
tp235
a(I-2
I-1
I1
I-1
I2
I2
I0
I-1
tp236
a(I0
I0
I-2
I0
I-1
I1
I-1
I0
tp237
a(I-2
I-2
I2
I-2
I-5
I-2
I0
I0
tp238
a(I-1
I-3
I-3
I4
I-4
I2
I-3
I0
tp239
a(I0
I-1
I-1
I1
I-1
I-4
I1
I0
tp240
a(I1
I0
I-1
I0
I-4
I1
I-1
I1
tp241
a(I0
I-1
I-6
I6
I0
I0
I-3
I-2
tp242
a(I-2
I-1
I-8
I2
I3
I-3
I-1
I-2
tp243
a(I-2
I-2
I0
I-2
I0
I-2
I-1
I-2
tp244
a(I-2
I-2
I1
I-1
I-1
I-3
I-1
I-1
tp245
a(I-1
I0
I-3
I-1
I1
I-3
I2
I-1
tp246
a(I-2
I1
I-2
I0
I1
I2
I-1
I-1
tp247
a(I-2
I-3
I-1
I-4
I-3
I2
I-4
I0
tp248
a(I-2
I-2
I0
I-2
I-3
I1
I-2
I2
tp249
a(I1
I1
I-4
I-2
I1
I-3
I0
I1
tp250
a(I1
I-3
I-4
I-1
I2
I-2
I0
I-3
tp251
a(I0
I-3
I1
I-1
I-1
I0
I0
I-2
tp252
a(I-3
I-1
I-2
I0
I1
I-1
I-3
I1
tp253
a(I0
I-2
I6
I1
I-5
I-1
I1
I0
tp254
a(I0
I0
I0
I-4
I-3
I-1
I-1
I-5
tp255
a(I0
I0
I-5
I-2
I2
I0
I-1
I-1
tp256
a(I0
I0
I-1
I-3
I1
I-1
I-2
I0
tp257
a(I0
I-1
I0
I-2
I-3
I3
I-2
I0
tp258
a(I0
I0
I2
I-2
I-2
I-1
I-1
I-3
tp259
a(I-2
I-4
I-4
I-1
I-1
I3
I0
I1
tp260
a(I-2
I0
I-3
I2
I0
I-2
I-1
I2
tp261
a(I1
I-1
I2
I-1
I-3
I-4
I-2
I0
tp262
a(I-1
I0
I2
I-2
I-2
I-3
I1
I1
tp263
a(I-1
I0
I-6
I-1
I-2
I3
I2
I0
tp264
a(I-3
I1
I-2
I0
I-2
I-3
I-2
I0
tp265
a(I0
I-2
I-1
I0
I1
I-2
I0
I0
tp266
a(I0
I0
I-6
I3
I-3
I1
I0
I-2
tp267
a(I-3
I-1
I1
I1
I0
I-1
I-1
I2
tp268
a(I0
I-1
I0
I0
I-3
I-1
I-2
I-2
tp269
a(I0
I0
I-5
I2
I-3
I-1
I-2
I-1
tp270
a(I0
I1
I0
I-3
I5
I2
I2
I-3
tp271
a(I-2
I0
I2
I-2
I1
I3
I-2
I0
tp272
a(I-1
I1
I0
I-3
I0
I-2
I1
I-2
tp273
a(I0
I0
I-3
I0
I0
I-1
I-2
I0
tp274
a(I-2
I0
I-6
I3
I1
I-1
I2
I-1
tp275
a(I-2
I1
I2
I-5
I-3
I-1
I-3
I3
tp276
a(I0
I-3
I-3
I1
I-2
I-1
I-1
I3
tp277
a(I-2
I-1
I2
I-2
I-2
I-3
I-2
I-1
tp278
a(I-1
I-2
I-1
I-5
I-3
I0
I-1
I0
tp279
a(I0
I-3
I0
I5
I-1
I-4
I-4
I0
tp280
a(I1
I-1
I0
I-3
I1
I4
I0
I2
tp281
a(I1
I0
I1
I1
I-4
I-2
I0
I0
tp282
a(I0
I-2
I1
I-4
I-1
I0
I-3
I3
tp283
a(I0
I2
I-2
I0
I0
I1
I2
I-2
tp284
a(I2
I0
I-4
I0
I1
I3
I-1
I-3
tp285
a(I-1
I-4
I3
I0
I-5
I-3
I1
I-4
tp286
a(I0
I-2
I1
I2
I-2
I-1
I-5
I-2
tp287
a(I0
I-1
I-4
I-1
I1
I1
I0
I1
tp288
a(I-1
I-1
I1
I-1
I-2
I-1
I0
I-2
tp289
a(I1
I0
I-2
I-1
I0
I0
I0
I0
tp290
a(I0
I-2
I-4
I-2
I1
I-3
I-3
I-2
tp291
a(I-2
I-3
I1
I0
I1
I-1
I-1
I0
tp292
a(I-2
I-2
I3
I-4
I-2
I-1
I2
I-1
tp293
a(I-1
I1
I-3
I-5
I-1
I-2
I-3
I2
tp294
a(I1
I-2
I0
I1
I-1
I1
I0
I-1
tp295
a(I0
I-1
I2
I-1
I-2
I1
I-3
I-2
tp296
a(I1
I-1
I-2
I2
I2
I-1
I0
I-2
tp297
a(I-1
I1
I4
I0
I-5
I0
I0
I-1
tp298
a(I-2
I1
I3
I0
I-2
I0
I-3
I1
tp299
a(I1
I-2
I-2
I2
I-3
I-3
I-1
I-3
tp300
a(I0
I-1
I-2
I3
I1
I-1
I-2
I1
tp301
a(I-2
I1
I2
I2
I-5
I2
I-1
I1
tp302
a(I-2
I-2
I2
I-4
I-2
I-3
I-2
I-1
tp303
a(I0
I-1
I-2
I-3
I1
I2
I1
I-3
tp304
a(I-2
I-1
I-3
I3
I0
I1
I-2
I1
tp305
a(I-1
I-2
I-2
I0
I-1
I-1
I-1
I-1
tp306
a(I-1
I-3
I6
I-2
I-2
I-3
I-1
I1
tp307
a(I-1
I-4
I2
I0
I-1
I-1
I-1
I-2
tp308
a(I-2
I0
I-4
I2
I-6
I-2
I1
I3
tp309
a(I-3
I2
I-5
I-2
I1
I-2
I2
I0
tp310
a(I0
I0
I-1
I-4
I0
I-2
I-2
I-1
tp311
a(I-1
I-2
I3
I2
I-1
I-2
I1
I-1
tp312
a(I0
I-1
I-2
I0
I0
I3
I0
I-4
tp313
a(I-1
I-1
I-1
I-1
I-6
I-1
I0
I1
tp314
a(I-1
I3
I-1
I3
I0
I1
I-2
I-2
tp315
a(I0
I-3
I4
I1
I1
I-4
I0
I3
tp316
a(I-1
I-3
I2
I-2
I-6
I-1
I-3
I0
tp317
a(I1
I-2
I-3
I4
I-1
I-1
I1
I0
tp318
a(I1
I-1
I-3
I-2
I-1
I0
I0
I0
tp319
a(I-3
I-1
I5
I-2
I1
I-1
I-1
I-1
tp320
a(I1
I1
I-3
I-2
I0
I1
I2
I0
tp321
a(I-1
I0
I-2
I-2
I0
I-1
I0
I-2
tp322
a(I-3
I0
I3
I-4
I-1
I-2
I0
I1
tp323
a(I1
I-1
I-2
I-1
I4
I-3
I1
I0
tp324
a(I-2
I1
I-5
I-2
I2
I2
I0
I-1
tp325
a(I-3
I-2
I-2
I-4
I-4
I1
I-3
I-2
tp326
a(I-1
I-1
I2
I0
I1
I-1
I-2
I0
tp327
a(I-1
I-2
I3
I1
I0
I2
I0
I0
tp328
a(I-1
I-1
I-2
I-1
I1
I-4
I3
I0
tp329
a(I-3
I0
I-4
I0
I2
I2
I0
I-2
tp330
a(I-1
I-3
I0
I-1
I-2
I-2
I-2
I-2
tp331
a(I-2
I3
I0
I0
I0
I0
I-4
I-2
tp332
a(I2
I-2
I-2
I-2
I-3
I-2
I-1
I0
tp333
a(I2
I-2
I2
I-5
I1
I-2
I0
I0
tp334
a(I-1
I-2
I-3
I-2
I1
I-2
I0
I-1
tp335
a(I-1
I0
I-3
I0
I1
I-2
I-3
I0
tp336
a(I0
I-1
I4
I-2
I0
I1
I0
I0
tp337
a(I0
I-1
I-6
I1
I-1
I2
I0
I1
tp338
a(I-1
I-2
I0
I-3
I-4
I-2
I-1
I-4
tp339
a(I1
I-4
I-1
I-1
I-4
I3
I1
I2
tp340
a(I-1
I-2
I2
I-3
I1
I1
I-2
I-4
tp341
a(I-2
I2
I0
I1
I-3
I-2
I-1
I-1
tp342
a(I1
I1
I-1
I-1
I0
I3
I1
I-2
tp343
a(I-1
I-1
I2
I0
I2
I2
I-4
I-1
tp344
a(I-1
I0
I1
I1
I-2
I-4
I0
I4
tp345
a(I-1
I0
I-3
I-7
I0
I-1
I-1
I0
tp346
a(I0
I-2
I0
I3
I-1
I-1
I0
I-3
tp347
a(I0
I-1
I1
I-4
I-2
I-3
I-3
I-1
tp348
a(I-2
I-2
I0
I2
I1
I0
I1
I0
tp349
a(I-1
I-1
I-3
I-2
I-2
I-1
I-2
I0
tp350
a(I-4
I-1
I4
I-1
I-4
I2
I0
I1
tp351
a(I-3
I0
I-1
I-3
I-1
I-1
I-1
I0
tp352
a(I-1
I0
I0
I-3
I-2
I1
I-1
I0
tp353
a(I-1
I2
I0
I-1
I-1
I-1
I3
I1
tp354
a(I1
I-1
I1
I-4
I-2
I-5
I-2
I2
tp355
a(I0
I-2
I0
I2
I-1
I0
I0
I-1
tp356
a(I-1
I-2
I1
I1
I-4
I0
I-2
I1
tp357
a(I1
I0
I2
I0
I-3
I1
I1
I0
tp358
a(I-8
I14
I111
I-64
I-85
I59
I43
I40
tp359
a(I-23
I3
I84
I-32
I-53
I20
I10
I15
tp360
a(I-24
I-2
I40
I-13
I-24
I3
I-2
I3
tp361
a(I-16
I-9
I-32
I27
I20
I-19
I-19
I-16
tp362
a(I-5
I-12
I-40
I22
I11
I-28
I-20
I-17
tp363
a(I-3
I-10
I-18
I9
I1
I-15
I-12
I-9
tp364
a(I-5
I-8
I-14
I10
I6
I-14
I-12
I-9
tp365
a(I0
I-1
I-26
I10
I9
I-5
I-2
I-1
tp366
a(I1
I-2
I-24
I6
I10
I-15
I-8
I-9
tp367
a(I-1
I-2
I-5
I-4
I-3
I-3
I-1
I-2
tp368
a(I-2
I-6
I-6
I1
I0
I-8
I-6
I-3
tp369
a(I3
I2
I-7
I2
I0
I5
I7
I1
tp370
a(I1
I-2
I-10
I2
I6
I-4
I-4
I0
tp371
a(I0
I-1
I-5
I-1
I1
I-10
I-7
I-3
tp372
a(I-2
I-1
I4
I-3
I-7
I2
I-2
I1
tp373
a(I2
I3
I-5
I-2
I-1
I8
I5
I4
tp374
a(I0
I-3
I-4
I5
I2
I-9
I-6
I-5
tp375
a(I-1
I-1
I3
I-4
I-4
I0
I-3
I-1
tp376
a(I-2
I0
I8
I-5
I-7
I4
I0
I1
tp377
a(I-2
I0
I-4
I-3
I2
I4
I5
I0
tp378
a(I0
I-3
I-3
I4
I2
I-9
I-5
I-5
tp379
a(I-1
I-4
I2
I0
I-5
I1
I-1
I1
tp380
a(I-1
I-1
I4
I-3
I-4
I4
I0
I1
tp381
a(I-2
I2
I-6
I2
I3
I-4
I-1
I0
tp382
a(I-2
I2
I2
I0
I-2
I-1
I0
I0
tp383
a(I-1
I0
I-1
I3
I4
I-1
I1
I2
tp384
a(I-2
I-1
I-2
I0
I-1
I0
I1
I-2
tp385
a(I-1
I0
I3
I-1
I-4
I-3
I0
I0
tp386
a(I-1
I0
I-2
I-2
I0
I-1
I-3
I-2
tp387
a(I1
I-1
I-2
I-2
I1
I2
I4
I0
tp388
a(I-1
I-2
I3
I-4
I-1
I1
I-3
I-1
tp389
a(I-3
I-2
I-1
I-1
I2
I-3
I-1
I-2
tp390
a(I-1
I0
I1
I-3
I-1
I1
I0
I2
tp391
a(I0
I-1
I-1
I2
I-1
I2
I0
I-1
tp392
a(I-1
I-2
I5
I-3
I-2
I0
I-3
I0
tp393
a(I-2
I-3
I3
I1
I-3
I3
I1
I-2
tp394
a(I-2
I1
I-3
I0
I-1
I-1
I0
I-1
tp395
a(I-1
I-2
I1
I-3
I-1
I-2
I-1
I1
tp396
a(I0
I0
I1
I-3
I-5
I-3
I-2
I0
tp397
a(I0
I0
I0
I-2
I-2
I-1
I-1
I1
tp398
a(I0
I-3
I-3
I1
I1
I-2
I-2
I-1
tp399
a(I-1
I1
I1
I0
I-3
I-1
I-5
I1
tp400
a(I-2
I-3
I0
I1
I1
I0
I1
I1
tp401
a(I-1
I1
I-2
I-1
I-2
I2
I0
I0
tp402
a(I-1
I0
I4
I-4
I0
I0
I-1
I2
tp403
a(I-1
I-1
I3
I-3
I-2
I-3
I-2
I-1
tp404
a(I-1
I0
I-1
I1
I2
I-4
I0
I-1
tp405
a(I0
I-1
I0
I-3
I0
I0
I1
I0
tp406
a(I-2
I-1
I-2
I2
I-2
I2
I0
I1
tp407
a(I1
I-1
I-1
I-1
I1
I-3
I1
I-1
tp408
a(I0
I-5
I-4
I2
I-3
I0
I0
I1
tp409
a(I-1
I0
I0
I-3
I-2
I-4
I-1
I-2
tp410
a(I2
I2
I-3
I-2
I0
I0
I0
I-1
tp411
a(I0
I0
I-2
I-3
I1
I0
I0
I-2
tp412
a(I0
I-2
I-2
I4
I-2
I-1
I-1
I1
tp413
a(I1
I-2
I0
I2
I0
I3
I-2
I0
tp414
a(I0
I-2
I0
I1
I-3
I-2
I-1
I1
tp415
a(I0
I-2
I-2
I-3
I1
I-3
I-2
I-5
tp416
a(I-4
I2
I1
I-1
I-2
I0
I0
I-1
tp417
a(I-1
I0
I2
I-7
I1
I0
I1
I1
tp418
a(I-1
I-1
I4
I-2
I1
I1
I-2
I-1
tp419
a(I-1
I-2
I3
I-5
I-4
I0
I-1
I-4
tp420
a(I1
I-2
I-2
I-2
I-3
I1
I-1
I-2
tp421
a(I-1
I1
I0
I-2
I1
I-1
I-1
I0
tp422
a(I-1
I-4
I-5
I-2
I0
I-1
I-1
I2
tp423
a(I-4
I1
I-2
I4
I-2
I1
I0
I-2
tp424
a(I-2
I-2
I2
I-5
I0
I-4
I1
I-3
tp425
a(I1
I0
I1
I1
I-1
I1
I-2
I-1
tp426
a(I-1
I0
I1
I-1
I-1
I-1
I0
I0
tp427
a(I1
I0
I1
I-2
I-2
I-1
I-1
I1
tp428
a(I0
I1
I-1
I0
I1
I-3
I-1
I0
tp429
a(I0
I0
I-2
I-2
I1
I-1
I-1
I1
tp430
a(I-1
I0
I-2
I-2
I-3
I0
I1
I-1
tp431
a(I3
I-4
I-1
I-3
I-1
I-1
I0
I-1
tp432
a(I0
I-1
I-3
I0
I-1
I-4
I-2
I0
tp433
a(I0
I0
I3
I-1
I-3
I1
I0
I2
tp434
a(I0
I0
I-3
I-2
I-2
I-1
I0
I-1
tp435
a(I-1
I2
I-2
I-1
I2
I0
I2
I-2
tp436
a(I0
I-1
I1
I0
I-3
I2
I-3
I-3
tp437
a(I1
I-2
I3
I2
I1
I-3
I-2
I-2
tp438
a(I-3
I-1
I-1
I0
I0
I-1
I-1
I1
tp439
a(I-2
I1
I-1
I-5
I-1
I2
I-2
I0
tp440
a(I-1
I0
I1
I3
I0
I3
I0
I-2
tp441
a(I-2
I-1
I2
I0
I-4
I-3
I-1
I-1
tp442
a(I-1
I0
I3
I0
I1
I-5
I-1
I0
tp443
a(I0
I0
I0
I0
I0
I0
I1
I-1
tp444
a(I1
I-1
I-1
I-2
I-1
I1
I-1
I-4
tp445
a(I-1
I-3
I-4
I0
I-2
I1
I0
I-2
tp446
a(I-2
I0
I1
I3
I2
I2
I-2
I1
tp447
a(I-1
I-1
I-1
I0
I-2
I-3
I-1
I-1
tp448
a(I0
I-2
I1
I0
I-3
I-4
I-2
I0
tp449
a(I0
I-2
I-3
I1
I1
I-1
I2
I0
tp450
a(I-3
I-2
I-1
I-3
I-1
I1
I-3
I1
tp451
a(I1
I-2
I-2
I-1
I1
I-2
I0
I0
tp452
a(I-3
I1
I-3
I2
I-1
I-1
I1
I1
tp453
a(I1
I0
I2
I-4
I-1
I-1
I-1
I-1
tp454
a(I1
I0
I-5
I-1
I0
I-1
I0
I-1
tp455
a(I-1
I-2
I-1
I1
I-3
I-1
I-1
I0
tp456
a(I0
I-1
I0
I-4
I1
I1
I1
I0
tp457
a(I0
I0
I1
I-1
I-4
I-1
I0
I-3
tp458
a(I1
I-1
I2
I-2
I1
I-1
I0
I0
tp459
a(I0
I1
I-4
I3
I-2
I0
I0
I-3
tp460
a(I-3
I-2
I-4
I-2
I1
I-3
I0
I2
tp461
a(I-2
I-1
I0
I1
I-2
I1
I-2
I2
tp462
a(I-1
I-2
I2
I1
I0
I1
I-1
I0
tp463
a(I0
I1
I-3
I-2
I-2
I-3
I-2
I4
tp464
a(I-3
I1
I-7
I2
I0
I-2
I1
I-1
tp465
a(I-1
I0
I-2
I0
I0
I0
I2
I1
tp466
a(I1
I0
I2
I0
I0
I3
I-3
I-1
tp467
a(I-1
I0
I2
I-1
I-2
I-4
I-1
I1
tp468
a(I2
I-1
I-1
I3
I0
I2
I-2
I0
tp469
a(I-1
I-2
I-5
I0
I1
I-1
I3
I-4
tp470
a(I-2
I-1
I-2
I-4
I0
I-2
I-3
I1
tp471
a(I-2
I-2
I-4
I-4
I1
I0
I-2
I-3
tp472
a(I-1
I-3
I1
I-2
I0
I-1
I-1
I1
tp473
a(I-1
I2
I1
I0
I0
I2
I-2
I0
tp474
a(I0
I-2
I2
I0
I-3
I-1
I0
I0
tp475
a(I-2
I0
I-1
I-4
I-1
I-1
I0
I-1
tp476
a(I-1
I-1
I-3
I-2
I-1
I-3
I1
I2
tp477
a(I1
I-3
I1
I-4
I1
I0
I1
I-2
tp478
a(I-3
I1
I0
I-1
I0
I-2
I1
I-2
tp479
a(I-2
I-2
I-1
I-1
I-2
I-1
I-3
I-1
tp480
a(I0
I0
I-3
I0
I2
I-1
I-1
I-2
tp481
a(I1
I-2
I-1
I1
I-3
I2
I0
I2
tp482
a(I2
I-2
I2
I-3
I0
I0
I-3
I-1
tp483
a(I0
I3
I0
I-3
I-6
I-1
I-2
I-2
tp484
a(I-2
I0
I-1
I-5
I-2
I0
I0
I1
tp485
a(I3
I-1
I-1
I-4
I0
I0
I-3
I2
tp486
a(I-1
I0
I0
I1
I3
I-1
I2
I-1
tp487
a(I0
I-2
I2
I1
I0
I-3
I0
I2
tp488
a(I0
I-1
I0
I-3
I2
I-1
I-2
I-1
tp489
a(I1
I0
I-2
I-3
I-3
I-2
I-3
I0
tp490
a(I-1
I-1
I-2
I-2
I-5
I1
I-1
I-3
tp491
a(I-1
I0
I0
I-2
I2
I0
I2
I2
tp492
a(I-2
I-1
I-2
I-2
I0
I-1
I-2
I-1
tp493
a(I-1
I-3
I0
I-1
I0
I1
I3
I4
tp494
a(I1
I-1
I1
I1
I-3
I1
I-3
I2
tp495
a(I0
I0
I1
I-1
I-1
I1
I1
I-1
tp496
a(I-1
I-3
I0
I1
I0
I0
I-1
I1
tp497
a(I1
I-2
I3
I-3
I-3
I-3
I-1
I-1
tp498
a(I-2
I2
I-2
I-7
I0
I0
I-1
I-1
tp499
a(I1
I-2
I5
I-1
I-3
I0
I0
I0
tp500
a(I1
I-2
I2
I-3
I-3
I-2
I-2
I-1
tp501
a(I0
I-2
I0
I-3
I-3
I2
I0
I0
tp502
a(I0
I0
I0
I-1
I-3
I-3
I-2
I-4
tp503
a(I-1
I0
I3
I0
I-1
I2
I0
I-2
tp504
a(I0
I1
I-2
I0
I-4
I-2
I1
I1
tp505
a(I-3
I-2
I-2
I3
I-5
I-1
I1
I-1
tp506
a(I-2
I0
I-2
I-3
I-2
I-4
I1
I0
tp507
a(I-1
I0
I1
I1
I-2
I-3
I0
I-2
tp508
a(I-1
I-1
I3
I-1
I-1
I0
I0
I2
tp509
a(I-2
I0
I1
I-1
I-2
I-5
I-1
I-2
tp510
a(I1
I0
I-1
I0
I2
I1
I-1
I1
tp511
a(I-1
I-2
I-1
I-1
I-4
I1
I-2
I0
tp512
a(I-2
I-1
I-2
I-2
I-5
I0
I2
I2
tp513
a(I0
I0
I0
I0
I-3
I-2
I0
I0
tp514
a(I0
I-3
I3
I3
I0
I-3
I0
I1
tp515
a(I-1
I-1
I-1
I-1
I-3
I0
I1
I-3
tp516
a(I0
I1
I-9
I3
I-1
I-2
I-1
I-1
tp517
a(I0
I-1
I3
I1
I0
I-3
I-4
I-1
tp518
a(I-1
I-2
I1
I0
I-2
I-1
I0
I-2
tp519
a(I-2
I0
I1
I-1
I2
I-3
I-2
I0
tp520
a(I1
I0
I-3
I1
I-2
I0
I-1
I-1
tp521
a(I1
I-3
I-3
I0
I-1
I0
I3
I0
tp522
a(I-1
I0
I-4
I2
I0
I1
I-2
I0
tp523
a(I0
I-2
I2
I-3
I-1
I-1
I-2
I0
tp524
a(I-3
I0
I2
I3
I-1
I2
I0
I-1
tp525
a(I-2
I-3
I-5
I0
I-3
I-3
I0
I-1
tp526
a(I0
I-1
I1
I1
I-2
I0
I-1
I3
tp527
a(I0
I0
I-1
I3
I0
I0
I-3
I-1
tp528
a(I0
I0
I1
I-2
I0
I-2
I-1
I-1
tp529
a(I0
I0
I-1
I-3
I-2
I-1
I1
I-1
tp530
a(I-2
I0
I-2
I-2
I1
I-1
I0
I-2
tp531
a(I0
I-3
I-1
I2
I0
I0
I-1
I0
tp532
a(I0
I-3
I-4
I0
I0
I-2
I-1
I-2
tp533
a(I1
I-3
I-1
I-2
I-3
I0
I0
I-1
tp534
a(I-2
I0
I-5
I-4
I1
I-3
I0
I-2
tp535
a(I-5
I-1
I1
I-2
I-1
I-2
I0
I-1
tp536
a(I1
I-2
I-3
I2
I0
I-1
I0
I-2
tp537
a(I-2
I-3
I0
I-4
I-3
I-1
I0
I-1
tp538
a(I-2
I3
I-2
I1
I-2
I-1
I-1
I-2
tp539
a(I0
I0
I1
I0
I1
I1
I-3
I-3
tp540
a(I-1
I-1
I3
I-3
I-1
I-1
I-1
I1
tp541
a(I-1
I1
I-1
I-1
I-1
I0
I-1
I1
tp542
a(I0
I-1
I-4
I0
I2
I1
I0
I-2
tp543
a(I0
I-3
I0
I-2
I-3
I-4
I-1
I0
tp544
a(I-2
I0
I5
I-1
I-1
I-1
I-3
I-1
tp545
a(I-2
I1
I2
I2
I-1
I0
I-3
I1
tp546
a(I0
I0
I-3
I-1
I1
I-1
I0
I-2
tp547
a(I-1
I0
I0
I-8
I-3
I-1
I1
I-1
tp548
a(I-2
I1
I-4
I-1
I0
I0
I0
I-1
tp549
a(I-2
I-1
I-1
I1
I1
I-1
I-1
I1
tp550
a(I0
I-1
I-1
I-3
I0
I-2
I0
I-1
tp551
a(I-1
I-2
I0
I-1
I0
I-1
I-1
I-3
tp552
a(I1
I1
I-5
I2
I-3
I-5
I0
I-1
tp553
a(I-1
I-2
I-1
I-4
I-2
I-1
I1
I2
tp554
a(I-1
I-1
I2
I-2
I0
I-2
I0
I-2
tp555
a(I-1
I-2
I-1
I0
I-4
I0
I-2
I-2
tp556
a(I-2
I-1
I2
I-1
I0
I-1
I-1
I-1
tp557
a(I-1
I0
I2
I0
I-3
I-2
I-2
I2
tp558
a(I2
I1
I-3
I1
I-3
I-1
I-1
I-1
tp559
a(I1
I-1
I-3
I-4
I1
I-3
I0
I-2
tp560
a(I-3
I-2
I-1
I-2
I3
I2
I-1
I-2
tp561
a(I-2
I-2
I-1
I-1
I-4
I2
I-2
I-2
tp562
a(I1
I-1
I-3
I-1
I0
I-5
I-2
I-1
tp563
a(I0
I1
I1
I-3
I-2
I1
I0
I-3
tp564
a(I0
I-3
I3
I-2
I-2
I-1
I-3
I-1
tp565
a(I-1
I-1
I3
I-2
I-2
I-1
I-1
I1
tp566
a(I0
I-1
I2
I0
I-2
I-3
I-5
I0
tp567
a(I1
I-2
I-1
I-2
I-2
I-3
I-1
I-2
tp568
a(I0
I-2
I1
I1
I0
I2
I-1
I4
tp569
a(I-2
I1
I3
I-3
I-2
I-2
I0
I-1
tp570
a(I-1
I0
I0
I-2
I-1
I3
I0
I-1
tp571
a(I1
I0
I3
I1
I-2
I-1
I-2
I0
tp572
a(I-2
I-3
I2
I-3
I-2
I3
I-1
I1
tp573
a(I0
I-2
I1
I0
I-2
I0
I-2
I1
tp574
a(I1
I0
I1
I2
I2
I-1
I0
I-2
tp575
a(I-1
I-4
I-3
I-1
I1
I-1
I-2
I-1
tp576
a(I-2
I-1
I-2
I-1
I0
I-2
I1
I-2
tp577
a(I-3
I-1
I5
I-1
I-3
I-2
I1
I1
tp578
a(I-2
I0
I0
I2
I-2
I-1
I3
I-1
tp579
a(I-3
I-3
I1
I-2
I-2
I0
I0
I-3
tp580
a(I-1
I0
I-4
I1
I-2
I-1
I0
I-1
tp581
a(I1
I-1
I3
I-1
I-3
I-1
I-2
I-2
tp582
a(I-1
I0
I-1
I0
I-3
I0
I-1
I1
tp583
a(I1
I-1
I-3
I2
I-1
I-1
I-5
I-1
tp584
a(I-1
I-1
I1
I-3
I1
I0
I2
I-1
tp585
a(I-2
I0
I0
I0
I-2
I-4
I-1
I1
tp586
a(I0
I0
I-4
I2
I2
I1
I-2
I-1
tp587
a(I0
I-3
I2
I-2
I-2
I-1
I-1
I0
tp588
a(I-2
I-2
I-2
I-2
I2
I-1
I2
I-1
tp589
a(I-1
I-1
I-2
I-2
I0
I-1
I-3
I2
tp590
a(I1
I-1
I-4
I-3
I-3
I-1
I1
I1
tp591
a(I-1
I-2
I1
I-3
I-2
I-3
I-2
I0
tp592
a(I-2
I-4
I-1
I-2
I-1
I-2
I-1
I-1
tp593
a(I0
I-1
I-2
I2
I-1
I-1
I-1
I-1
tp594
a(I1
I1
I2
I-3
I-1
I-1
I1
I-4
tp595
a(I-2
I-1
I3
I-2
I-1
I2
I-2
I-1
tp596
a(I-1
I0
I0
I-4
I-2
I3
I-1
I1
tp597
a(I-2
I0
I-2
I2
I0
I-4
I1
I0
tp598
a(I-1
I2
I-4
I2
I0
I-2
I0
I-4
tp599
a(I-1
I0
I-2
I1
I0
I1
I-1
I1
tp600
a(I-1
I0
I-5
I2
I5
I-4
I-1
I-1
tp601
a(I-1
I-1
I2
I-2
I-3
I-1
I0
I0
tp602
a(I0
I2
I0
I0
I-2
I-4
I-3
I0
tp603
a(I0
I0
I-2
I-1
I-1
I1
I-1
I3
tp604
a(I-1
I0
I-2
I1
I1
I-3
I-1
I-1
tp605
a(I0
I-2
I0
I-2
I0
I2
I0
I0
tp606
a(I-1
I-1
I2
I-4
I1
I0
I-2
I0
tp607
a(I0
I-2
I-1
I0
I4
I-1
I-1
I-2
tp608
a(I1
I-1
I-3
I1
I-4
I0
I-1
I-1
tp609
a(I1
I1
I3
I-5
I-2
I-2
I-2
I1
tp610
a(I0
I-3
I1
I-2
I-1
I3
I-1
I2
tp611
a(I-1
I0
I0
I-4
I-3
I0
I1
I-3
tp612
a(I0
I1
I0
I-2
I-4
I-3
I0
I-1
tp613
a(I0
I-2
I-1
I0
I2
I1
I0
I-2
tp614
a(I-1
I0
I-5
I-3
I0
I0
I-1
I-1
tp615
a(I-2
I1
I2
I-6
I-3
I-2
I-4
I2
tp616
a(I-2
I-2
I1
I-2
I0
I3
I1
I-3
tp617
a(I0
I-1
I-8
I0
I0
I-3
I0
I0
tp618
a(I-1
I0
I-2
I1
I0
I1
I0
I1
tp619
a(I-4
I-2
I4
I-1
I-2
I-1
I-1
I0
tp620
a(I2
I0
I-3
I0
I-1
I-2
I0
I-1
tp621
a(I-4
I-2
I1
I-2
I1
I-1
I0
I-5
tp622
a(I1
I-1
I1
I1
I0
I-1
I-2
I0
tp623
a(I-1
I-1
I-3
I-2
I1
I0
I-3
I1
tp624
a(I1
I1
I1
I2
I-2
I-3
I-1
I-1
tp625
a(I0
I-2
I6
I-2
I-5
I-1
I1
I-2
tp626
a(I-1
I-2
I0
I-5
I-3
I4
I-2
I-4
tp627
a(I-1
I0
I-2
I2
I3
I2
I-3
I-1
tp628
a(I-2
I-3
I-2
I-4
I-2
I-2
I-1
I-1
tp629
a(I0
I0
I4
I-2
I-3
I-1
I-1
I0
tp630
a(I1
I2
I4
I-3
I-2
I0
I0
I0
tp631
a(I-1
I-2
I-1
I1
I1
I-2
I0
I0
tp632
a(I0
I-1
I-2
I-2
I3
I1
I0
I-1
tp633
a(I1
I-3
I2
I-4
I-3
I1
I0
I-3
tp634
a(I-1
I-3
I2
I2
I-1
I-2
I-4
I2
tp635
a(I0
I-1
I3
I-4
I-4
I-3
I-2
I1
tp636
a(I-1
I-2
I-6
I-2
I1
I0
I0
I-3
tp637
a(I0
I-1
I0
I-4
I-3
I-1
I-2
I-1
tp638
a(I0
I2
I-4
I1
I0
I0
I1
I2
tp639
a(I-1
I-2
I6
I-5
I-4
I0
I-2
I0
tp640
a(I-2
I-2
I-1
I0
I-4
I-3
I-3
I4
tp641
a(I-1
I2
I-1
I-2
I3
I-1
I-1
I-1
tp642
a(I0
I-1
I-4
I3
I0
I-2
I1
I0
tp643
a(I1
I-2
I-1
I1
I-6
I1
I-3
I-1
tp644
a(I-2
I-3
I2
I-1
I0
I1
I-1
I-1
tp645
a(I1
I-2
I4
I1
I-1
I1
I2
I-2
tp646
a(I1
I0
I2
I2
I-1
I-3
I-1
I1
tp647
a(I-1
I-1
I-3
I1
I2
I-2
I-3
I2
tp648
a(I-1
I0
I-1
I-2
I2
I1
I1
I-4
tp649
a(I-2
I-1
I4
I-3
I-6
I-2
I-1
I-2
tp650
a(I-2
I-2
I-3
I1
I-4
I-5
I-2
I-4
tp651
a(I0
I2
I1
I4
I0
I2
I1
I2
tp652
a(I0
I0
I-3
I0
I0
I-5
I-1
I-1
tp653
a(I0
I-2
I0
I-3
I-4
I-2
I-4
I0
tp654
a(I-2
I0
I3
I0
I-2
I-1
I-2
I1
tp655
a(I-2
I1
I0
I2
I1
I-3
I1
I-2
tp656
a(I2
I-1
I-2
I-1
I-2
I2
I0
I0
tp657
a(I-3
I1
I1
I0
I-2
I-1
I-1
I-1
tp658
a(I-3
I1
I-2
I2
I0
I-1
I-2
I-1
tp659
a(I-1
I0
I6
I1
I-3
I-3
I1
I-1
tp660
a(I-1
I-3
I-1
I-2
I-1
I1
I-3
I-3
tp661
a(I0
I0
I-3
I0
I3
I-4
I1
I1
tp662
a(I0
I3
I-2
I4
I-1
I-1
I0
I-2
tp663
a(I0
I-1
I1
I-3
I0
I0
I-3
I1
tp664
a(I-1
I-1
I-2
I-2
I0
I-1
I-2
I1
tp665
a(I-1
I-3
I-7
I2
I-1
I2
I1
I-2
tp666
a(I0
I1
I-3
I1
I2
I-1
I0
I0
tp667
a(I0
I-1
I2
I1
I0
I2
I0
I2
tp668
a(I-2
I-1
I4
I0
I-4
I-2
I1
I0
tp669
a(I2
I-1
I-6
I1
I2
I1
I0
I1
tp670
a(I-1
I0
I1
I-3
I-1
I-1
I0
I0
tp671
a(I-1
I0
I-1
I3
I-2
I-3
I-3
I-1
tp672
a(I-1
I-1
I-2
I1
I-1
I-1
I1
I-3
tp673
a(I-1
I1
I2
I-4
I-4
I-1
I0
I0
tp674
a(I-2
I-1
I-1
I-3
I-3
I2
I-1
I-1
tp675
a(I0
I-1
I-6
I-1
I0
I-1
I-1
I-3
tp676
a(I-1
I0
I1
I1
I1
I0
I-1
I0
tp677
a(I0
I0
I-1
I-3
I-6
I-2
I-2
I0
tp678
a(I0
I-1
I1
I0
I0
I-1
I-2
I0
tp679
a(I1
I0
I-2
I-1
I-1
I0
I-1
I-2
tp680
a(I1
I-2
I-3
I-2
I0
I2
I0
I-2
tp681
a(I-1
I1
I4
I-3
I-2
I0
I-4
I-4
tp682
a(I-2
I1
I-1
I-3
I-2
I-1
I0
I2
tp683
a(I-2
I-2
I3
I-3
I-2
I1
I0
I2
tp684
a(I-1
I-1
I0
I2
I-1
I-1
I-2
I2
tp685
a(I-1
I0
I-1
I-4
I0
I-2
I-1
I0
tp686
a(I-3
I-1
I-3
I-5
I1
I3
I1
I-1
tp687
a(I1
I-2
I4
I-3
I-2
I-1
I1
I-1
tp688
a(I0
I1
I3
I-1
I-4
I1
I-2
I0
tp689
a(I-1
I1
I2
I2
I0
I1
I0
I-1
tp690
a(I1
I0
I-4
I-2
I1
I-2
I-1
I-3
tp691
a(I-4
I-3
I5
I-4
I-4
I-1
I-3
I0
tp692
a(I0
I-2
I0
I2
I-1
I0
I-1
I1
tp693
a(I-2
I0
I0
I-2
I2
I0
I0
I1
tp694
a(I1
I-1
I6
I-6
I-2
I-3
I0
I-4
tp695
a(I-1
I0
I-2
I-1
I0
I2
I-1
I-1
tp696
asS'rest'
p697
(lp698
(I4
I1
I-12
I-3
I12
I1
I0
I-5
tp699
a(I12
I1
I-24
I9
I15
I9
I3
I-6
tp700
a(I-20
I-17
I24
I-5
I-22
I21
I-6
I1
tp701
a(I-22
I-5
I1
I25
I5
I8
I-6
I-1
tp702
a(I8
I11
I-51
I50
I44
I-25
I-1
I-9
tp703
a(I29
I24
I-69
I39
I52
I-49
I5
I-9
tp704
a(I6
I3
I-7
I-13
I2
I-37
I2
I-1
tp705
a(I-11
I-10
I35
I-37
I-21
I-23
I-4
I2
tp706
a(I0
I-1
I7
I-28
I-1
I-6
I0
I0
tp707
a(I7
I3
I-30
I-6
I39
I4
I-1
I-5
tp708
a(I-8
I-3
I-10
I10
I15
I6
I0
I-5
tp709
a(I-11
I-1
I-28
I16
I25
I-19
I-4
I-9
tp710
a(I15
I19
I-61
I10
I47
I-47
I2
I-8
tp711
a(I24
I12
I-48
I-28
I32
I-28
I5
I-2
tp712
a(I-4
I-7
I20
I-57
I-27
I3
I3
I5
tp713
a(I-15
I-11
I25
I-59
I-8
I22
I-5
I2
tp714
a(I-3
I5
I-22
I-14
I29
I23
I-3
I-4
tp715
a(I9
I11
I-43
I15
I43
I2
I2
I-7
tp716
a(I2
I6
I-24
I4
I25
I-16
I1
I-6
tp717
a(I5
I5
I-15
I-37
I11
I-19
I2
I-1
tp718
a(I5
I1
I5
I-53
I-3
I-5
I3
I2
tp719
a(I0
I-2
I18
I-57
I-13
I27
I-2
I2
tp720
a(I-13
I-7
I16
I-32
I-1
I37
I-3
I2
tp721
a(I-4
I4
I-11
I10
I19
I22
I-4
I-2
tp722
a(I2
I-3
I22
I-57
I-16
I0
I-1
I8
tp723
a(I-10
I-9
I39
I-50
I-21
I23
I-2
I6
tp724
a(I-4
I-6
I15
I-22
I-3
I38
I0
I3
tp725
a(I-1
I4
I-14
I16
I10
I21
I-1
I-2
tp726
a(I4
I5
I-32
I39
I16
I-14
I-2
I-6
tp727
a(I7
I10
I-33
I41
I21
I-43
I0
I-5
tp728
a(I9
I10
I-34
I25
I22
I-54
I0
I-8
tp729
a(I-2
I-3
I8
I-18
I-9
I-19
I2
I0
tp730
a(I-4
I-7
I24
I-14
I-19
I33
I-2
I4
tp731
a(I-4
I-2
I-2
I-1
I2
I0
I-1
I0
tp732
a(I0
I2
I-3
I10
I2
I4
I0
I-1
tp733
a(I4
I1
I-2
I0
I1
I-10
I1
I-2
tp734
a(I0
I-5
I13
I-12
I-7
I16
I0
I-1
tp735
a(I-2
I-6
I-4
I7
I0
I6
I-2
I1
tp736
a(I-5
I-2
I5
I-7
I-4
I1
I-1
I0
tp737
a(I1
I1
I2
I-2
I-8
I2
I-1
I-2
tp738
a(I0
I-1
I3
I-16
I-4
I2
I1
I1
tp739
a(I2
I-1
I5
I-3
I-4
I5
I-3
I2
tp740
a(I-1
I-3
I-5
I5
I7
I-10
I1
I-3
tp741
a(I-4
I2
I-2
I3
I-3
I2
I-2
I0
tp742
a(I-4
I-1
I5
I-4
I2
I0
I-1
I1
tp743
a(I-1
I-3
I7
I-11
I-8
I1
I-1
I2
tp744
a(I-3
I-5
I6
I-7
I-5
I9
I-3
I0
tp745
a(I-4
I-4
I7
I0
I-13
I8
I-1
I2
tp746
a(I-10
I-8
I23
I-18
I-24
I-4
I-1
I2
tp747
a(I-7
I-12
I38
I-9
I-31
I47
I2
I6
tp748
a(I4
I-3
I7
I17
I-24
I24
I-2
I4
tp749
a(I6
I1
I1
I22
I-16
I-21
I2
I-2
tp750
a(I4
I-1
I-1
I27
I-14
I-31
I-2
I1
tp751
a(I6
I-4
I9
I12
I-17
I-21
I-1
I0
tp752
a(I-2
I-7
I21
I-12
I-33
I-6
I2
I3
tp753
a(I-6
I-13
I44
I-29
I-42
I24
I0
I6
tp754
a(I-10
I-13
I43
I-27
I-40
I37
I-3
I2
tp755
a(I-11
I-12
I26
I7
I-20
I24
I-6
I0
tp756
a(I-5
I-4
I3
I47
I-2
I13
I-6
I-4
tp757
a(I-5
I0
I-23
I62
I21
I-16
I-2
I-10
tp758
a(I4
I-2
I13
I-13
I-19
I-30
I1
I-2
tp759
a(I-13
I-13
I38
I-28
I-35
I20
I-1
I6
tp760
a(I-13
I-9
I23
I2
I-12
I27
I-6
I3
tp761
a(I-9
I-4
I-12
I38
I7
I17
I-4
I-5
tp762
a(I3
I7
I-39
I66
I25
I-18
I-4
I-7
tp763
a(I9
I8
I-33
I46
I12
I-48
I-1
I-8
tp764
a(I5
I4
I-12
I17
I-4
I-42
I0
I-5
tp765
a(I-3
I-2
I11
I-23
I-14
I-14
I-1
I0
tp766
a(I-10
I-12
I22
I-15
I-17
I11
I-2
I0
tp767
a(I-10
I-5
I-3
I23
I4
I17
I-4
I-1
tp768
a(I-3
I2
I-36
I56
I26
I-7
I-2
I-6
tp769
a(I8
I10
I-44
I38
I27
I-41
I5
I-8
tp770
a(I-7
I-8
I22
I-34
I-7
I12
I-5
I3
tp771
a(I-6
I-1
I-12
I7
I24
I8
I-4
I-6
tp772
a(I2
I5
I-45
I48
I46
I-15
I-3
I-8
tp773
a(I8
I12
I-58
I30
I37
I-40
I0
I-10
tp774
a(I11
I10
I-29
I-20
I33
I-41
I1
I-5
tp775
a(I2
I-2
I-2
I-39
I2
I-8
I1
I4
tp776
a(I-6
I-5
I9
I-55
I-3
I14
I-3
I-1
tp777
a(I-8
I-4
I-3
I-26
I11
I29
I-5
I1
tp778
a(I-2
I5
I-39
I26
I43
I1
I-3
I-8
tp779
a(I6
I10
I-38
I38
I22
I-31
I1
I-7
tp780
a(I14
I11
I-30
I27
I20
I-41
I5
I-6
tp781
a(I5
I8
I-21
I15
I11
I-47
I3
I-2
tp782
a(I-1
I-3
I-8
I3
I-2
I7
I-2
I0
tp783
a(I-2
I-1
I2
I4
I-3
I3
I-1
I-3
tp784
a(I1
I-1
I0
I-2
I-4
I-4
I-1
I-2
tp785
a(I-2
I3
I-8
I0
I6
I-2
I-2
I-3
tp786
a(I-4
I-6
I10
I-11
I-8
I3
I-2
I-1
tp787
a(I-7
I-5
I19
I-15
I-12
I19
I-3
I0
tp788
a(I-2
I-5
I3
I5
I1
I9
I-1
I-2
tp789
a(I3
I4
I-8
I-5
I-1
I-8
I-1
I-3
tp790
a(I1
I-3
I2
I-9
I-1
I3
I0
I-1
tp791
a(I0
I-5
I12
I-9
I-12
I6
I1
I4
tp792
a(I-3
I-1
I6
I4
I-3
I9
I0
I1
tp793
a(I-1
I2
I-12
I-1
I5
I-12
I0
I-2
tp794
a(I1
I-1
I7
I-8
I-7
I1
I-4
I-1
tp795
a(I-1
I-2
I0
I-3
I7
I6
I0
I3
tp796
a(I-4
I-1
I9
I0
I-5
I13
I-1
I1
tp797
a(I-4
I-7
I17
I-10
I-14
I8
I1
I3
tp798
a(I3
I2
I11
I3
I-6
I14
I0
I2
tp799
a(I-3
I1
I5
I-2
I1
I-15
I1
I-1
tp800
a(I-5
I-9
I29
I-29
I-25
I27
I0
I4
tp801
a(I-1
I-8
I35
I-24
I-28
I44
I-1
I6
tp802
a(I2
I-5
I12
I-13
I-13
I17
I2
I-1
tp803
a(I6
I0
I9
I-20
I-13
I3
I0
I5
tp804
a(I3
I-6
I22
I-30
I-18
I12
I2
I5
tp805
a(I-7
I-12
I36
I-41
I-30
I25
I0
I7
tp806
a(I-8
I-2
I-1
I20
I3
I12
I-5
I-1
tp807
a(I1
I3
I-21
I39
I13
I-13
I-3
I-7
tp808
a(I4
I10
I-46
I52
I21
I-37
I-5
I-4
tp809
a(I11
I9
I-28
I40
I13
I-41
I4
I-3
tp810
a(I6
I2
I3
I-3
I-18
I-22
I1
I3
tp811
a(I-8
I-10
I36
I-30
I-36
I10
I-2
I6
tp812
a(I-13
I-17
I42
I-14
I-37
I34
I-2
I4
tp813
a(I-10
I-8
I14
I24
I-11
I26
I-2
I-1
tp814
a(I-1
I3
I-18
I58
I8
I-5
I-4
I-5
tp815
a(I6
I1
I-20
I52
I-3
I-28
I0
I-7
tp816
a(I6
I3
I0
I12
I-13
I-26
I2
I-1
tp817
a(I1
I-5
I30
I-12
I-41
I2
I0
I2
tp818
a(I-5
I0
I-16
I62
I10
I-12
I-2
I-4
tp819
a(I6
I5
I-32
I63
I15
I-34
I-2
I-9
tp820
a(I5
I7
I-13
I13
I-4
I-37
I4
I1
tp821
a(I-2
I-8
I23
I-7
I-32
I-13
I1
I0
tp822
a(I-11
I-13
I38
I-11
I-26
I16
I-5
I3
tp823
a(I-10
I-9
I15
I16
I-11
I14
I-8
I-1
tp824
a(I-2
I0
I-24
I49
I16
I-12
I-3
I-8
tp825
a(I5
I6
I-37
I59
I20
I-40
I0
I-8
tp826
a(I8
I5
I-23
I14
I7
I-43
I1
I-3
tp827
a(I3
I-2
I7
I-12
I-18
I-20
I1
I0
tp828
a(I-5
I-12
I24
I-15
I-25
I11
I-4
I1
tp829
a(I-13
I-6
I17
I10
I-6
I17
I-4
I-1
tp830
a(I8
I6
I-22
I9
I10
I-32
I3
I-2
tp831
a(I6
I2
I5
I-11
I-13
I-13
I3
I2
tp832
a(I8
I3
I1
I-14
I-10
I-8
I4
I-2
tp833
a(I3
I2
I-4
I-5
I7
I-18
I0
I-3
tp834
a(I-8
I-6
I12
I-4
I-6
I5
I0
I2
tp835
a(I0
I-2
I-6
I10
I-1
I13
I-5
I0
tp836
a(I0
I1
I-5
I3
I5
I-2
I-2
I-2
tp837
a(I1
I-5
I-2
I-5
I2
I-3
I-2
I-1
tp838
a(I1
I-3
I2
I3
I-9
I5
I1
I-1
tp839
a(I-7
I-4
I5
I-3
I0
I-5
I-1
I-1
tp840
a(I-6
I-2
I-2
I6
I5
I-7
I-3
I-3
tp841
a(I0
I0
I-2
I2
I-2
I12
I0
I0
tp842
a(I0
I-1
I4
I-4
I-6
I7
I0
I0
tp843
a(I-4
I-1
I1
I3
I-1
I9
I0
I0
tp844
a(I1
I0
I-7
I5
I2
I-7
I0
I-1
tp845
a(I-1
I-5
I0
I-3
I-3
I-10
I-2
I0
tp846
a(I0
I-2
I2
I-5
I0
I2
I-1
I1
tp847
a(I2
I1
I1
I-2
I3
I6
I1
I-1
tp848
a(I-2
I-3
I0
I0
I-2
I2
I-1
I-3
tp849
a(I-6
I-2
I0
I3
I-1
I-3
I-2
I-4
tp850
a(I1
I1
I-3
I1
I2
I-1
I1
I1
tp851
a(I2
I-2
I1
I-5
I-6
I7
I-1
I3
tp852
a(I-4
I-2
I5
I0
I4
I2
I-1
I-1
tp853
a(I-2
I-1
I5
I1
I-6
I1
I-2
I2
tp854
a(I0
I-2
I0
I0
I-9
I-4
I-1
I-2
tp855
a(I-3
I3
I3
I0
I-2
I-2
I-3
I0
tp856
a(I-1
I3
I-4
I1
I5
I0
I-1
I-3
tp857
a(I-1
I0
I-4
I0
I5
I0
I-1
I0
tp858
a(I-3
I-5
I3
I1
I-1
I2
I-2
I0
tp859
a(I-1
I-7
I5
I-5
I-7
I-2
I0
I0
tp860
a(I0
I-1
I-3
I1
I3
I2
I0
I-2
tp861
a(I0
I-2
I-4
I2
I2
I2
I-3
I-3
tp862
a(I-2
I1
I3
I1
I-4
I0
I-2
I3
tp863
a(I-4
I-2
I4
I-5
I-6
I-2
I0
I0
tp864
a(I2
I2
I-1
I-1
I-2
I1
I0
I0
tp865
a(I3
I0
I-2
I-1
I1
I-2
I2
I0
tp866
a(I1
I1
I-4
I4
I3
I-3
I0
I1
tp867
a(I2
I0
I-5
I-1
I-8
I1
I1
I-1
tp868
a(I-2
I-3
I2
I-2
I5
I1
I-2
I1
tp869
a(I-5
I-2
I4
I-5
I-2
I-3
I0
I3
tp870
a(I2
I1
I-2
I-1
I3
I-2
I-1
I-1
tp871
a(I-1
I0
I2
I-2
I-1
I-3
I3
I0
tp872
a(I0
I-2
I-1
I-1
I-2
I-1
I-2
I0
tp873
a(I-3
I-4
I3
I0
I0
I7
I-1
I-2
tp874
a(I2
I-2
I-2
I4
I-2
I0
I-2
I-2
tp875
a(I4
I-2
I-4
I-1
I5
I0
I-1
I3
tp876
a(I1
I-1
I2
I-4
I-9
I0
I-3
I-1
tp877
a(I-4
I-1
I5
I-1
I-1
I-2
I-1
I-1
tp878
a(I-3
I-1
I0
I0
I2
I-5
I-1
I-2
tp879
a(I-1
I-2
I0
I-3
I-1
I-2
I-2
I0
tp880
a(I1
I-2
I3
I-1
I-4
I2
I1
I0
tp881
a(I1
I2
I0
I3
I1
I1
I-1
I-4
tp882
a(I1
I-1
I2
I1
I-3
I-1
I0
I-2
tp883
a(I-2
I-3
I1
I-1
I-1
I5
I-1
I-1
tp884
a(I-2
I-2
I-2
I0
I-3
I1
I0
I-2
tp885
a(I-1
I-1
I-4
I0
I3
I-2
I0
I1
tp886
a(I1
I0
I0
I-2
I1
I1
I1
I-3
tp887
a(I-3
I-5
I-2
I2
I-5
I1
I-1
I0
tp888
a(I3
I-2
I1
I0
I1
I-3
I-4
I-2
tp889
a(I0
I0
I-3
I0
I3
I2
I2
I0
tp890
a(I-2
I1
I-1
I-6
I3
I0
I2
I2
tp891
a(I2
I0
I-5
I2
I-3
I-1
I-2
I-2
tp892
a(I-1
I1
I2
I-1
I1
I-2
I2
I-2
tp893
a(I-4
I0
I0
I-1
I-5
I3
I-1
I2
tp894
a(I-1
I0
I-1
I-4
I-5
I1
I-2
I-3
tp895
a(I-1
I1
I-2
I0
I10
I-2
I-1
I-1
tp896
a(I-1
I-3
I-4
I-4
I-7
I1
I0
I1
tp897
a(I0
I2
I1
I-3
I-1
I-4
I-1
I-1
tp898
a(I-2
I-3
I2
I6
I0
I4
I-2
I-2
tp899
a(I-2
I2
I-3
I-2
I-1
I2
I3
I0
tp900
a(I2
I0
I-4
I0
I1
I-3
I1
I0
tp901
a(I-4
I-1
I4
I-1
I-1
I1
I0
I-1
tp902
a(I0
I0
I-6
I2
I2
I-1
I-2
I1
tp903
a(I-2
I-3
I3
I0
I-6
I0
I1
I0
tp904
a(I-2
I-2
I5
I-7
I-3
I0
I-4
I2
tp905
a(I-1
I0
I-3
I0
I-1
I0
I-1
I1
tp906
a(I-1
I0
I-4
I0
I1
I2
I-1
I-2
tp907
a(I0
I-1
I3
I-1
I-6
I2
I1
I1
tp908
a(I-2
I1
I-3
I-2
I-7
I-1
I-1
I2
tp909
a(I0
I2
I-1
I1
I3
I-3
I-2
I-4
tp910
a(I-1
I0
I-4
I3
I1
I1
I1
I-3
tp911
a(I-3
I-1
I1
I-3
I-2
I1
I-3
I-1
tp912
a(I0
I-3
I-2
I-1
I-1
I-3
I3
I4
tp913
a(I0
I0
I3
I2
I-3
I-2
I2
I0
tp914
a(I1
I1
I-3
I-1
I-1
I-2
I0
I-2
tp915
a(I0
I-3
I-1
I-2
I0
I-3
I-3
I-1
tp916
a(I1
I-1
I1
I0
I-1
I-3
I-2
I-3
tp917
a(I-4
I-4
I3
I1
I-2
I2
I-1
I1
tp918
a(I-2
I1
I2
I-2
I-1
I-2
I-2
I0
tp919
a(I3
I3
I-3
I-1
I-7
I-3
I1
I-4
tp920
a(I0
I-4
I5
I1
I2
I1
I-1
I3
tp921
a(I-2
I-2
I1
I-1
I-2
I0
I-1
I1
tp922
a(I-1
I2
I2
I0
I2
I0
I0
I-3
tp923
a(I1
I-2
I0
I3
I-6
I1
I-2
I0
tp924
a(I0
I2
I-3
I-4
I-2
I-2
I-2
I-2
tp925
a(I-1
I-1
I5
I-1
I-5
I3
I0
I1
tp926
a(I-1
I-2
I-1
I1
I-3
I2
I0
I-1
tp927
a(I-2
I1
I2
I-3
I-3
I-3
I2
I-1
tp928
a(I0
I0
I-5
I1
I0
I-2
I1
I1
tp929
a(I2
I0
I1
I0
I0
I-1
I1
I-2
tp930
a(I-1
I-1
I-3
I1
I0
I-2
I-2
I2
tp931
a(I0
I0
I3
I-5
I-5
I0
I-3
I-2
tp932
a(I-2
I-2
I1
I-2
I-5
I2
I2
I1
tp933
a(I0
I1
I-2
I3
I1
I2
I1
I-2
tp934
a(I3
I1
I-4
I0
I-3
I-1
I3
I0
tp935
a(I-1
I-4
I1
I-3
I-5
I-2
I-3
I-2
tp936
a(I-1
I0
I1
I1
I-6
I-1
I-1
I1
tp937
a(I-1
I-1
I1
I-2
I0
I2
I1
I0
tp938
a(I-1
I-1
I2
I1
I-11
I-1
I-1
I0
tp939
a(I-2
I-1
I0
I1
I3
I-2
I-2
I1
tp940
a(I0
I1
I-2
I4
I4
I2
I-1
I-3
tp941
a(I0
I-3
I3
I3
I-4
I-1
I-3
I-1
tp942
a(I-4
I-4
I8
I-4
I2
I1
I-1
I-1
tp943
a(I1
I-1
I-6
I4
I0
I-2
I-4
I-1
tp944
a(I-1
I-1
I-3
I2
I-2
I-1
I-1
I2
tp945
a(I-2
I1
I0
I0
I-2
I0
I0
I0
tp946
a(I-1
I-4
I4
I3
I1
I0
I-2
I-6
tp947
a(I2
I-1
I-1
I-1
I-8
I-2
I3
I0
tp948
a(I2
I1
I-1
I-3
I1
I2
I-1
I3
tp949
a(I-5
I-3
I2
I1
I-2
I2
I-1
I-1
tp950
a(I0
I0
I-4
I3
I3
I-4
I-1
I-7
tp951
a(I-5
I0
I6
I0
I-6
I2
I0
I3
tp952
a(I1
I-3
I0
I2
I-3
I2
I0
I2
tp953
a(I1
I-1
I-2
I4
I3
I-4
I-1
I-3
tp954
a(I-3
I1
I-4
I3
I1
I-2
I-1
I-2
tp955
a(I-1
I-2
I1
I0
I-6
I1
I-2
I-1
tp956
a(I0
I3
I-5
I3
I-1
I-3
I-3
I0
tp957
a(I1
I1
I-2
I1
I1
I-1
I-1
I1
tp958
a(I-2
I0
I-3
I2
I4
I-4
I0
I-4
tp959
a(I0
I0
I3
I-2
I-2
I0
I0
I-2
tp960
a(I1
I-1
I0
I2
I-6
I5
I-2
I0
tp961
a(I1
I1
I-4
I0
I3
I-2
I2
I0
tp962
a(I-1
I-4
I5
I-1
I2
I-4
I-1
I-2
tp963
a(I1
I-4
I1
I-2
I4
I1
I0
I-1
tp964
a(I0
I-4
I-1
I4
I-3
I3
I-2
I0
tp965
a(I-2
I-1
I2
I-2
I-2
I1
I-3
I0
tp966
a(I-4
I0
I-1
I-1
I0
I-2
I2
I0
tp967
a(I1
I-1
I-4
I0
I-4
I2
I1
I-1
tp968
a(I2
I3
I-3
I-2
I-4
I2
I-3
I0
tp969
a(I-3
I-1
I-3
I2
I-5
I-2
I-2
I1
tp970
a(I-1
I-1
I3
I-6
I1
I-3
I-1
I1
tp971
a(I0
I1
I-4
I-1
I2
I2
I1
I-1
tp972
a(I3
I-3
I1
I-4
I-1
I-1
I0
I5
tp973
a(I1
I3
I4
I-5
I-2
I1
I-2
I1
tp974
a(I2
I-1
I3
I-11
I5
I3
I2
I1
tp975
a(I-2
I-2
I2
I-3
I-2
I-2
I1
I1
tp976
a(I-1
I0
I0
I-2
I-2
I-1
I-2
I2
tp977
a(I-1
I0
I2
I-3
I2
I3
I-1
I1
tp978
a(I2
I-3
I-1
I-1
I-7
I-2
I-2
I-1
tp979
a(I-3
I-3
I2
I-2
I-1
I1
I-1
I-2
tp980
a(I0
I1
I0
I-3
I0
I1
I0
I-1
tp981
a(I5
I-4
I-4
I-1
I0
I-1
I-1
I-1
tp982
a(I0
I2
I0
I1
I-3
I2
I0
I-1
tp983
a(I-3
I-1
I3
I-2
I0
I0
I-1
I-1
tp984
a(I0
I-1
I2
I-1
I-5
I3
I0
I-1
tp985
a(I-1
I1
I3
I-1
I-2
I0
I1
I0
tp986
a(I-2
I0
I-1
I-1
I1
I-2
I-2
I-4
tp987
a(I2
I1
I-5
I-2
I-3
I-2
I-1
I1
tp988
a(I-1
I0
I-1
I1
I-3
I-5
I3
I-2
tp989
a(I0
I-2
I0
I-2
I-1
I-4
I0
I1
tp990
a(I-1
I-1
I-1
I0
I-5
I0
I2
I-2
tp991
a(I4
I2
I-4
I-1
I3
I-3
I-1
I1
tp992
a(I-3
I-1
I-1
I2
I3
I2
I-2
I0
tp993
a(I-3
I0
I0
I-8
I-5
I-4
I-2
I-1
tp994
a(I0
I-2
I-1
I5
I1
I-3
I-3
I0
tp995
a(I0
I-2
I0
I0
I-6
I-1
I-1
I-2
tp996
a(I-2
I-1
I3
I0
I1
I0
I1
I-4
tp997
a(I-3
I-1
I1
I0
I6
I2
I-1
I-1
tp998
a(I-1
I-1
I0
I1
I-3
I3
I2
I-1
tp999
a(I-3
I-3
I6
I1
I-6
I1
I-3
I1
tp1000
a(I0
I-2
I3
I-5
I-6
I2
I-1
I1
tp1001
a(I-2
I1
I-1
I-2
I-1
I1
I1
I0
tp1002
a(I-1
I0
I-1
I2
I2
I-2
I-1
I-1
tp1003
a(I-1
I-2
I-4
I-4
I-5
I0
I-1
I-2
tp1004
a(I-2
I1
I1
I-1
I-1
I1
I-1
I0
tp1005
a(I1
I1
I1
I-4
I-5
I1
I-1
I-2
tp1006
a(I2
I1
I-2
I2
I-3
I-1
I-2
I0
tp1007
a(I-4
I0
I1
I3
I-2
I2
I-1
I0
tp1008
a(I0
I-2
I2
I0
I-6
I-3
I1
I0
tp1009
a(I0
I-2
I1
I6
I-3
I1
I-2
I0
tp1010
a(I2
I-1
I-2
I-4
I-3
I-2
I-1
I-3
tp1011
a(I-4
I-1
I2
I4
I-4
I0
I1
I0
tp1012
a(I0
I-4
I-2
I1
I0
I0
I1
I1
tp1013
a(I-1
I-3
I3
I4
I-5
I-3
I-2
I-1
tp1014
a(I-5
I2
I-1
I3
I4
I0
I0
I-1
tp1015
a(I0
I0
I-1
I-4
I-3
I-2
I-1
I-3
tp1016
a(I-2
I-3
I0
I1
I3
I0
I-3
I1
tp1017
a(I-2
I-1
I1
I2
I-1
I2
I0
I0
tp1018
a(I-2
I-1
I-1
I1
I1
I2
I2
I2
tp1019
a(I-1
I-1
I-1
I3
I-3
I1
I0
I-2
tp1020
a(I-1
I1
I1
I-4
I-2
I0
I1
I-1
tp1021
a(I-2
I-4
I-1
I-2
I-2
I1
I-1
I1
tp1022
a(I-2
I-2
I-2
I-1
I-1
I1
I-3
I-1
tp1023
a(I-1
I0
I0
I1
I-3
I-4
I-1
I-2
tp1024
a(I0
I-3
I-4
I-1
I4
I-3
I-2
I0
tp1025
a(I2
I-2
I-1
I0
I0
I-5
I0
I2
tp1026
a(I-1
I-1
I-2
I-1
I-3
I3
I-1
I0
tp1027
a(I-1
I-2
I-2
I-2
I6
I-3
I-2
I-1
tp1028
a(I0
I-2
I-3
I1
I-4
I-4
I-1
I0
tp1029
a(I1
I1
I-4
I1
I0
I1
I-1
I-2
tp1030
a(I-2
I-2
I-1
I-3
I-3
I-2
I0
I-1
tp1031
a(I-2
I1
I0
I-1
I-7
I-2
I-1
I-2
tp1032
a(I-1
I-1
I1
I1
I1
I3
I-2
I2
tp1033
a(I1
I-2
I-1
I-2
I4
I-3
I-5
I-1
tp1034
a(I-2
I-1
I0
I0
I1
I-2
I-2
I-1
tp1035
a(I-1
I0
I1
I2
I-3
I2
I1
I1
tp1036
a(I1
I3
I-1
I0
I0
I2
I1
I0
tp1037
a(I-1
I-2
I-2
I-2
I1
I-4
I-4
I-1
tp1038
a(I2
I-1
I-2
I3
I-3
I0
I-2
I0
tp1039
a(I-2
I-1
I-1
I-1
I1
I-2
I-1
I2
tp1040
a(I2
I0
I0
I-7
I-2
I-2
I-2
I-1
tp1041
a(I-2
I1
I2
I0
I-7
I-1
I-1
I-3
tp1042
a(I1
I2
I-5
I2
I2
I-3
I2
I-5
tp1043
a(I1
I1
I-3
I4
I1
I-3
I-3
I-2
tp1044
a(I-1
I-3
I3
I-5
I-4
I-3
I-2
I3
tp1045
a(I-3
I-3
I0
I-5
I-1
I-2
I-1
I-2
tp1046
a(I0
I0
I0
I1
I-3
I2
I-1
I2
tp1047
a(I-5
I-3
I0
I0
I-4
I-1
I-1
I-1
tp1048
a(I-3
I-3
I0
I-2
I5
I2
I-1
I-3
tp1049
a(I0
I-1
I-1
I-1
I1
I4
I1
I-1
tp1050
a(I-1
I0
I0
I-5
I-6
I2
I-3
I-2
tp1051
a(I0
I-2
I3
I-2
I1
I6
I-2
I1
tp1052
a(I2
I1
I-3
I-2
I0
I1
I-3
I0
tp1053
a(I-1
I-1
I-2
I1
I0
I0
I1
I0
tp1054
a(I0
I-2
I2
I-6
I-4
I1
I0
I2
tp1055
a(I-3
I2
I0
I5
I1
I-4
I1
I-1
tp1056
a(I0
I-1
I-4
I-3
I1
I-4
I-1
I0
tp1057
a(I1
I-1
I-2
I-3
I0
I2
I-2
I-1
tp1058
a(I-1
I-2
I-1
I1
I-2
I1
I1
I-2
tp1059
a(I1
I0
I-3
I-1
I-1
I-2
I-2
I-2
tp1060
a(I-2
I-3
I4
I-7
I-4
I1
I0
I-1
tp1061
a(I-2
I1
I-2
I3
I-1
I3
I-2
I2
tp1062
a(I0
I0
I-1
I0
I-4
I-1
I0
I-3
tp1063
a(I-2
I-1
I2
I-3
I0
I-2
I0
I-2
tp1064
a(I-2
I-4
I1
I-1
I-5
I2
I3
I2
tp1065
a(I-4
I-3
I4
I3
I-1
I-2
I-1
I0
tp1066
a(I1
I1
I-2
I1
I-6
I0
I1
I-3
tp1067
a(I1
I3
I5
I-2
I-3
I1
I-1
I0
tp1068
a(I-1
I-2
I1
I1
I-7
I0
I-1
I-2
tp1069
a(I-1
I-1
I-1
I-1
I-1
I0
I1
I1
tp1070
a(I-1
I-2
I3
I3
I-5
I-3
I1
I1
tp1071
a(I-2
I-1
I0
I6
I3
I0
I0
I-2
tp1072
a(I-1
I2
I2
I0
I2
I-4
I-3
I-1
tp1073
a(I-2
I-4
I1
I-7
I-1
I0
I-2
I-1
tp1074
a(I-1
I-2
I1
I0
I-3
I0
I1
I1
tp1075
a(I-1
I1
I-1
I3
I-1
I-2
I-1
I0
tp1076
a(I-2
I-3
I1
I-1
I2
I-3
I-2
I-3
tp1077
a(I-2
I0
I2
I6
I-2
I1
I1
I3
tp1078
a(I-2
I-3
I6
I2
I0
I1
I-1
I-6
tp1079
a(I-1
I-2
I0
I2
I1
I-3
I-3
I0
tp1080
a(I0
I-2
I-4
I4
I-5
I0
I-1
I1
tp1081
a(I0
I0
I1
I-2
I-7
I-1
I0
I0
tp1082
a(I-1
I-1
I-1
I3
I8
I-5
I-3
I0
tp1083
a(I-3
I-1
I-2
I3
I-4
I-1
I0
I0
tp1084
a(I0
I-2
I2
I0
I-4
I1
I-1
I2
tp1085
a(I0
I-4
I-1
I-2
I-5
I-2
I-2
I0
tp1086
a(I1
I0
I-3
I4
I-2
I3
I0
I3
tp1087
a(I0
I-1
I-4
I1
I0
I1
I-1
I-2
tp1088
a(I-2
I-3
I4
I-4
I-7
I1
I-1
I0
tp1089
a(I-2
I-3
I-3
I1
I-1
I-4
I0
I-1
tp1090
a(I2
I1
I-7
I1
I1
I-5
I-2
I-5
tp1091
a(I-2
I0
I-3
I4
I-1
I2
I-2
I-2
tp1092
a(I-2
I-1
I4
I-1
I-5
I1
I1
I-1
tp1093
a(I-3
I-2
I-1
I-1
I-4
I-3
I2
I-2
tp1094
a(I1
I-3
I2
I-7
I0
I-1
I-1
I-4
tp1095
a(I-3
I-2
I1
I-1
I-2
I1
I0
I-2
tp1096
a(I2
I1
I-4
I0
I1
I-7
I0
I-3
tp1097
a(I0
I-2
I-1
I-2
I2
I0
I2
I-1
tp1098
a(I0
I-1
I0
I0
I-3
I3
I-2
I0
tp1099
a(I-2
I0
I0
I-4
I0
I-2
I-3
I-2
tp1100
a(I-2
I1
I-5
I-2
I3
I1
I1
I0
tp1101
a(I1
I-3
I-3
I0
I2
I-1
I3
I0
tp1102
a(I-2
I1
I2
I-4
I-5
I1
I0
I-3
tp1103
a(I-1
I-1
I0
I-4
I2
I-1
I-1
I5
tp1104
a(I-1
I-2
I-1
I2
I-1
I-4
I-1
I-2
tp1105
a(I2
I-1
I1
I4
I-4
I-2
I-1
I-1
tp1106
a(I0
I2
I-1
I1
I0
I-2
I0
I0
tp1107
a(I-2
I-1
I-4
I-6
I1
I0
I2
I1
tp1108
a(I-2
I0
I2
I-2
I-7
I3
I-1
I-1
tp1109
a(I-1
I1
I-2
I-3
I-5
I-3
I-2
I-3
tp1110
a(I0
I-2
I-3
I2
I7
I1
I0
I-2
tp1111
a(I1
I0
I-4
I-1
I0
I-2
I1
I1
tp1112
a(I-3
I-4
I5
I-1
I-4
I-1
I-1
I2
tp1113
a(I0
I-3
I2
I0
I-2
I1
I0
I-1
tp1114
a(I-1
I3
I-3
I1
I0
I-4
I1
I-1
tp1115
a(I-4
I0
I3
I0
I5
I-1
I-4
I-4
tp1116
a(I-3
I-3
I5
I-6
I-7
I3
I0
I-1
tp1117
a(I0
I-1
I-1
I1
I5
I1
I-1
I0
tp1118
a(I-2
I-1
I0
I-7
I-2
I-1
I-1
I0
tp1119
a(I-1
I0
I-2
I1
I-1
I1
I0
I1
tp1120
a(I-1
I1
I-7
I0
I1
I-2
I0
I-3
tp1121
a(I0
I-4
I-1
I-4
I0
I2
I-2
I2
tp1122
a(I0
I-1
I6
I-4
I-5
I1
I2
I0
tp1123
a(I-1
I0
I1
I-1
I-5
I-1
I-1
I-1
tp1124
a(I0
I-1
I-5
I1
I2
I-1
I-2
I0
tp1125
a(I-1
I0
I0
I2
I-5
I2
I-1
I-1
tp1126
a(I-4
I-1
I6
I-1
I-4
I0
I0
I1
tp1127
a(I0
I-1
I-2
I-5
I0
I2
I2
I-5
tp1128
a(I0
I-2
I-2
I3
I4
I0
I-3
I0
tp1129
a(I-3
I3
I2
I-1
I2
I-1
I0
I1
tp1130
a(I1
I0
I-4
I-1
I-1
I1
I0
I-2
tp1131
a(I-2
I-2
I0
I-1
I-1
I0
I2
I-1
tp1132
a(I-1
I-3
I4
I-1
I-4
I0
I-3
I3
tp1133
a(I-2
I-1
I2
I-4
I0
I-1
I-1
I1
tp1134
a(I-3
I2
I-5
I0
I0
I3
I1
I-1
tp1135
a(I0
I-1
I3
I-3
I1
I0
I-2
I2
tp1136
a(I-3
I0
I8
I-1
I-6
I3
I-1
I3
tp1137
a(I-1
I-1
I1
I3
I-1
I-3
I-3
I1
tp1138
a(I-1
I0
I-2
I1
I1
I0
I0
I-2
tp1139
a(I1
I-2
I-6
I1
I1
I2
I-1
I-5
tp1140
a(I-1
I-1
I-2
I2
I-3
I-1
I-1
I0
tp1141
a(I-3
I1
I2
I-3
I1
I0
I-5
I-3
tp1142
a(I-2
I0
I1
I5
I-2
I-1
I0
I-2
tp1143
a(I1
I0
I1
I2
I-1
I-6
I-2
I-1
tp1144
a(I-4
I-5
I3
I1
I-7
I-1
I-2
I2
tp1145
a(I-1
I-1
I-2
I3
I0
I1
I-3
I0
tp1146
a(I1
I1
I-2
I-4
I-1
I-5
I2
I1
tp1147
a(I-2
I-1
I-4
I3
I-2
I-1
I2
I-1
tp1148
a(I-1
I-3
I5
I-3
I-1
I1
I-1
I-4
tp1149
a(I1
I-1
I-3
I5
I1
I-1
I0
I0
tp1150
a(I0
I0
I-3
I-3
I3
I-4
I-4
I1
tp1151
a(I-1
I0
I0
I2
I1
I-1
I-3
I3
tp1152
a(I-1
I-1
I3
I2
I-5
I-2
I-1
I0
tp1153
a(I-2
I-4
I-2
I5
I-2
I0
I-1
I0
tp1154
a(I0
I-5
I2
I1
I0
I1
I1
I-3
tp1155
a(I-2
I-2
I1
I-3
I-5
I-3
I-2
I3
tp1156
a(I3
I-2
I-2
I2
I1
I-1
I-3
I-1
tp1157
a(I2
I0
I-3
I-2
I-3
I3
I-1
I1
tp1158
a(I-3
I-2
I0
I0
I-5
I1
I-1
I1
tp1159
a(I-1
I0
I1
I0
I0
I-4
I-2
I0
tp1160
a(I0
I0
I-5
I-1
I2
I-3
I1
I-1
tp1161
a(I2
I-2
I0
I2
I-2
I-2
I0
I-1
tp1162
a(I-3
I-2
I4
I-4
I-5
I1
I2
I0
tp1163
a(I1
I-1
I0
I-3
I0
I0
I-1
I0
tp1164
a(I3
I0
I-5
I-1
I-3
I0
I-1
I-1
tp1165
a(I1
I-3
I-4
I0
I-3
I-3
I-3
I0
tp1166
a(I1
I0
I1
I1
I2
I1
I3
I2
tp1167
a(I-3
I-2
I0
I-1
I0
I2
I-1
I-3
tp1168
a(I-1
I-2
I3
I-1
I-6
I-1
I-5
I0
tp1169
a(I-2
I-1
I-1
I1
I2
I1
I0
I-2
tp1170
a(I0
I-1
I-3
I3
I4
I6
I0
I0
tp1171
a(I1
I3
I-2
I3
I0
I-1
I0
I3
tp1172
a(I-2
I0
I6
I-5
I-7
I2
I-3
I-5
tp1173
a(I-1
I-2
I0
I3
I-2
I2
I0
I4
tp1174
a(I-2
I2
I-4
I0
I0
I-4
I-1
I-4
tp1175
a(I2
I-1
I1
I0
I5
I-2
I3
I-1
tp1176
a(I-1
I-2
I5
I0
I-6
I4
I1
I0
tp1177
a(I1
I-2
I3
I-2
I-4
I-1
I0
I-2
tp1178
a(I-3
I-2
I4
I-1
I-2
I4
I0
I-1
tp1179
a(I-2
I1
I-1
I-1
I-3
I-1
I0
I-4
tp1180
a(I-1
I0
I-5
I1
I2
I-2
I-2
I-1
tp1181
a(I2
I-1
I-1
I-3
I-1
I-4
I-1
I-2
tp1182
a(I-4
I-2
I3
I-4
I-4
I0
I-2
I2
tp1183
a(I0
I-1
I-1
I-3
I3
I-1
I-2
I-1
tp1184
a(I3
I-1
I-3
I4
I-1
I2
I-1
I-4
tp1185
a(I-1
I0
I-2
I0
I-2
I-1
I-1
I0
tp1186
a(I-3
I-6
I2
I-2
I-4
I-1
I2
I2
tp1187
a(I-3
I1
I0
I1
I0
I2
I-2
I1
tp1188
a(I0
I1
I-2
I0
I3
I2
I-3
I-1
tp1189
a(I0
I-1
I-2
I-2
I-1
I3
I-2
I1
tp1190
a(I-1
I1
I0
I3
I1
I-6
I1
I0
tp1191
a(I0
I-3
I-2
I4
I0
I-3
I-1
I-1
tp1192
a(I-3
I-3
I2
I-3
I1
I0
I2
I0
tp1193
a(I-2
I-1
I2
I-2
I-3
I4
I-2
I-4
tp1194
a(I0
I0
I-5
I0
I2
I-2
I-1
I0
tp1195
a(I0
I0
I-1
I0
I4
I-1
I-1
I-2
tp1196
a(I-1
I-1
I3
I-3
I-8
I0
I0
I1
tp1197
a(I1
I0
I1
I-1
I0
I4
I2
I0
tp1198
a(I2
I-3
I-4
I-1
I4
I-3
I-3
I0
tp1199
a(I-1
I0
I3
I4
I-1
I-3
I-1
I1
tp1200
a(I-2
I-5
I0
I-6
I-8
I1
I-3
I-3
tp1201
a(I-3
I-2
I2
I-3
I-1
I2
I-1
I1
tp1202
a(I-4
I0
I1
I1
I1
I0
I-4
I0
tp1203
a(I0
I-2
I2
I0
I-4
I2
I2
I1
tp1204
a(I-1
I1
I0
I-3
I-1
I-1
I0
I-1
tp1205
a(I-3
I-2
I-4
I1
I1
I0
I0
I-1
tp1206
a(I-1
I-3
I2
I-1
I-7
I1
I-2
I-3
tp1207
a(I0
I-1
I-1
I1
I-2
I-2
I-3
I-1
tp1208
a(I-1
I0
I0
I1
I-1
I3
I0
I3
tp1209
a(I-2
I1
I0
I0
I4
I0
I0
I-4
tp1210
a(I-1
I1
I4
I3
I-4
I0
I-4
I0
tp1211
a(I0
I-3
I1
I-4
I-2
I1
I-1
I-3
tp1212
a(I2
I-1
I-3
I2
I-2
I-1
I2
I1
tp1213
a(I0
I-3
I-3
I-1
I-3
I-1
I2
I-1
tp1214
a(I-3
I0
I-3
I2
I-4
I0
I-2
I1
tp1215
a(I2
I-5
I-3
I-2
I-2
I-1
I-3
I-1
tp1216
a(I-1
I-1
I3
I-2
I1
I1
I0
I1
tp1217
a(I-1
I-2
I-1
I-1
I-3
I-1
I-1
I-4
tp1218
a(I-2
I3
I-1
I-1
I3
I-2
I-1
I-1
tp1219
a(I-2
I3
I-4
I-3
I2
I-1
I1
I0
tp1220
a(I-3
I-1
I0
I0
I-9
I0
I0
I-3
tp1221
a(I0
I-2
I-5
I-2
I2
I-1
I-5
I-1
tp1222
a(I2
I-1
I-3
I-6
I0
I-2
I0
I-2
tp1223
a(I0
I0
I-2
I-3
I-5
I-1
I0
I0
tp1224
a(I-2
I3
I1
I-3
I-2
I-5
I0
I0
tp1225
a(I0
I-1
I-1
I8
I-2
I-2
I2
I2
tp1226
a(I-3
I-2
I0
I2
I-4
I-1
I0
I1
tp1227
a(I-1
I1
I0
I2
I-5
I-4
I-1
I1
tp1228
a(I1
I4
I-1
I3
I-2
I0
I-1
I-2
tp1229
a(I-3
I-3
I-1
I-2
I-7
I-2
I2
I-4
tp1230
a(I-1
I-2
I3
I-2
I-2
I3
I-4
I-1
tp1231
a(I0
I-1
I-2
I1
I-3
I-3
I-3
I-1
tp1232
a(I3
I1
I-4
I1
I-2
I2
I1
I0
tp1233
a(I-1
I3
I-1
I2
I0
I-2
I0
I0
tp1234
a(I-4
I-3
I9
I-1
I-5
I0
I-2
I2
tp1235
a(I-1
I-2
I0
I2
I-3
I-5
I-1
I3
tp1236
a(I-1
I-3
I-3
I-2
I0
I-2
I-1
I-1
tp1237
a(I1
I-2
I-3
I6
I2
I-4
I0
I-7
tp1238
a(I2
I1
I3
I-1
I-1
I-1
I-2
I3
tp1239
a(I0
I-1
I0
I1
I4
I0
I-2
I0
tp1240
a(I-3
I-1
I2
I-2
I-4
I-3
I-2
I0
tp1241
a(I-2
I-1
I-1
I-5
I6
I3
I-3
I0
tp1242
a(I-2
I-1
I-3
I0
I-4
I-1
I3
I-4
tp1243
a(I1
I-1
I-1
I-1
I1
I1
I0
I-1
tp1244
a(I-2
I-2
I0
I-6
I0
I1
I0
I1
tp1245
a(I0
I1
I-1
I-2
I3
I2
I-2
I1
tp1246
a(I1
I0
I-2
I0
I-1
I-3
I0
I-4
tp1247
a(I0
I1
I-2
I-1
I1
I-4
I0
I1
tp1248
a(I-2
I-1
I3
I-3
I0
I2
I1
I1
tp1249
a(I-2
I-1
I0
I-3
I-4
I-1
I0
I-3
tp1250
a(I-4
I-2
I1
I-2
I0
I3
I-2
I1
tp1251
a(I1
I0
I1
I-2
I-3
I3
I-2
I-1
tp1252
a(I0
I-3
I-1
I-1
I3
I-1
I-1
I3
tp1253
a(I1
I2
I-2
I2
I6
I-1
I2
I-1
tp1254
a(I-2
I-2
I1
I0
I-8
I0
I-2
I-2
tp1255
a(I-3
I-1
I-1
I0
I0
I-1
I-2
I-4
tp1256
a(I2
I2
I-2
I2
I-4
I-2
I0
I-1
tp1257
a(I0
I-2
I-2
I0
I2
I-3
I-3
I-1
tp1258
a(I-1
I-2
I2
I-1
I-4
I-2
I1
I-1
tp1259
a(I-2
I0
I0
I-1
I-3
I2
I3
I-2
tp1260
a(I3
I1
I-1
I0
I7
I-2
I-2
I-1
tp1261
a(I1
I-3
I-2
I-4
I-4
I-2
I-1
I0
tp1262
a(I-1
I0
I-4
I1
I-3
I-5
I-1
I2
tp1263
a(I-1
I1
I0
I3
I-1
I-4
I-2
I-4
tp1264
a(I-2
I-1
I4
I1
I-2
I-2
I-1
I-2
tp1265
a(I-2
I-2
I1
I-3
I-3
I2
I1
I-3
tp1266
a(I2
I0
I3
I1
I0
I0
I-1
I-3
tp1267
a(I2
I1
I-7
I0
I-1
I-2
I-1
I-1
tp1268
a(I-2
I-1
I4
I1
I-4
I-1
I-4
I-1
tp1269
a(I0
I-1
I3
I-3
I5
I-1
I1
I3
tp1270
a(I1
I-1
I-2
I-3
I-6
I0
I3
I1
tp1271
a(I0
I0
I-2
I0
I-1
I6
I1
I-2
tp1272
a(I-4
I-1
I3
I-3
I-7
I-1
I0
I-2
tp1273
a(I-1
I-4
I2
I-3
I1
I-2
I-3
I0
tp1274
a(I-2
I-1
I-1
I2
I-4
I0
I-1
I0
tp1275
a(I-2
I-1
I-2
I2
I-9
I1
I-2
I-1
tp1276
a(I-1
I-1
I-2
I-2
I-4
I-3
I1
I-1
tp1277
a(I1
I1
I-4
I-1
I3
I0
I1
I-2
tp1278
a(I-1
I-3
I-4
I-7
I5
I-1
I-2
I-3
tp1279
a(I0
I-2
I4
I3
I-2
I-3
I1
I-1
tp1280
a(I2
I0
I-1
I2
I2
I0
I3
I0
tp1281
a(I-3
I-2
I-3
I-5
I-2
I0
I-4
I1
tp1282
a(I-2
I-1
I5
I-2
I-1
I-1
I-1
I3
tp1283
a(I-1
I2
I3
I-1
I-5
I1
I0
I0
tp1284
a(I-3
I-3
I-7
I-1
I2
I3
I1
I1
tp1285
a(I2
I1
I2
I-3
I-2
I0
I-3
I-3
tp1286
a(I2
I0
I0
I2
I1
I1
I-1
I-4
tp1287
a(I-1
I0
I-1
I-3
I-4
I0
I1
I1
tp1288
a(I-3
I2
I2
I0
I-11
I0
I-2
I-1
tp1289
a(I0
I-1
I0
I-1
I9
I-2
I0
I-1
tp1290
a(I0
I-3
I-3
I-1
I-1
I4
I1
I-1
tp1291
a(I-3
I-1
I0
I-1
I1
I1
I-2
I-1
tp1292
a(I-3
I0
I1
I-2
I-8
I3
I1
I-2
tp1293
a(I-2
I0
I0
I-1
I3
I-1
I-2
I2
tp1294
a(I-1
I0
I1
I-1
I4
I-3
I2
I-2
tp1295
a(I1
I0
I1
I-3
I-6
I0
I-3
I2
tp1296
a(I-4
I-2
I-3
I2
I1
I-2
I-1
I-1
tp1297
a(I0
I2
I3
I0
I-5
I1
I1
I1
tp1298
a(I0
I-2
I4
I-2
I-1
I-1
I-3
I-1
tp1299
a(I4
I0
I-1
I-4
I-3
I-2
I-1
I-2
tp1300
a(I2
I2
I-2
I5
I0
I-3
I-2
I-1
tp1301
a(I0
I-3
I-5
I3
I1
I2
I2
I-2
tp1302
a(I-2
I-1
I1
I-2
I-3
I-2
I-1
I1
tp1303
a(I-3
I-3
I0
I-1
I2
I-1
I-2
I0
tp1304
a(I0
I-2
I-1
I-2
I-6
I-7
I0
I-2
tp1305
a(I1
I2
I-1
I1
I-3
I-2
I-1
I-3
tp1306
a(I-3
I-4
I0
I-5
I-4
I-1
I0
I0
tp1307
a(I-4
I1
I-4
I3
I-5
I1
I0
I0
tp1308
a(I1
I-2
I-4
I-2
I2
I-5
I-3
I1
tp1309
a(I-2
I0
I0
I5
I2
I-6
I-2
I0
tp1310
a(I-1
I-1
I0
I-1
I-2
I12
I0
I0
tp1311
a(I1
I0
I-7
I0
I2
I-9
I-1
I2
tp1312
a(I-3
I-5
I8
I-1
I-11
I-1
I-2
I1
tp1313
a(I-5
I-5
I1
I-3
I-1
I-18
I-1
I0
tp1314
a(I-1
I0
I1
I3
I1
I-5
I2
I-1
tp1315
a(I1
I-3
I4
I1
I-5
I3
I1
I0
tp1316
a(I-6
I-4
I6
I-1
I-4
I1
I-5
I-3
tp1317
a(I0
I1
I1
I1
I-8
I10
I-1
I2
tp1318
a(I1
I-2
I0
I-1
I-4
I9
I0
I-2
tp1319
a(I-3
I0
I1
I0
I-1
I11
I0
I0
tp1320
a(I-3
I-4
I5
I-4
I-3
I4
I0
I-1
tp1321
a(I2
I0
I3
I1
I-5
I5
I0
I-3
tp1322
a(I-4
I2
I-3
I2
I-3
I-6
I-2
I0
tp1323
a(I3
I-2
I3
I-2
I0
I-1
I-3
I-3
tp1324
a(I2
I3
I-2
I-3
I4
I-6
I0
I-2
tp1325
a(I1
I-1
I0
I-2
I-11
I-7
I-1
I2
tp1326
a(I-1
I-4
I-2
I7
I6
I-8
I0
I-1
tp1327
a(I-1
I-1
I-6
I-1
I-4
I-23
I1
I0
tp1328
a(I-2
I-2
I2
I1
I7
I-4
I-3
I-1
tp1329
a(I2
I0
I-2
I-3
I-1
I-14
I-3
I1
tp1330
a(I-4
I-3
I5
I-4
I1
I5
I1
I-1
tp1331
a(I1
I-2
I-6
I2
I4
I1
I-3
I1
tp1332
a(I1
I0
I-6
I-1
I-1
I0
I1
I-2
tp1333
a(I0
I0
I5
I-5
I-8
I3
I-2
I-1
tp1334
a(I-1
I-4
I0
I4
I-7
I-6
I2
I-1
tp1335
a(I-2
I1
I-3
I0
I0
I-7
I0
I-4
tp1336
a(I2
I1
I0
I1
I0
I-3
I-1
I-1
tp1337
a(I4
I2
I-4
I1
I5
I2
I0
I-2
tp1338
a(I0
I-2
I-2
I0
I-7
I3
I0
I1
tp1339
a(I-2
I1
I4
I3
I-5
I9
I1
I-2
tp1340
a(I-7
I-4
I14
I-4
I-10
I1
I-2
I3
tp1341
a(I-7
I-1
I-3
I-3
I3
I-3
I-3
I-1
tp1342
a(I0
I0
I-3
I2
I4
I-11
I-1
I2
tp1343
a(I3
I-2
I-1
I-7
I-6
I1
I-1
I-1
tp1344
a(I-2
I2
I-6
I-1
I-3
I-1
I1
I-3
tp1345
a(I0
I-6
I9
I-2
I14
I3
I-1
I2
tp1346
a(I3
I0
I-3
I-2
I4
I1
I-1
I0
tp1347
a(I-1
I1
I-4
I3
I-6
I3
I0
I-1
tp1348
a(I0
I2
I-7
I3
I0
I0
I-2
I0
tp1349
a(I-4
I-3
I1
I-3
I-12
I1
I-3
I1
tp1350
a(I1
I-1
I3
I-6
I1
I-5
I-2
I0
tp1351
a(I2
I0
I-4
I2
I-1
I-7
I2
I-3
tp1352
a(I1
I0
I-2
I-5
I-6
I3
I-4
I-2
tp1353
a(I-2
I0
I3
I-4
I-2
I2
I-2
I2
tp1354
a(I-5
I-5
I3
I2
I7
I-3
I-1
I-1
tp1355
a(I-2
I2
I-2
I1
I-10
I2
I2
I0
tp1356
a(I0
I-2
I-1
I-7
I1
I5
I0
I-1
tp1357
a(I0
I1
I4
I4
I2
I6
I0
I0
tp1358
a(I1
I-1
I1
I-3
I-7
I-1
I2
I-1
tp1359
a(I-1
I-1
I1
I-3
I-8
I0
I1
I-3
tp1360
a(I-1
I-2
I3
I-2
I5
I6
I-3
I-2
tp1361
a(I-2
I-1
I-5
I-2
I-5
I-2
I0
I1
tp1362
a(I2
I3
I-2
I2
I1
I-2
I2
I-2
tp1363
a(I0
I-4
I2
I-7
I5
I-2
I-1
I1
tp1364
a(I-2
I2
I-2
I4
I-3
I-3
I0
I0
tp1365
a(I2
I-2
I1
I-1
I-3
I-8
I1
I-5
tp1366
a(I0
I-2
I1
I1
I8
I0
I-10
I-3
tp1367
a(I-2
I-5
I3
I-5
I-4
I3
I-2
I2
tp1368
a(I1
I3
I-5
I4
I-9
I-10
I-1
I-2
tp1369
a(I0
I2
I-1
I2
I11
I2
I-1
I-1
tp1370
a(I-3
I-2
I3
I0
I-6
I1
I-3
I-1
tp1371
a(I-2
I-1
I-5
I-1
I4
I3
I-1
I-1
tp1372
a(I-1
I4
I-2
I2
I-7
I-2
I-1
I-2
tp1373
a(I-1
I0
I4
I0
I-5
I-6
I-1
I1
tp1374
a(I-2
I-1
I1
I1
I-2
I-2
I3
I-3
tp1375
a(I-1
I-2
I-3
I-3
I-2
I-2
I-3
I-1
tp1376
a(I-1
I0
I7
I-1
I0
I-1
I2
I1
tp1377
a(I0
I0
I1
I-8
I-11
I2
I2
I1
tp1378
a(I2
I-2
I3
I1
I-4
I1
I-1
I2
tp1379
a(I0
I1
I-2
I2
I5
I-5
I-2
I-2
tp1380
a(I3
I-4
I-1
I-1
I-6
I5
I-1
I4
tp1381
a(I1
I-3
I3
I5
I-3
I-1
I1
I1
tp1382
a(I0
I-1
I1
I-2
I-2
I2
I1
I-2
tp1383
a(I-3
I-6
I8
I-6
I0
I4
I-1
I-2
tp1384
a(I-1
I-2
I2
I-2
I-3
I1
I-1
I1
tp1385
a(I1
I0
I-1
I4
I-3
I-5
I-2
I-3
tp1386
a(I1
I-3
I-1
I0
I6
I1
I1
I1
tp1387
a(I1
I-2
I5
I-5
I-4
I2
I-1
I2
tp1388
a(I-2
I-1
I3
I2
I3
I-1
I-1
I-1
tp1389
a(I2
I-2
I-2
I2
I2
I1
I0
I-2
tp1390
a(I-2
I0
I0
I0
I-4
I-4
I-1
I-2
tp1391
a(I0
I1
I5
I3
I-1
I1
I2
I-2
tp1392
a(I-3
I-3
I-1
I-4
I-5
I3
I-2
I1
tp1393
a(I0
I1
I-5
I2
I-8
I-2
I1
I-2
tp1394
a(I-1
I1
I0
I0
I2
I-1
I-3
I-4
tp1395
a(I0
I-1
I-2
I-1
I-4
I-2
I-1
I-2
tp1396
a(I-1
I0
I-1
I1
I4
I2
I1
I4
tp1397
a(I-4
I-3
I-1
I-4
I-9
I3
I-3
I0
tp1398
a(I-1
I0
I-2
I9
I0
I-1
I3
I-1
tp1399
a(I2
I0
I0
I-3
I7
I3
I0
I-1
tp1400
a(I-1
I-3
I3
I4
I4
I0
I2
I-1
tp1401
a(I-2
I-4
I6
I0
I-5
I-1
I-1
I2
tp1402
a(I-5
I-2
I-2
I2
I3
I-2
I-2
I-1
tp1403
a(I17
I3
I-2
I-4
I0
I-2
I-2
I-1
tp1404
a(I-14
I-1
I-8
I5
I1
I-7
I1
I-3
tp1405
a(I-2
I-2
I4
I-4
I0
I2
I-1
I1
tp1406
a(I16
I4
I-3
I1
I-2
I-2
I2
I1
tp1407
a(I-31
I2
I-3
I3
I-8
I-4
I-3
I-4
tp1408
a(I25
I-6
I-5
I-1
I-2
I-4
I-6
I0
tp1409
a(I-59
I-12
I-8
I0
I-4
I0
I0
I-3
tp1410
a(I71
I7
I-6
I2
I10
I0
I4
I4
tp1411
a(I-35
I-8
I8
I-11
I-24
I2
I-9
I-4
tp1412
a(I23
I4
I2
I-4
I-2
I0
I-1
I4
tp1413
a(I21
I-9
I10
I-2
I-16
I3
I-2
I-1
tp1414
a(I-12
I17
I-3
I2
I1
I1
I-1
I1
tp1415
a(I-9
I-9
I-5
I0
I-2
I-5
I4
I-2
tp1416
a(I7
I-1
I7
I2
I6
I-2
I-3
I1
tp1417
a(I10
I3
I-5
I5
I0
I1
I4
I0
tp1418
a(I-30
I0
I-2
I5
I-8
I2
I3
I-8
tp1419
a(I-3
I0
I1
I0
I14
I-4
I-2
I2
tp1420
a(I-7
I-6
I5
I-5
I-3
I-1
I1
I-2
tp1421
a(I-4
I-1
I-2
I4
I-1
I0
I2
I3
tp1422
a(I-6
I-4
I4
I-3
I4
I2
I-4
I-4
tp1423
a(I7
I3
I-14
I6
I10
I1
I1
I-5
tp1424
a(I-4
I-5
I-1
I2
I1
I-7
I-1
I-5
tp1425
a(I18
I0
I13
I-12
I-3
I2
I2
I5
tp1426
a(I-16
I-5
I12
I1
I-14
I-6
I-2
I6
tp1427
a(I5
I-1
I-1
I1
I-2
I-6
I-6
I4
tp1428
a(I-15
I-6
I0
I-4
I16
I-13
I-2
I-2
tp1429
a(I2
I0
I-13
I-1
I-19
I10
I-1
I0
tp1430
a(I-3
I-1
I1
I-2
I2
I8
I-5
I2
tp1431
a(I2
I-1
I11
I-1
I-12
I2
I-1
I-3
tp1432
a(I-2
I-2
I-4
I-4
I-3
I-3
I-2
I1
tp1433
a(I7
I3
I-1
I9
I16
I13
I8
I-6
tp1434
a(I-6
I1
I-2
I-9
I-16
I10
I-18
I-4
tp1435
a(I3
I-1
I11
I-4
I5
I-1
I-8
I-1
tp1436
a(I-9
I0
I6
I-3
I1
I1
I-11
I-1
tp1437
a(I1
I-1
I-4
I3
I1
I-13
I-4
I0
tp1438
a(I-2
I0
I-3
I-3
I-2
I-9
I0
I-1
tp1439
a(I-2
I-5
I5
I-2
I1
I-4
I-4
I1
tp1440
a(I-8
I-3
I-1
I-1
I-5
I3
I7
I1
tp1441
a(I27
I7
I1
I-1
I-4
I2
I-2
I-1
tp1442
a(I0
I-2
I-2
I-3
I-2
I34
I5
I-2
tp1443
a(I1
I11
I-4
I3
I3
I-13
I-1
I1
tp1444
a(I1
I-3
I0
I-1
I-10
I1
I8
I1
tp1445
a(I6
I-1
I6
I2
I3
I-5
I-5
I-2
tp1446
a(I-1
I0
I-1
I3
I6
I-10
I-2
I2
tp1447
a(I-2
I1
I-7
I-2
I4
I3
I-1
I-3
tp1448
a(I5
I1
I-2
I2
I-12
I-2
I-2
I-2
tp1449
a(I-6
I-4
I0
I-3
I16
I3
I-2
I0
tp1450
a(I3
I0
I-1
I-2
I-10
I-9
I-3
I-1
tp1451
a(I-6
I-4
I-2
I5
I-4
I6
I-3
I-2
tp1452
a(I-2
I1
I-5
I0
I0
I-12
I3
I0
tp1453
a(I0
I-3
I5
I-2
I3
I-2
I4
I-2
tp1454
a(I-3
I-2
I0
I3
I-5
I1
I-3
I-1
tp1455
a(I-1
I0
I7
I-1
I3
I1
I1
I-2
tp1456
a(I-1
I2
I1
I9
I-4
I-4
I-3
I0
tp1457
a(I-4
I-2
I-9
I1
I7
I-2
I0
I1
tp1458
a(I3
I-2
I-9
I0
I7
I0
I4
I-2
tp1459
a(I5
I2
I6
I3
I-12
I-4
I2
I3
tp1460
a(I0
I-1
I0
I-2
I7
I-3
I-3
I-1
tp1461
a(I-2
I-4
I1
I-1
I0
I-2
I0
I0
tp1462
a(I-1
I0
I0
I-7
I-3
I-1
I2
I4
tp1463
a(I0
I-2
I2
I6
I-2
I0
I-2
I0
tp1464
a(I-4
I-1
I2
I-9
I-3
I-5
I2
I-3
tp1465
a(I-2
I-1
I6
I4
I-3
I1
I-3
I0
tp1466
a(I-3
I-1
I3
I-1
I-2
I0
I-4
I-1
tp1467
a(I1
I2
I-1
I-4
I3
I0
I-3
I0
tp1468
a(I0
I2
I-2
I4
I-1
I-2
I-1
I0
tp1469
a(I-3
I-2
I-6
I2
I-2
I-3
I0
I-4
tp1470
a(I-1
I-2
I0
I4
I1
I-4
I0
I-1
tp1471
a(I0
I-2
I-8
I2
I1
I-3
I-2
I-1
tp1472
a(I-2
I-2
I4
I3
I-4
I3
I-2
I-1
tp1473
a(I0
I1
I0
I-2
I0
I-1
I2
I1
tp1474
a(I-3
I-2
I-2
I-5
I-8
I2
I-3
I-2
tp1475
a(I0
I0
I-3
I2
I1
I1
I-1
I0
tp1476
a(I3
I4
I-4
I1
I0
I3
I-4
I2
tp1477
a(I-3
I-8
I-3
I0
I-3
I2
I0
I2
tp1478
a(I-3
I-3
I4
I1
I-1
I-2
I-1
I-2
tp1479
a(I-1
I-1
I4
I-4
I-4
I2
I-1
I-1
tp1480
a(I0
I2
I-3
I-1
I3
I-2
I-1
I2
tp1481
a(I1
I1
I-2
I2
I0
I-3
I1
I-2
tp1482
a(I1
I2
I-1
I-1
I-5
I-4
I1
I-2
tp1483
a(I-4
I-1
I5
I-2
I-2
I-2
I-1
I-2
tp1484
a(I-1
I1
I-3
I5
I-2
I-1
I-1
I-2
tp1485
a(I0
I1
I-11
I6
I4
I-7
I-3
I-1
tp1486
a(I-2
I-4
I3
I3
I2
I-1
I1
I-1
tp1487
a(I-1
I0
I2
I-2
I-1
I4
I1
I0
tp1488
a(I3
I1
I-6
I1
I-2
I1
I-2
I-3
tp1489
a(I0
I1
I-3
I-2
I2
I0
I1
I0
tp1490
a(I-1
I0
I-8
I-5
I5
I-2
I-1
I-2
tp1491
a(I1
I2
I3
I1
I4
I-3
I0
I-4
tp1492
a(I1
I0
I1
I0
I-3
I-6
I1
I2
tp1493
a(I-2
I1
I1
I-9
I-7
I0
I-3
I-2
tp1494
a(I4
I2
I-6
I0
I2
I0
I0
I0
tp1495
a(I0
I1
I-5
I-2
I-1
I-1
I3
I1
tp1496
a(I1
I-1
I5
I-5
I-2
I-1
I3
I-1
tp1497
a(I-3
I-4
I5
I-7
I-2
I3
I-2
I-1
tp1498
a(I1
I1
I0
I2
I-6
I1
I3
I-2
tp1499
a(I1
I2
I-2
I-3
I-2
I2
I-1
I-3
tp1500
a(I-3
I-4
I0
I-5
I7
I3
I-1
I-4
tp1501
a(I-2
I-5
I0
I0
I-5
I8
I-1
I-1
tp1502
a(I4
I3
I-14
I3
I6
I-2
I-1
I-4
tp1503
a(I-3
I-2
I7
I-4
I-5
I-2
I0
I2
tp1504
a(I-1
I-1
I0
I4
I-2
I-3
I-4
I0
tp1505
a(I0
I1
I-9
I-4
I-5
I-6
I-2
I-2
tp1506
a(I-2
I-4
I0
I-5
I-3
I3
I-3
I2
tp1507
a(I0
I0
I1
I4
I2
I-2
I-5
I1
tp1508
a(I0
I-2
I-1
I2
I2
I2
I-3
I-1
tp1509
a(I3
I-3
I4
I0
I5
I-2
I3
I0
tp1510
a(I0
I1
I-2
I2
I-6
I-9
I0
I-1
tp1511
a(I-1
I-2
I2
I-6
I-5
I2
I0
I1
tp1512
a(I-6
I1
I6
I1
I0
I-1
I0
I-2
tp1513
a(I-2
I-4
I-4
I4
I2
I-4
I0
I-2
tp1514
a(I0
I-1
I5
I-5
I-2
I3
I0
I3
tp1515
a(I4
I-1
I-4
I-3
I0
I7
I-1
I-2
tp1516
a(I2
I0
I-3
I4
I3
I4
I-2
I-1
tp1517
a(I-2
I-3
I0
I1
I-8
I6
I0
I-4
tp1518
a(I-5
I-3
I4
I-6
I-8
I4
I-4
I1
tp1519
a(I-1
I-2
I1
I-2
I-9
I-1
I-2
I2
tp1520
a(I0
I1
I-4
I7
I-1
I-5
I-1
I1
tp1521
a(I-1
I-4
I5
I-1
I-8
I-2
I-1
I0
tp1522
a(I1
I-1
I1
I-1
I-9
I3
I-1
I1
tp1523
a(I-3
I1
I0
I-1
I8
I1
I-1
I-1
tp1524
a(I-2
I0
I-3
I4
I-2
I-4
I1
I-2
tp1525
a(I-1
I0
I0
I0
I-2
I-2
I-1
I-1
tp1526
a(I0
I-2
I-4
I0
I-2
I2
I2
I-2
tp1527
a(I-3
I-3
I2
I2
I-4
I-3
I1
I1
tp1528
a(I-2
I-1
I1
I-1
I-2
I1
I0
I1
tp1529
a(I0
I-3
I-6
I5
I1
I-1
I-4
I-1
tp1530
a(I0
I-2
I-2
I0
I4
I1
I-3
I-1
tp1531
a(I-2
I-2
I3
I-1
I-4
I3
I-2
I3
tp1532
a(I-3
I-3
I3
I0
I3
I3
I1
I-1
tp1533
a(I-1
I-2
I-1
I0
I-1
I0
I1
I-1
tp1534
a(I2
I1
I0
I4
I-4
I0
I3
I3
tp1535
a(I-5
I0
I4
I-5
I-2
I2
I1
I3
tp1536
a(I0
I2
I0
I1
I-1
I1
I-1
I2
tp1537
a(I2
I1
I-3
I3
I4
I-1
I-1
I0
tp1538
a(I-3
I0
I-3
I-5
I-3
I-2
I-1
I1
tp1539
a(I-3
I-1
I1
I-1
I-4
I-1
I0
I1
tp1540
a(I-4
I0
I0
I2
I-2
I-3
I-1
I-2
tp1541
a(I0
I3
I-4
I-3
I1
I-1
I0
I-1
tp1542
a(I1
I-1
I-3
I0
I6
I0
I-2
I-4
tp1543
a(I0
I-3
I5
I-2
I-3
I1
I-1
I2
tp1544
a(I-1
I0
I-1
I-2
I4
I-1
I0
I-1
tp1545
a(I-1
I-1
I-2
I3
I-1
I2
I-1
I-1
tp1546
a(I-2
I2
I-1
I-2
I-2
I-2
I0
I-2
tp1547
a(I3
I1
I2
I0
I-1
I-2
I2
I1
tp1548
a(I0
I0
I-3
I0
I-5
I-1
I-1
I-2
tp1549
a(I-3
I-2
I6
I-1
I-3
I1
I-3
I0
tp1550
a(I0
I-1
I-1
I-3
I-4
I1
I-1
I1
tp1551
a(I1
I1
I-3
I-3
I-2
I3
I-1
I-4
tp1552
a(I-1
I-1
I-2
I1
I1
I1
I2
I0
tp1553
a(I-4
I-1
I6
I-2
I-1
I-3
I-2
I1
tp1554
a(I-1
I0
I-2
I0
I-4
I2
I-3
I-3
tp1555
a(I1
I-3
I1
I-4
I6
I-4
I-1
I1
tp1556
a(I1
I-1
I-1
I4
I-6
I2
I-3
I-1
tp1557
a(I-3
I-3
I2
I-2
I0
I0
I1
I1
tp1558
a(I-1
I3
I-3
I-3
I-1
I-2
I-1
I0
tp1559
a(I1
I-1
I3
I1
I-7
I2
I-1
I0
tp1560
a(I-1
I-2
I-1
I-4
I-6
I-2
I1
I2
tp1561
a(I-1
I-2
I0
I2
I1
I-3
I1
I0
tp1562
a(I0
I-1
I-1
I-2
I-2
I2
I1
I-3
tp1563
a(I-2
I-1
I-1
I3
I-6
I-1
I-3
I-2
tp1564
a(I0
I0
I2
I-3
I-1
I2
I-1
I1
tp1565
a(I-1
I0
I0
I2
I-7
I0
I2
I-1
tp1566
a(I-3
I-1
I-5
I1
I5
I-1
I-2
I1
tp1567
a(I-4
I-4
I7
I-3
I-4
I0
I-1
I0
tp1568
a(I-1
I-1
I2
I3
I-1
I0
I0
I-1
tp1569
a(I1
I-1
I-2
I-3
I-4
I2
I0
I-2
tp1570
a(I-1
I-3
I5
I2
I-1
I2
I-2
I1
tp1571
a(I0
I2
I-6
I2
I-3
I2
I-1
I0
tp1572
a(I0
I0
I-1
I1
I-4
I1
I0
I0
tp1573
a(I-2
I-3
I7
I-2
I5
I1
I0
I-3
tp1574
a(I-1
I0
I3
I4
I-1
I1
I-1
I1
tp1575
a(I1
I0
I0
I1
I-5
I-5
I0
I0
tp1576
a(I-2
I0
I0
I1
I-1
I-1
I-1
I1
tp1577
a(I-2
I3
I-1
I-1
I-3
I1
I0
I-3
tp1578
a(I0
I0
I-1
I-1
I-8
I-2
I-4
I0
tp1579
a(I0
I-1
I-3
I4
I1
I-3
I0
I-1
tp1580
a(I0
I-2
I1
I-4
I0
I2
I-2
I-1
tp1581
a(I-1
I-6
I6
I8
I-6
I3
I-2
I2
tp1582
a(I0
I-2
I-1
I1
I2
I-6
I0
I-2
tp1583
a(I-6
I-2
I2
I-2
I0
I-2
I-1
I1
tp1584
a(I-2
I-3
I-2
I0
I3
I2
I0
I0
tp1585
a(I1
I-3
I-2
I-2
I2
I0
I0
I0
tp1586
a(I1
I1
I-1
I-1
I-4
I-1
I-1
I-2
tp1587
a(I1
I-4
I1
I-9
I-2
I-3
I0
I1
tp1588
a(I2
I1
I-7
I2
I1
I-10
I1
I-2
tp1589
a(I2
I0
I-5
I0
I-2
I0
I0
I-3
tp1590
a(I1
I-1
I1
I-1
I1
I4
I-1
I1
tp1591
a(I-4
I-2
I2
I-1
I-7
I-2
I-1
I-3
tp1592
a(I-1
I-1
I-2
I3
I0
I-3
I-3
I-3
tp1593
a(I0
I1
I0
I3
I5
I-4
I-2
I-3
tp1594
a(I-1
I-1
I-1
I-3
I0
I-1
I1
I-1
tp1595
a(I-1
I0
I-4
I0
I0
I2
I0
I-1
tp1596
a(I-1
I-3
I5
I-1
I0
I-1
I0
I2
tp1597
a(I-1
I-1
I5
I-2
I-8
I1
I0
I0
tp1598
a(I0
I-2
I-1
I-3
I-1
I0
I2
I5
tp1599
a(I0
I0
I-3
I-1
I0
I-4
I4
I-2
tp1600
a(I1
I-2
I-3
I-1
I-2
I-2
I1
I-1
tp1601
a(I-3
I-1
I5
I-3
I-1
I0
I0
I-2
tp1602
a(I-4
I0
I-1
I2
I-1
I-1
I-1
I-2
tp1603
a(I0
I-1
I-2
I-2
I1
I0
I2
I0
tp1604
a(I-1
I0
I2
I-4
I0
I0
I0
I-1
tp1605
a(I0
I-3
I3
I-5
I-7
I-2
I-3
I1
tp1606
a(I-2
I3
I-6
I0
I4
I-2
I2
I-2
tp1607
a(I0
I-1
I-1
I-1
I-6
I2
I-4
I-1
tp1608
a(I2
I-3
I-1
I1
I1
I5
I1
I-2
tp1609
a(I0
I2
I-1
I0
I1
I-2
I0
I-2
tp1610
a(I-1
I1
I0
I-1
I-3
I2
I-1
I-1
tp1611
a(I-4
I-2
I0
I1
I1
I-2
I-1
I-4
tp1612
a(I-1
I0
I-4
I3
I1
I0
I0
I-3
tp1613
a(I1
I-2
I-1
I0
I-3
I2
I0
I-1
tp1614
a(I3
I-2
I0
I-1
I0
I-1
I0
I3
tp1615
a(I-2
I-4
I2
I0
I-1
I-1
I-3
I0
tp1616
a(I-1
I1
I3
I-2
I1
I0
I2
I-2
tp1617
a(I1
I1
I-7
I-3
I-4
I0
I-1
I0
tp1618
a(I-2
I-1
I-1
I-2
I1
I-3
I-2
I-2
tp1619
a(I-2
I-3
I3
I-1
I-1
I-2
I-3
I1
tp1620
a(I-3
I0
I3
I2
I-8
I-3
I-2
I-1
tp1621
a(I-1
I0
I-4
I1
I6
I-4
I-1
I-3
tp1622
a(I4
I2
I-1
I-1
I-3
I1
I1
I-1
tp1623
a(I-2
I-2
I0
I-1
I-2
I-1
I0
I0
tp1624
a(I-1
I-3
I2
I-1
I-1
I1
I-3
I-1
tp1625
a(I-1
I0
I1
I-2
I-5
I0
I0
I0
tp1626
a(I-2
I-2
I2
I-1
I-3
I0
I-1
I1
tp1627
a(I0
I1
I-1
I0
I-6
I-2
I-1
I1
tp1628
a(I-2
I-2
I2
I-3
I-4
I-1
I1
I-3
tp1629
a(I-4
I-2
I-1
I2
I2
I-3
I0
I-1
tp1630
a(I-5
I-3
I5
I-3
I-10
I2
I-1
I0
tp1631
a(I-2
I0
I1
I3
I10
I-2
I0
I1
tp1632
a(I-2
I0
I-4
I5
I3
I-3
I-1
I0
tp1633
a(I-2
I0
I0
I0
I-4
I-1
I1
I0
tp1634
a(I-2
I-2
I-3
I-3
I5
I-4
I0
I0
tp1635
a(I0
I0
I0
I1
I0
I-2
I0
I-3
tp1636
a(I3
I-1
I-2
I0
I-4
I1
I-2
I-2
tp1637
a(I0
I-2
I5
I-5
I7
I-1
I-1
I-1
tp1638
a(I-2
I-2
I1
I-1
I-6
I4
I0
I2
tp1639
a(I-3
I-1
I0
I-1
I-2
I-3
I-4
I0
tp1640
a(I-1
I-1
I0
I0
I3
I5
I-1
I0
tp1641
a(I-1
I-2
I7
I1
I-3
I2
I-1
I1
tp1642
a(I2
I-1
I-2
I0
I0
I-1
I2
I-1
tp1643
a(I-1
I1
I-1
I-3
I-5
I-2
I-1
I-1
tp1644
a(I-1
I-3
I7
I-3
I-1
I2
I-2
I1
tp1645
a(I-2
I1
I-3
I3
I0
I-1
I-1
I-4
tp1646
a(I-1
I1
I-2
I-4
I-5
I0
I-1
I-1
tp1647
a(I0
I-2
I-1
I1
I1
I-2
I-2
I-1
tp1648
a(I-2
I-2
I6
I-2
I-3
I-1
I0
I-2
tp1649
a(I-2
I-2
I-3
I1
I-3
I-4
I-1
I-2
tp1650
a(I-1
I-2
I-2
I5
I3
I-4
I-1
I2
tp1651
a(I-2
I-3
I1
I-7
I8
I5
I-1
I0
tp1652
a(I0
I-2
I5
I0
I-9
I0
I-2
I-2
tp1653
a(I0
I-2
I-1
I-1
I0
I-2
I-3
I-3
tp1654
a(I-3
I0
I4
I-2
I1
I5
I-2
I-1
tp1655
a(I-1
I1
I-2
I0
I-4
I-1
I1
I1
tp1656
a(I0
I0
I-3
I1
I2
I-4
I-2
I-1
tp1657
a(I-1
I0
I-1
I2
I-4
I-2
I1
I0
tp1658
a(I-4
I-6
I3
I-5
I-6
I3
I0
I3
tp1659
a(I0
I-1
I-2
I2
I0
I-4
I-2
I-5
tp1660
a(I2
I0
I-3
I3
I4
I0
I1
I0
tp1661
a(I1
I-1
I3
I1
I-4
I0
I1
I-1
tp1662
a(I0
I-1
I2
I-2
I-4
I3
I0
I-3
tp1663
a(I-1
I-1
I-4
I-2
I1
I1
I-2
I3
tp1664
a(I-2
I-5
I-2
I1
I5
I-4
I-1
I-1
tp1665
a(I1
I-3
I0
I1
I-3
I3
I0
I-1
tp1666
a(I0
I1
I-3
I4
I2
I0
I-1
I-1
tp1667
a(I2
I0
I-3
I-2
I-15
I-2
I-1
I-3
tp1668
a(I-2
I-2
I2
I-4
I-2
I-1
I0
I0
tp1669
a(I-2
I2
I-1
I0
I6
I2
I-3
I0
tp1670
a(I2
I0
I-3
I0
I-2
I-3
I1
I0
tp1671
a(I1
I-2
I3
I-3
I-3
I2
I0
I1
tp1672
a(I-3
I-4
I7
I-2
I-2
I0
I0
I0
tp1673
a(I-1
I1
I0
I-1
I3
I-3
I1
I0
tp1674
a(I3
I-1
I-4
I-1
I-1
I-3
I-1
I0
tp1675
a(I-3
I-1
I0
I-1
I0
I-2
I0
I-2
tp1676
a(I0
I-1
I0
I-1
I-5
I3
I-2
I-1
tp1677
a(I-1
I3
I-6
I-4
I-5
I2
I1
I0
tp1678
a(I-1
I-1
I1
I1
I-4
I-2
I-2
I3
tp1679
a(I-3
I1
I-2
I5
I5
I-3
I-2
I-1
tp1680
a(I2
I2
I-6
I-2
I-4
I-3
I0
I-2
tp1681
a(I-1
I-4
I1
I2
I-5
I2
I0
I0
tp1682
a(I0
I-4
I2
I-2
I-4
I0
I1
I0
tp1683
a(I2
I-3
I-4
I-2
I0
I1
I-1
I-1
tp1684
a(I-1
I0
I-2
I1
I4
I-3
I-1
I-4
tp1685
a(I-1
I-2
I2
I-1
I-1
I2
I-1
I-1
tp1686
a(I-1
I-1
I5
I-2
I-4
I-2
I-2
I-1
tp1687
a(I0
I1
I2
I4
I0
I-3
I0
I0
tp1688
a(I-1
I0
I-2
I2
I-6
I3
I0
I-2
tp1689
a(I1
I-1
I4
I1
I2
I2
I-1
I2
tp1690
a(I1
I0
I-2
I0
I0
I-1
I1
I0
tp1691
a(I-2
I-1
I0
I-3
I1
I-1
I-1
I2
tp1692
a(I-1
I-3
I5
I0
I-5
I-2
I1
I0
tp1693
a(I0
I-2
I-3
I-1
I-3
I0
I0
I0
tp1694
a(I-1
I0
I0
I4
I1
I-1
I-3
I-1
tp1695
a(I0
I-1
I0
I-5
I-4
I2
I1
I1
tp1696
a(I0
I-5
I2
I-2
I-3
I-1
I0
I0
tp1697
a(I-1
I2
I0
I1
I3
I0
I-2
I-2
tp1698
a(I0
I1
I-2
I3
I3
I-2
I-2
I0
tp1699
a(I-3
I-2
I1
I-4
I-4
I2
I1
I-2
tp1700
a(I-2
I3
I-4
I-5
I-2
I0
I-1
I-1
tp1701
a(I-2
I-2
I-1
I3
I2
I0
I0
I-2
tp1702
a(I-2
I0
I5
I2
I-3
I1
I4
I-2
tp1703
a(I-1
I-3
I3
I-2
I-1
I1
I-1
I1
tp1704
a(I-1
I2
I-2
I-2
I1
I-3
I2
I-2
tp1705
a(I-1
I-1
I-1
I0
I-5
I-2
I-1
I1
tp1706
a(I-2
I-1
I2
I1
I-1
I0
I-1
I-1
tp1707
a(I-1
I-3
I0
I-4
I2
I-1
I0
I2
tp1708
a(I1
I0
I2
I1
I-1
I0
I2
I-1
tp1709
a(I-1
I-2
I-2
I-4
I2
I-1
I-2
I1
tp1710
a(I-2
I-2
I-1
I-1
I-3
I1
I2
I-2
tp1711
a(I0
I0
I-5
I0
I-5
I-1
I-1
I-3
tp1712
a(I-2
I1
I-3
I1
I9
I-1
I-3
I-3
tp1713
a(I0
I-1
I-1
I-4
I-4
I1
I-2
I2
tp1714
a(I1
I-4
I0
I-3
I1
I1
I2
I-3
tp1715
a(I2
I2
I-2
I5
I-2
I0
I-2
I-2
tp1716
a(I-2
I0
I0
I-2
I6
I-4
I-2
I0
tp1717
a(I-5
I0
I-4
I4
I-2
I-3
I1
I2
tp1718
a(I-1
I0
I-3
I1
I-3
I0
I-1
I-3
tp1719
a(I-2
I0
I-2
I-1
I-2
I2
I0
I1
tp1720
a(I1
I-4
I4
I-3
I-9
I4
I-2
I-1
tp1721
a(I0
I-1
I1
I3
I-3
I2
I-2
I0
tp1722
a(I0
I3
I-5
I-6
I0
I-2
I0
I2
tp1723
a(I-1
I0
I2
I1
I3
I-1
I2
I-2
tp1724
a(I1
I0
I5
I-5
I-1
I-2
I1
I3
tp1725
a(I1
I-4
I2
I-3
I-1
I1
I-1
I-2
tp1726
a(I-1
I0
I0
I-2
I-2
I1
I-1
I0
tp1727
a(I-2
I1
I2
I0
I-6
I-2
I-1
I-1
tp1728
a(I-3
I0
I-6
I6
I5
I-3
I1
I0
tp1729
a(I-2
I-2
I-2
I1
I5
I-1
I-1
I-2
tp1730
a(I-2
I-2
I3
I0
I-5
I-1
I-1
I-3
tp1731
a(I-1
I-2
I3
I0
I6
I-2
I-2
I0
tp1732
a(I0
I-3
I4
I-1
I-5
I0
I-2
I0
tp1733
a(I0
I0
I0
I1
I-2
I-3
I-1
I0
tp1734
a(I1
I-2
I-2
I-4
I-5
I-3
I0
I0
tp1735
a(I0
I1
I5
I-2
I-2
I1
I1
I3
tp1736
a(I-2
I0
I-3
I-1
I6
I-3
I-1
I-1
tp1737
a(I1
I0
I-1
I-2
I0
I1
I1
I-2
tp1738
a(I-2
I-1
I-4
I0
I3
I1
I-1
I-1
tp1739
a(I-2
I-2
I-1
I0
I4
I-4
I3
I0
tp1740
a(I0
I0
I2
I-1
I-6
I2
I-1
I-3
tp1741
a(I-2
I-2
I1
I2
I-5
I-2
I1
I1
tp1742
a(I-1
I2
I-6
I2
I1
I-3
I-1
I-2
tp1743
a(I0
I-2
I-3
I-3
I0
I0
I-1
I1
tp1744
a(I-3
I-4
I-1
I-4
I-3
I2
I0
I1
tp1745
a(I-3
I-2
I3
I-1
I-4
I0
I-3
I-1
tp1746
a(I0
I0
I-5
I3
I-1
I-4
I3
I-1
tp1747
a(I-1
I0
I-4
I2
I2
I-1
I-3
I-2
tp1748
a(I-2
I-2
I3
I2
I0
I-1
I-1
I-2
tp1749
a(I-1
I-3
I3
I-4
I-6
I2
I-2
I1
tp1750
a(I1
I-1
I2
I-1
I-3
I4
I1
I1
tp1751
a(I-3
I-4
I1
I-1
I2
I2
I-3
I-3
tp1752
a(I-2
I2
I-1
I3
I-2
I-2
I-2
I2
tp1753
a(I1
I2
I-2
I3
I1
I-2
I3
I-4
tp1754
a(I-1
I-2
I5
I0
I-4
I-2
I0
I-2
tp1755
a(I-1
I1
I4
I-7
I-7
I3
I-2
I-3
tp1756
a(I-1
I-2
I-2
I-2
I0
I3
I-1
I0
tp1757
a(I0
I1
I-2
I-1
I2
I-2
I-4
I2
tp1758
a(I-1
I1
I-3
I-4
I-4
I4
I-2
I-1
tp1759
a(I-1
I-2
I1
I2
I0
I-1
I2
I4
tp1760
a(I1
I-1
I-2
I-1
I-6
I3
I2
I0
tp1761
a(I-1
I-1
I4
I-1
I14
I-1
I-3
I-2
tp1762
a(I2
I1
I-5
I-2
I5
I0
I-2
I0
tp1763
a(I2
I-1
I-2
I-1
I-5
I0
I2
I1
tp1764
a(I-5
I-3
I1
I-1
I-3
I2
I-3
I1
tp1765
a(I-1
I2
I-3
I1
I-1
I-2
I-2
I-1
tp1766
a(I1
I-1
I-1
I-2
I-3
I-3
I2
I0
tp1767
a(I-1
I1
I-4
I0
I3
I0
I-2
I0
tp1768
a(I-3
I-4
I0
I2
I-5
I-4
I1
I-5
tp1769
a(I-1
I-2
I1
I-8
I-1
I-2
I-1
I0
tp1770
a(I-1
I-1
I-7
I2
I-6
I-1
I-3
I-3
tp1771
a(I6
I5
I-8
I6
I1
I-19
I-2
I-4
tp1772
a(I5
I2
I-1
I10
I20
I-29
I4
I1
tp1773
a(I-1
I0
I-9
I3
I4
I-9
I-1
I-1
tp1774
a(I0
I-1
I-7
I4
I5
I-6
I0
I1
tp1775
a(I2
I-2
I-5
I-2
I-1
I15
I1
I1
tp1776
a(I-5
I-9
I19
I-12
I-20
I56
I-7
I4
tp1777
a(I-5
I-3
I7
I-3
I-7
I7
I-3
I-3
tp1778
a(I-1
I1
I-2
I0
I7
I-9
I-1
I-3
tp1779
a(I-3
I0
I-3
I9
I-4
I-18
I-1
I-1
tp1780
a(I-1
I-1
I8
I-3
I-5
I-11
I-1
I2
tp1781
a(I-2
I0
I3
I-6
I-5
I10
I-3
I1
tp1782
a(I0
I-1
I2
I-3
I-3
I25
I-2
I-1
tp1783
a(I-1
I-3
I0
I-3
I1
I8
I0
I0
tp1784
a(I-3
I-1
I2
I0
I-7
I1
I1
I1
tp1785
a(I-3
I-2
I-4
I0
I-6
I11
I-4
I0
tp1786
a(I-2
I1
I-1
I-1
I-3
I-10
I0
I-4
tp1787
a(I0
I-3
I1
I0
I-2
I-24
I-1
I0
tp1788
a(I2
I4
I-5
I11
I-3
I-19
I1
I-1
tp1789
a(I2
I1
I-4
I-7
I6
I-4
I-1
I-1
tp1790
a(I0
I-3
I5
I-10
I-6
I5
I-3
I2
tp1791
a(I-3
I-3
I6
I-4
I-10
I12
I0
I-2
tp1792
a(I-1
I-5
I0
I-3
I-1
I6
I1
I1
tp1793
a(I0
I-3
I-2
I2
I-1
I9
I0
I-4
tp1794
a(I0
I0
I-5
I1
I1
I-2
I-1
I-1
tp1795
a(I-2
I0
I8
I1
I2
I-7
I-1
I2
tp1796
a(I1
I3
I3
I-2
I3
I-5
I-1
I1
tp1797
a(I0
I2
I-1
I0
I-1
I-4
I0
I-3
tp1798
a(I1
I8
I2
I-2
I9
I1
I0
I-2
tp1799
a(I2
I3
I-5
I1
I-6
I1
I2
I1
tp1800
a(I-1
I-4
I1
I-5
I-1
I2
I-2
I1
tp1801
a(I0
I-3
I-1
I1
I0
I-1
I-2
I-3
tp1802
a(I-2
I-2
I-5
I-2
I-1
I-4
I-1
I-1
tp1803
a(I-1
I1
I-1
I0
I9
I2
I0
I2
tp1804
a(I0
I0
I4
I-2
I-8
I-1
I0
I1
tp1805
a(I-1
I-3
I2
I1
I-2
I5
I0
I2
tp1806
a(I-1
I-1
I-5
I0
I3
I-2
I-1
I-1
tp1807
a(I2
I0
I-6
I4
I4
I-4
I-1
I-4
tp1808
a(I-2
I-5
I-1
I-3
I-8
I1
I-2
I0
tp1809
a(I0
I-2
I3
I-3
I5
I1
I0
I-2
tp1810
a(I-1
I2
I6
I-1
I-4
I-1
I-2
I1
tp1811
a(I0
I0
I4
I-1
I-3
I-1
I-1
I0
tp1812
a(I1
I-1
I-5
I-7
I-1
I-2
I-1
I1
tp1813
a(I-4
I-1
I0
I0
I2
I-3
I-2
I-3
tp1814
a(I-2
I-3
I3
I-2
I-3
I0
I-2
I0
tp1815
a(I0
I0
I-2
I3
I-7
I-2
I-1
I-1
tp1816
a(I1
I0
I-8
I-3
I3
I0
I-6
I-2
tp1817
a(I-2
I-3
I-1
I3
I4
I-1
I1
I-1
tp1818
a(I2
I0
I5
I-1
I-5
I-5
I-4
I0
tp1819
a(I3
I0
I6
I-1
I7
I-5
I2
I-2
tp1820
a(I1
I-2
I-8
I2
I-4
I0
I1
I-2
tp1821
a(I0
I2
I1
I-1
I-2
I-1
I0
I2
tp1822
a(I0
I1
I2
I1
I5
I-1
I-1
I-1
tp1823
a(I0
I2
I3
I-2
I0
I1
I-2
I0
tp1824
a(I-2
I-4
I5
I-6
I-6
I5
I-1
I-1
tp1825
a(I-1
I1
I-1
I-5
I-3
I4
I-2
I-2
tp1826
a(I0
I-1
I0
I0
I-4
I-1
I-2
I0
tp1827
a(I-1
I-2
I-5
I5
I-4
I-3
I-2
I-1
tp1828
a(I-2
I0
I9
I-4
I-6
I12
I0
I0
tp1829
a(I-1
I-2
I-1
I1
I-6
I1
I-2
I0
tp1830
a(I1
I1
I-4
I0
I4
I1
I0
I-2
tp1831
a(I1
I-1
I-7
I3
I1
I-3
I1
I-2
tp1832
a(I-2
I0
I-3
I-2
I-11
I-5
I-1
I-3
tp1833
a(I-2
I-1
I1
I-3
I8
I3
I-1
I0
tp1834
a(I-3
I-7
I-4
I-2
I0
I-2
I1
I-2
tp1835
a(I2
I2
I10
I-3
I-6
I0
I-3
I0
tp1836
a(I-1
I1
I2
I3
I0
I-3
I1
I1
tp1837
a(I0
I-1
I-2
I-1
I-8
I-2
I-1
I0
tp1838
a(I-3
I-2
I1
I0
I-3
I-2
I-1
I1
tp1839
a(I-3
I-1
I-7
I2
I-4
I-2
I2
I-1
tp1840
a(I2
I0
I-5
I4
I-3
I1
I-1
I-5
tp1841
a(I2
I4
I9
I2
I2
I0
I-1
I0
tp1842
a(I-3
I-1
I-1
I-3
I-6
I0
I-2
I0
tp1843
a(I1
I-1
I-2
I4
I1
I4
I1
I-2
tp1844
a(I-1
I0
I-9
I2
I-5
I1
I2
I3
tp1845
a(I0
I-3
I2
I-3
I-1
I2
I1
I0
tp1846
a(I-5
I-1
I-4
I5
I-2
I-3
I-3
I-1
tp1847
a(I0
I-5
I2
I-3
I2
I-1
I-1
I-3
tp1848
a(I-1
I2
I5
I-1
I-4
I-1
I-2
I2
tp1849
a(I0
I3
I-2
I0
I-4
I1
I0
I3
tp1850
a(I1
I1
I-3
I1
I4
I-4
I1
I-2
tp1851
a(I0
I-1
I1
I-3
I-4
I1
I0
I-1
tp1852
a(I-3
I0
I3
I-2
I2
I1
I-2
I-3
tp1853
a(I-1
I-3
I-1
I-2
I-4
I-4
I-1
I0
tp1854
a(I2
I0
I0
I3
I3
I1
I2
I1
tp1855
a(I-2
I-2
I3
I0
I0
I4
I-2
I0
tp1856
a(I-4
I-4
I6
I-1
I-4
I0
I-1
I-2
tp1857
a(I-3
I0
I-8
I-5
I-2
I-6
I-4
I-5
tp1858
a(I-4
I-3
I-3
I-2
I-4
I-3
I-4
I0
tp1859
a(I-2
I5
I-5
I3
I-2
I0
I5
I-1
tp1860
a(I2
I-4
I-11
I-1
I1
I3
I7
I-2
tp1861
a(I-5
I-2
I7
I-5
I-5
I8
I-5
I0
tp1862
a(I-6
I-4
I0
I8
I1
I1
I-4
I1
tp1863
a(I1
I-2
I1
I-6
I-1
I-4
I-7
I-2
tp1864
a(I-1
I-3
I0
I-4
I2
I-10
I-4
I0
tp1865
a(I-2
I-1
I-2
I2
I-2
I-2
I0
I0
tp1866
a(I0
I-3
I7
I0
I2
I-4
I2
I6
tp1867
a(I3
I-2
I-8
I-1
I5
I1
I1
I-3
tp1868
a(I1
I1
I1
I0
I-3
I1
I0
I1
tp1869
a(I-2
I-1
I0
I1
I-6
I0
I-6
I-2
tp1870
a(I1
I2
I-2
I-4
I-2
I2
I-2
I-1
tp1871
a(I-4
I1
I-3
I-3
I-1
I2
I1
I0
tp1872
a(I-2
I1
I-2
I-3
I4
I1
I5
I-4
tp1873
a(I5
I-4
I-2
I4
I1
I-1
I3
I1
tp1874
a(I-2
I-9
I-9
I1
I1
I0
I-9
I0
tp1875
a(I2
I6
I1
I0
I-1
I4
I-1
I7
tp1876
a(I0
I0
I14
I-2
I1
I10
I4
I-1
tp1877
a(I-1
I-4
I-5
I0
I2
I5
I-10
I2
tp1878
a(I-4
I0
I2
I-1
I-4
I-5
I-4
I-3
tp1879
a(I-4
I-6
I3
I-2
I-4
I-4
I-1
I1
tp1880
a(I-4
I-3
I-5
I0
I-4
I-6
I-3
I-1
tp1881
a(I5
I2
I-4
I1
I3
I-2
I6
I1
tp1882
a(I-3
I1
I-5
I1
I1
I-6
I0
I-3
tp1883
a(I0
I0
I-6
I0
I-1
I0
I1
I-1
tp1884
a(I2
I-1
I-4
I-4
I0
I-1
I2
I1
tp1885
a(I-4
I-4
I7
I-3
I-5
I2
I-1
I-1
tp1886
a(I0
I-1
I-6
I2
I7
I-4
I-4
I0
tp1887
a(I3
I3
I-7
I-1
I0
I-2
I2
I0
tp1888
a(I1
I3
I3
I-3
I-1
I6
I0
I1
tp1889
a(I-5
I-6
I12
I-7
I-9
I1
I0
I3
tp1890
a(I-4
I-2
I0
I-2
I-1
I-1
I-3
I1
tp1891
a(I-1
I0
I2
I0
I-1
I-1
I0
I-2
tp1892
a(I0
I-1
I2
I-3
I-2
I2
I4
I2
tp1893
a(I-7
I-6
I11
I-4
I-10
I2
I-3
I-1
tp1894
a(I1
I0
I3
I0
I-5
I1
I2
I-1
tp1895
a(I-7
I-8
I18
I-4
I-17
I5
I-2
I0
tp1896
a(I-1
I0
I-1
I2
I1
I1
I-3
I-3
tp1897
a(I5
I5
I-9
I4
I2
I0
I2
I0
tp1898
a(I-2
I-4
I5
I3
I-4
I3
I-3
I-1
tp1899
a(I-5
I-6
I7
I-2
I-10
I3
I-3
I1
tp1900
a(I-6
I0
I-4
I3
I5
I-4
I-1
I-2
tp1901
a(I3
I0
I-4
I2
I0
I-2
I-2
I-1
tp1902
a(I1
I2
I2
I-1
I-4
I0
I-1
I1
tp1903
a(I-6
I-5
I13
I-8
I-14
I3
I-2
I3
tp1904
a(I-1
I-2
I-6
I4
I7
I-4
I-5
I-5
tp1905
a(I7
I1
I-8
I4
I5
I7
I-1
I1
tp1906
a(I-1
I0
I-8
I4
I4
I-10
I-2
I1
tp1907
a(I4
I2
I-9
I1
I7
I6
I3
I-1
tp1908
a(I1
I-4
I5
I-2
I-7
I23
I3
I0
tp1909
a(I-6
I-7
I4
I4
I-5
I0
I-3
I0
tp1910
a(I3
I8
I-15
I9
I11
I-14
I-2
I-4
tp1911
a(I4
I-16
I-14
I2
I8
I-13
I-2
I-1
tp1912
a(I-9
I-33
I-24
I-8
I-11
I-3
I-4
I5
tp1913
a(I-2
I36
I47
I-5
I-10
I-1
I-4
I2
tp1914
a(I9
I26
I-11
I14
I16
I20
I6
I-6
tp1915
a(I16
I-13
I4
I14
I18
I-13
I4
I-2
tp1916
a(I-3
I-1
I17
I-8
I-16
I2
I0
I0
tp1917
a(I-13
I-37
I-6
I-7
I-17
I14
I-2
I2
tp1918
a(I-2
I-6
I19
I0
I-15
I-3
I2
I-2
tp1919
a(I-18
I-61
I40
I-17
I-30
I-2
I-10
I4
tp1920
a(I-8
I-56
I18
I6
I0
I-6
I-3
I2
tp1921
a(I-10
I-41
I-7
I-4
I-2
I-1
I8
I-1
tp1922
a(I9
I24
I-9
I15
I12
I-5
I-5
I-5
tp1923
a(I-4
I36
I14
I0
I-19
I8
I1
I3
tp1924
a(I3
I-15
I-9
I1
I10
I5
I8
I3
tp1925
a(I8
I30
I-17
I-14
I5
I1
I-5
I-2
tp1926
a(I-9
I12
I28
I-18
I-19
I11
I1
I3
tp1927
a(I-4
I24
I9
I-2
I-3
I1
I-6
I-1
tp1928
a(I7
I69
I-46
I4
I34
I-6
I0
I-7
tp1929
a(I12
I66
I-45
I10
I30
I-5
I7
I-5
tp1930
a(I7
I16
I-31
I14
I18
I-8
I3
I-3
tp1931
a(I6
I3
I-20
I9
I8
I-3
I-1
I1
tp1932
a(I-2
I-17
I3
I1
I-1
I-6
I0
I-1
tp1933
a(I-12
I-49
I28
I-3
I-17
I-2
I-3
I3
tp1934
a(I-5
I-7
I-5
I8
I3
I-5
I-1
I-1
tp1935
a(I3
I1
I1
I-2
I-6
I0
I-2
I-2
tp1936
a(I-6
I-28
I17
I-9
I-14
I3
I-4
I4
tp1937
a(I-12
I-31
I30
I-8
I-24
I3
I-3
I2
tp1938
a(I1
I3
I0
I2
I3
I0
I-1
I-4
tp1939
a(I-1
I-1
I4
I-3
I-6
I2
I-3
I-1
tp1940
a(I-3
I-9
I5
I-7
I-8
I4
I2
I3
tp1941
a(I-3
I-8
I-5
I-1
I4
I-1
I-3
I-4
tp1942
a(I7
I-1
I5
I3
I6
I-2
I3
I0
tp1943
a(I3
I11
I-17
I4
I13
I-4
I1
I-4
tp1944
a(I7
I4
I-30
I8
I17
I-8
I5
I-1
tp1945
a(I5
I12
I-28
I2
I7
I-8
I-4
I-3
tp1946
a(I3
I6
I-12
I5
I1
I-5
I0
I1
tp1947
a(I0
I2
I2
I-3
I1
I-4
I3
I0
tp1948
a(I3
I9
I-27
I11
I27
I-5
I3
I-5
tp1949
a(I5
I2
I-9
I-3
I-3
I1
I-3
I1
tp1950
a(I-8
I-17
I28
I-14
I-19
I4
I-2
I3
tp1951
a(I-14
I-18
I35
I-9
I-23
I6
I-7
I2
tp1952
a(I-10
I-10
I17
I-6
I-14
I6
I-8
I-1
tp1953
a(I-5
I-10
I22
I-8
I-21
I7
I-3
I3
tp1954
a(I-5
I-2
I-9
I7
I8
I1
I-3
I-4
tp1955
a(I1
I5
I-10
I2
I3
I9
I7
I-1
tp1956
a(I-2
I0
I0
I-3
I-1
I2
I-2
I2
tp1957
a(I-1
I-5
I2
I-7
I-13
I-6
I1
I1
tp1958
a(I6
I15
I-16
I10
I22
I-12
I5
I-3
tp1959
a(I7
I0
I-12
I6
I11
I-3
I3
I1
tp1960
a(I1
I4
I1
I-1
I-5
I-2
I-4
I-3
tp1961
a(I4
I7
I-19
I4
I14
I-9
I0
I-3
tp1962
a(I9
I7
I-27
I5
I12
I0
I3
I-7
tp1963
a(I0
I-3
I-6
I2
I-7
I-5
I3
I-1
tp1964
a(I-3
I-9
I21
I-7
I-22
I2
I0
I4
tp1965
a(I-6
I-2
I11
I-2
I0
I6
I-4
I-1
tp1966
a(I1
I-4
I9
I-4
I-9
I-6
I0
I0
tp1967
a(I-6
I1
I17
I-5
I-10
I3
I0
I0
tp1968
a(I-2
I-5
I-1
I1
I2
I8
I1
I1
tp1969
a(I-2
I-6
I7
I-3
I-7
I-2
I-4
I-2
tp1970
a(I-3
I1
I6
I-4
I3
I2
I2
I-2
tp1971
a(I7
I10
I-20
I7
I11
I-2
I-2
I-2
tp1972
a(I7
I5
I-23
I7
I14
I-1
I1
I-3
tp1973
a(I1
I-1
I-4
I2
I3
I-3
I5
I1
tp1974
a(I-4
I-5
I7
I-4
I-11
I1
I-5
I0
tp1975
a(I-3
I4
I-1
I4
I-3
I-3
I-4
I1
tp1976
a(I2
I-4
I-9
I1
I1
I3
I-2
I-1
tp1977
a(I-2
I-6
I3
I0
I1
I-3
I-1
I-3
tp1978
a(I1
I-1
I-8
I2
I4
I3
I2
I0
tp1979
a(I0
I-1
I-10
I0
I-1
I3
I1
I-3
tp1980
a(I-1
I-2
I7
I-6
I-6
I2
I-1
I3
tp1981
a(I1
I2
I-6
I5
I0
I-4
I-2
I-3
tp1982
a(I0
I-6
I6
I-2
I-3
I-3
I-1
I0
tp1983
a(I-3
I-5
I6
I1
I-5
I-3
I-6
I1
tp1984
a(I-4
I2
I5
I1
I-7
I-6
I-3
I1
tp1985
a(I1
I5
I-8
I4
I8
I-4
I-2
I-2
tp1986
a(I1
I-1
I-6
I-1
I-6
I1
I0
I-3
tp1987
a(I-6
I-6
I13
I-4
I-6
I1
I-3
I1
tp1988
a(I-1
I-1
I4
I0
I2
I0
I-4
I1
tp1989
a(I0
I2
I-3
I1
I3
I-3
I1
I1
tp1990
a(I-2
I2
I-5
I4
I2
I-3
I1
I-2
tp1991
a(I3
I4
I-8
I1
I8
I4
I-3
I2
tp1992
a(I-1
I-6
I-1
I-3
I-6
I3
I3
I-1
tp1993
a(I-3
I-3
I11
I-3
I-8
I-1
I-5
I1
tp1994
a(I0
I1
I-5
I1
I2
I-2
I-1
I-3
tp1995
a(I2
I3
I-6
I3
I5
I-1
I4
I-1
tp1996
a(I0
I-3
I0
I-2
I-7
I1
I0
I-1
tp1997
a(I-4
I-5
I6
I-3
I-4
I1
I-3
I3
tp1998
a(I-2
I2
I-2
I2
I0
I-2
I0
I-3
tp1999
a(I3
I5
I-7
I-2
I5
I0
I-3
I-5
tp2000
a(I1
I1
I3
I-2
I-6
I-2
I0
I0
tp2001
a(I-2
I-6
I4
I-2
I-1
I0
I2
I1
tp2002
a(I1
I-2
I8
I-1
I-8
I-1
I-2
I0
tp2003
a(I-3
I-4
I0
I0
I-2
I0
I-2
I0
tp2004
a(I1
I1
I-2
I1
I2
I-3
I-1
I2
tp2005
a(I0
I1
I-9
I-2
I4
I2
I-1
I-2
tp2006
a(I-1
I-3
I0
I-4
I1
I3
I0
I1
tp2007
a(I-3
I-2
I6
I0
I-6
I1
I-2
I1
tp2008
a(I-1
I-1
I-2
I3
I1
I0
I1
I-3
tp2009
a(I2
I3
I-8
I5
I4
I-1
I0
I1
tp2010
a(I-1
I-3
I1
I-4
I2
I-2
I0
I0
tp2011
a(I-5
I-5
I7
I0
I-2
I-1
I-1
I-1
tp2012
a(I-1
I-2
I2
I1
I0
I0
I-1
I-2
tp2013
a(I0
I5
I-5
I-3
I3
I-5
I-3
I-1
tp2014
a(I-2
I2
I0
I-3
I-1
I2
I-1
I-2
tp2015
a(I0
I-1
I-8
I2
I3
I2
I3
I1
tp2016
a(I0
I-2
I1
I-3
I-2
I-2
I-2
I0
tp2017
a(I-5
I0
I3
I-2
I-1
I1
I-1
I0
tp2018
a(I-2
I-1
I0
I-2
I-4
I0
I0
I1
tp2019
a(I4
I0
I-5
I1
I-1
I-1
I1
I1
tp2020
a(I-2
I-2
I0
I-3
I-1
I-2
I1
I1
tp2021
a(I-1
I-4
I5
I1
I-1
I2
I0
I-2
tp2022
a(I-4
I0
I2
I0
I-2
I-2
I-1
I-1
tp2023
a(I0
I3
I-4
I4
I3
I-3
I0
I-5
tp2024
a(I0
I-6
I0
I3
I-5
I1
I-1
I5
tp2025
a(I-2
I-3
I-1
I4
I-2
I1
I-2
I-1
tp2026
a(I-2
I-11
I1
I2
I-3
I1
I-1
I-4
tp2027
a(I0
I-2
I4
I-1
I-6
I-2
I0
I1
tp2028
a(I-1
I3
I0
I2
I-3
I0
I0
I-4
tp2029
a(I0
I5
I-8
I-1
I1
I-1
I1
I-1
tp2030
a(I1
I2
I-6
I2
I-2
I-4
I1
I-2
tp2031
a(I-1
I-2
I2
I0
I-3
I-2
I-2
I2
tp2032
a(I0
I-7
I8
I2
I-7
I-4
I-1
I1
tp2033
a(I2
I-1
I-1
I1
I3
I0
I-2
I-4
tp2034
a(I-1
I-2
I4
I1
I-3
I0
I-3
I0
tp2035
a(I-3
I0
I1
I-1
I0
I-3
I-2
I-4
tp2036
a(I0
I2
I-3
I2
I-2
I-4
I-2
I0
tp2037
a(I3
I1
I-4
I4
I2
I1
I0
I-1
tp2038
a(I-2
I-1
I-1
I2
I1
I-6
I-2
I1
tp2039
a(I-4
I3
I-3
I4
I4
I-3
I-2
I-2
tp2040
a(I0
I-2
I2
I-4
I-2
I-2
I2
I-1
tp2041
a(I0
I0
I2
I-4
I-3
I-2
I0
I-1
tp2042
a(I0
I-1
I-2
I0
I2
I2
I-1
I3
tp2043
a(I3
I1
I-4
I-4
I-1
I0
I0
I1
tp2044
a(I-2
I-1
I2
I-1
I-1
I-1
I-2
I0
tp2045
a(I-1
I-4
I1
I-1
I-1
I0
I-1
I-1
tp2046
a(I-3
I-1
I2
I-1
I-2
I1
I-1
I-2
tp2047
a(I-1
I2
I-10
I2
I4
I-2
I1
I-3
tp2048
a(I4
I-1
I3
I-2
I-5
I0
I3
I2
tp2049
a(I-4
I-3
I2
I2
I-2
I1
I0
I-4
tp2050
a(I1
I0
I-3
I-1
I-4
I-3
I0
I-1
tp2051
a(I-1
I-1
I2
I-2
I-4
I2
I-3
I1
tp2052
a(I-3
I-2
I1
I-2
I-1
I-1
I-2
I-1
tp2053
a(I1
I1
I-3
I2
I4
I3
I-2
I-1
tp2054
a(I2
I3
I-13
I-23
I11
I2
I4
I-1
tp2055
a(I0
I-2
I-12
I-24
I13
I-2
I1
I-3
tp2056
a(I-1
I2
I-12
I-33
I10
I1
I0
I0
tp2057
a(I4
I2
I-17
I-19
I16
I0
I0
I-1
tp2058
a(I-3
I-5
I12
I-32
I-3
I-3
I-2
I1
tp2059
a(I0
I-1
I5
I-32
I-5
I0
I3
I3
tp2060
a(I2
I3
I-4
I-22
I6
I-1
I2
I-1
tp2061
a(I5
I7
I-19
I-20
I14
I1
I2
I0
tp2062
a(I1
I-3
I19
I-36
I-11
I-1
I-1
I4
tp2063
a(I1
I-5
I26
I-36
I-14
I3
I-1
I4
tp2064
a(I18
I16
I-68
I36
I41
I-1
I8
I-8
tp2065
a(I5
I3
I-2
I10
I3
I0
I0
I-3
tp2066
a(I-10
I-6
I34
I-20
I-18
I1
I-3
I0
tp2067
a(I-3
I2
I-8
I3
I14
I1
I1
I0
tp2068
a(I11
I8
I-30
I-2
I28
I-2
I3
I-4
tp2069
a(I0
I-2
I-11
I-5
I15
I2
I-1
I0
tp2070
a(I-9
I-9
I4
I0
I4
I0
I-4
I-1
tp2071
a(I-1
I6
I-41
I16
I37
I-1
I-2
I-7
tp2072
a(I12
I14
I-63
I-2
I42
I1
I7
I-5
tp2073
a(I5
I1
I-20
I-19
I13
I-2
I4
I-2
tp2074
a(I9
I9
I-53
I-2
I40
I0
I4
I-6
tp2075
a(I3
I6
I-25
I-16
I19
I-2
I0
I-2
tp2076
a(I-8
I-2
I-3
I-23
I2
I-2
I0
I0
tp2077
a(I1
I8
I-20
I-25
I18
I-3
I0
I-2
tp2078
a(I8
I2
I-8
I-37
I7
I3
I5
I2
tp2079
a(I-3
I-6
I8
I-34
I2
I2
I1
I0
tp2080
a(I-9
I-2
I-1
I-13
I8
I0
I-7
I-4
tp2081
a(I3
I10
I-34
I-6
I24
I0
I3
I-5
tp2082
a(I8
I6
I-22
I-28
I13
I-1
I2
I0
tp2083
a(I0
I-1
I3
I-38
I-7
I-1
I3
I2
tp2084
a(I-4
I-4
I26
I-39
I-10
I5
I-1
I4
tp2085
a(I-1
I-2
I0
I-21
I6
I3
I-4
I0
tp2086
a(I1
I1
I-2
I-19
I-3
I1
I1
I4
tp2087
a(I2
I-2
I12
I-31
I-1
I-2
I1
I3
tp2088
a(I-2
I-3
I16
I-17
I-13
I1
I-1
I0
tp2089
a(I-4
I-5
I13
I-11
I-7
I0
I-5
I3
tp2090
a(I-9
I-9
I19
I-1
I-8
I-4
I-4
I2
tp2091
a(I-3
I-3
I6
I7
I-8
I-1
I-1
I-2
tp2092
a(I7
I5
I-19
I5
I6
I0
I1
I-4
tp2093
a(I-1
I0
I-1
I-3
I4
I1
I0
I-3
tp2094
a(I-1
I-2
I4
I-2
I-3
I3
I0
I1
tp2095
a(I-1
I-3
I-2
I-2
I2
I0
I1
I-3
tp2096
a(I-3
I-3
I4
I-4
I-3
I1
I2
I1
tp2097
a(I0
I0
I5
I-1
I-5
I-3
I-1
I-2
tp2098
a(I-2
I-1
I7
I-4
I-2
I-2
I-2
I-1
tp2099
a(I2
I2
I-7
I3
I-1
I2
I-2
I2
tp2100
a(I1
I2
I-5
I0
I1
I-6
I0
I-3
tp2101
a(I2
I2
I-8
I6
I3
I-1
I1
I-1
tp2102
a(I-3
I-3
I5
I-12
I-9
I-2
I-3
I0
tp2103
a(I-3
I-1
I5
I-1
I-3
I-4
I1
I2
tp2104
a(I1
I1
I-2
I4
I1
I2
I-3
I-1
tp2105
a(I1
I0
I-8
I5
I1
I-1
I0
I-4
tp2106
a(I0
I-1
I6
I-7
I-2
I-1
I0
I3
tp2107
a(I1
I0
I-2
I-1
I-1
I-1
I1
I-3
tp2108
a(I-2
I-1
I0
I1
I1
I1
I-1
I-3
tp2109
a(I-1
I2
I-8
I2
I6
I-4
I0
I1
tp2110
a(I0
I-3
I1
I0
I-1
I-2
I0
I-2
tp2111
a(I-1
I3
I-7
I3
I2
I3
I-3
I-1
tp2112
a(I0
I-4
I4
I-5
I-5
I-1
I1
I3
tp2113
a(I-2
I-1
I8
I-3
I-2
I-2
I-1
I-1
tp2114
a(I-1
I-2
I-6
I1
I0
I0
I0
I-2
tp2115
a(I2
I-2
I-4
I2
I4
I3
I1
I-3
tp2116
a(I-3
I0
I4
I1
I-3
I-2
I0
I-4
tp2117
a(I1
I0
I3
I-2
I0
I2
I0
I-2
tp2118
a(I-2
I1
I-3
I-1
I0
I-4
I-1
I0
tp2119
a(I0
I2
I-7
I0
I1
I-2
I0
I1
tp2120
a(I-1
I0
I2
I0
I-2
I-3
I0
I1
tp2121
a(I0
I-4
I4
I-2
I-5
I3
I-1
I1
tp2122
a(I0
I-2
I2
I1
I-6
I-1
I-2
I1
tp2123
a(I-4
I-2
I3
I-3
I-1
I-2
I0
I2
tp2124
a(I-2
I0
I0
I0
I2
I-2
I1
I0
tp2125
a(I-1
I-2
I-2
I3
I3
I-1
I-1
I0
tp2126
a(I0
I-3
I6
I-3
I-5
I3
I0
I0
tp2127
a(I-1
I-1
I3
I-3
I-4
I0
I0
I3
tp2128
a(I0
I-1
I-5
I3
I0
I3
I-1
I-3
tp2129
a(I0
I1
I-4
I0
I0
I1
I-3
I-1
tp2130
a(I-5
I-4
I4
I0
I-5
I0
I-1
I1
tp2131
a(I3
I-3
I3
I-4
I-1
I-1
I0
I2
tp2132
a(I-2
I0
I-3
I3
I1
I-5
I-2
I0
tp2133
a(I2
I-1
I-2
I1
I3
I-1
I0
I-1
tp2134
a(I-2
I1
I-2
I1
I4
I2
I-3
I0
tp2135
a(I0
I-1
I-6
I0
I1
I0
I2
I-2
tp2136
a(I-2
I-1
I4
I-2
I-3
I-3
I0
I3
tp2137
a(I-4
I0
I0
I-2
I-5
I-3
I-3
I-3
tp2138
a(I3
I1
I-4
I3
I4
I-2
I1
I-1
tp2139
a(I1
I-1
I-9
I1
I0
I-2
I-3
I-1
tp2140
a(I-1
I2
I5
I-5
I-3
I1
I1
I-5
tp2141
a(I-2
I-4
I3
I-2
I-4
I0
I4
I-2
tp2142
a(I-2
I0
I-3
I-5
I-3
I3
I-1
I2
tp2143
a(I0
I-1
I-3
I2
I0
I-1
I1
I0
tp2144
a(I-1
I1
I1
I-3
I-5
I-4
I-1
I-2
tp2145
a(I-3
I0
I3
I0
I-3
I-3
I-4
I1
tp2146
a(I-2
I-2
I1
I0
I-3
I0
I-2
I-4
tp2147
a(I-1
I0
I2
I2
I-4
I-2
I0
I2
tp2148
a(I-2
I0
I-2
I-2
I0
I-4
I1
I-1
tp2149
a(I4
I2
I-4
I1
I0
I-2
I1
I-1
tp2150
a(I-3
I-5
I1
I-5
I0
I-3
I-3
I1
tp2151
a(I0
I0
I-1
I1
I-1
I1
I-4
I-1
tp2152
a(I-3
I-4
I-4
I-4
I-1
I-1
I-1
I-2
tp2153
a(I2
I-1
I-4
I2
I2
I1
I4
I0
tp2154
a(I-2
I-1
I4
I3
I-4
I1
I-2
I-2
tp2155
a(I-3
I-3
I5
I-5
I-2
I-2
I-2
I-3
tp2156
a(I2
I0
I0
I1
I1
I-4
I-1
I-2
tp2157
a(I0
I0
I-7
I-1
I2
I-5
I-1
I-3
tp2158
a(I-1
I1
I0
I1
I-3
I-1
I-1
I0
tp2159
a(I-1
I2
I-5
I0
I6
I0
I1
I-2
tp2160
a(I0
I0
I4
I-1
I-8
I-3
I-1
I-2
tp2161
a(I-1
I0
I1
I-4
I0
I-2
I0
I0
tp2162
a(I-1
I0
I-5
I0
I2
I-1
I-1
I-3
tp2163
a(I0
I0
I-2
I3
I-1
I0
I-1
I0
tp2164
a(I-1
I-3
I0
I-2
I-1
I1
I0
I-1
tp2165
a(I0
I-2
I3
I-2
I-4
I2
I-1
I-3
tp2166
a(I-1
I2
I-3
I1
I1
I-1
I0
I0
tp2167
a(I-2
I-1
I-5
I0
I4
I-1
I0
I0
tp2168
a(I-1
I-1
I0
I2
I-5
I-2
I-1
I-1
tp2169
a(I-2
I-2
I3
I1
I-2
I-5
I1
I1
tp2170
a(I-1
I-1
I7
I-6
I-7
I-1
I0
I1
tp2171
a(I-1
I-3
I-1
I-1
I-2
I1
I-1
I1
tp2172
a(I-2
I0
I-3
I2
I1
I1
I-1
I-2
tp2173
a(I0
I0
I-8
I3
I2
I-1
I2
I0
tp2174
a(I-3
I-1
I9
I-1
I-4
I1
I-2
I0
tp2175
a(I-2
I0
I4
I-4
I-1
I-1
I-2
I0
tp2176
a(I0
I1
I-1
I1
I1
I1
I1
I1
tp2177
a(I1
I-3
I-2
I3
I2
I-1
I-1
I-1
tp2178
a(I-1
I-3
I1
I-5
I-4
I0
I0
I0
tp2179
a(I0
I-2
I4
I0
I-5
I1
I1
I1
tp2180
a(I0
I0
I-1
I1
I0
I1
I-1
I-3
tp2181
a(I2
I1
I-6
I1
I-1
I-3
I3
I0
tp2182
a(I-1
I-1
I-5
I0
I1
I-3
I-1
I1
tp2183
a(I-1
I2
I-3
I-4
I0
I-2
I-1
I-1
tp2184
a(I0
I-2
I7
I-4
I-5
I-2
I1
I2
tp2185
a(I-4
I1
I-2
I0
I-4
I1
I-3
I-1
tp2186
a(I-2
I-3
I0
I5
I-2
I0
I0
I0
tp2187
a(I3
I0
I-2
I0
I1
I-2
I-3
I-6
tp2188
a(I-1
I-3
I3
I-2
I0
I-1
I-4
I0
tp2189
a(I-1
I-2
I4
I-7
I-3
I1
I-1
I3
tp2190
a(I2
I0
I-1
I-1
I-3
I-1
I-2
I-2
tp2191
a(I3
I2
I-7
I1
I0
I1
I-1
I2
tp2192
a(I-2
I0
I4
I-1
I-5
I2
I-1
I-3
tp2193
a(I-1
I-1
I1
I-3
I2
I-1
I1
I-2
tp2194
a(I0
I-2
I0
I-5
I1
I-3
I2
I-1
tp2195
a(I0
I1
I2
I-1
I-5
I1
I1
I1
tp2196
a(I1
I1
I-4
I-3
I-2
I-1
I0
I0
tp2197
a(I0
I-1
I-8
I0
I3
I3
I0
I0
tp2198
a(I-3
I-2
I3
I-2
I-5
I2
I0
I-1
tp2199
a(I-1
I-3
I4
I-2
I-3
I1
I1
I-4
tp2200
a(I1
I1
I-2
I2
I5
I-3
I2
I0
tp2201
a(I1
I2
I2
I-1
I1
I4
I1
I-2
tp2202
a(I-3
I0
I5
I-2
I-6
I2
I0
I3
tp2203
a(I-2
I-1
I-3
I-2
I-5
I-3
I-3
I4
tp2204
a(I-2
I-2
I-1
I2
I1
I1
I0
I-2
tp2205
a(I0
I1
I-7
I-1
I1
I-3
I0
I3
tp2206
a(I-2
I1
I-8
I1
I4
I0
I-1
I-3
tp2207
a(I0
I1
I-4
I2
I2
I0
I1
I-1
tp2208
a(I-1
I0
I4
I-3
I-4
I-1
I-2
I-1
tp2209
a(I-2
I0
I4
I-3
I-4
I-1
I3
I-1
tp2210
a(I-3
I-4
I0
I1
I-2
I1
I-3
I-1
tp2211
a(I2
I-1
I-4
I-2
I5
I-3
I0
I-2
tp2212
a(I-2
I0
I1
I0
I-5
I0
I1
I-1
tp2213
a(I-2
I-3
I4
I1
I-3
I0
I-4
I0
tp2214
a(I0
I1
I-5
I-1
I2
I-2
I2
I-4
tp2215
a(I0
I-1
I-2
I0
I-1
I-1
I2
I-2
tp2216
a(I-1
I0
I2
I-2
I-2
I0
I-2
I0
tp2217
a(I-3
I-1
I3
I-1
I-1
I0
I0
I-1
tp2218
a(I-1
I-3
I-2
I-4
I-2
I-3
I-2
I-2
tp2219
a(I-2
I0
I1
I-3
I-2
I2
I1
I0
tp2220
a(I1
I-2
I-2
I1
I1
I1
I-1
I2
tp2221
a(I-2
I0
I-5
I1
I2
I-1
I-1
I1
tp2222
a(I-3
I-3
I3
I-3
I0
I-3
I-2
I1
tp2223
a(I0
I-3
I1
I0
I-3
I-3
I-2
I-1
tp2224
a(I-1
I2
I-4
I1
I3
I-2
I-1
I-3
tp2225
a(I0
I-1
I0
I2
I0
I-4
I-2
I0
tp2226
a(I-2
I-1
I3
I0
I1
I0
I0
I-2
tp2227
a(I-3
I-4
I3
I0
I-2
I-3
I-3
I-1
tp2228
a(I1
I5
I-4
I-2
I-3
I-2
I-3
I-1
tp2229
a(I0
I1
I-6
I-1
I2
I-2
I-1
I0
tp2230
a(I0
I-2
I-4
I2
I0
I1
I0
I-1
tp2231
a(I-1
I-1
I-3
I3
I-1
I4
I0
I-3
tp2232
a(I-4
I-2
I2
I0
I-2
I0
I-3
I1
tp2233
a(I-3
I-1
I3
I-1
I-4
I-3
I3
I-1
tp2234
a(I-1
I1
I1
I2
I1
I1
I-1
I1
tp2235
a(I4
I-2
I-1
I-4
I-3
I0
I-2
I-1
tp2236
a(I0
I-4
I4
I-1
I-2
I3
I-1
I0
tp2237
a(I-2
I-3
I4
I2
I-2
I0
I-2
I0
tp2238
a(I0
I-1
I-4
I-1
I0
I-1
I-2
I-1
tp2239
a(I2
I1
I0
I-3
I-3
I-2
I0
I0
tp2240
a(I1
I-2
I1
I5
I-6
I-5
I-2
I1
tp2241
a(I-3
I-2
I2
I-4
I-6
I-1
I-4
I2
tp2242
a(I-2
I-3
I1
I1
I-1
I-2
I1
I-1
tp2243
a(I-2
I0
I6
I1
I-2
I-1
I-1
I1
tp2244
a(I-1
I1
I0
I1
I-3
I0
I0
I-3
tp2245
a(I0
I-1
I-6
I0
I2
I-2
I1
I2
tp2246
a(I1
I-2
I2
I3
I-1
I-4
I-1
I-3
tp2247
a(I-2
I-1
I3
I0
I-1
I-2
I-1
I2
tp2248
a(I0
I-1
I-3
I-1
I4
I2
I-3
I-3
tp2249
a(I0
I-1
I-2
I0
I1
I1
I0
I0
tp2250
a(I-3
I-3
I0
I3
I-5
I0
I-3
I-2
tp2251
a(I1
I-1
I1
I-2
I-5
I-1
I-1
I-4
tp2252
a(I-1
I-3
I-2
I0
I-1
I1
I1
I0
tp2253
a(I-2
I1
I-3
I-1
I0
I3
I0
I-1
tp2254
a(I2
I1
I0
I1
I1
I-2
I0
I-2
tp2255
a(I3
I-2
I-3
I2
I-5
I3
I3
I-2
tp2256
a(I-2
I-2
I3
I0
I2
I-4
I-3
I3
tp2257
a(I-1
I-1
I-4
I-3
I-4
I1
I-2
I0
tp2258
a(I0
I0
I-1
I3
I1
I0
I0
I0
tp2259
a(I0
I1
I-5
I0
I0
I-4
I0
I0
tp2260
a(I0
I-3
I1
I1
I-1
I-2
I-1
I0
tp2261
a(I-1
I-2
I3
I-5
I1
I0
I-1
I-2
tp2262
a(I-2
I0
I-4
I-1
I1
I-2
I-1
I-1
tp2263
a(I0
I-2
I-4
I1
I0
I-1
I-2
I-1
tp2264
a(I-3
I0
I-1
I-2
I-1
I1
I0
I-4
tp2265
a(I-1
I1
I2
I-1
I0
I-2
I-2
I-2
tp2266
a(I2
I2
I-1
I-2
I-2
I-3
I-1
I3
tp2267
a(I-3
I-2
I1
I1
I1
I0
I-1
I-2
tp2268
a(I-1
I-2
I-3
I-2
I4
I-1
I-2
I0
tp2269
a(I0
I-2
I0
I-3
I2
I-3
I2
I-1
tp2270
a(I-1
I0
I0
I-9
I-1
I0
I-4
I-1
tp2271
a(I-2
I1
I1
I1
I-6
I-2
I-1
I1
tp2272
a(I0
I0
I-2
I1
I2
I-2
I1
I0
tp2273
a(I-1
I0
I-5
I1
I-3
I2
I-1
I-1
tp2274
a(I-1
I-1
I0
I2
I1
I-1
I1
I2
tp2275
a(I-1
I-2
I3
I-3
I-4
I0
I-3
I2
tp2276
a(I-2
I1
I-6
I-1
I0
I0
I0
I-2
tp2277
a(I0
I-1
I2
I-2
I0
I0
I1
I3
tp2278
a(I-1
I-1
I-7
I5
I2
I1
I-3
I-2
tp2279
a(I1
I0
I0
I-1
I-4
I0
I0
I0
tp2280
a(I-1
I-1
I-2
I-1
I-3
I0
I-3
I-3
tp2281
a(I-1
I-3
I4
I-1
I-1
I-2
I-3
I-2
tp2282
a(I-1
I0
I-3
I0
I2
I0
I1
I3
tp2283
a(I-1
I0
I0
I-1
I0
I-3
I0
I-2
tp2284
a(I-1
I-1
I5
I-1
I-2
I-1
I1
I0
tp2285
a(I-2
I1
I2
I-2
I-2
I-2
I0
I0
tp2286
a(I0
I1
I1
I-2
I0
I-1
I2
I-2
tp2287
a(I1
I0
I-2
I-2
I0
I-3
I1
I0
tp2288
a(I-1
I-2
I1
I2
I-2
I-2
I1
I-2
tp2289
a(I-1
I3
I0
I-1
I-1
I1
I-1
I-3
tp2290
a(I-3
I-3
I0
I-1
I-1
I4
I-2
I-2
tp2291
a(I-2
I-3
I5
I-1
I-1
I0
I-1
I0
tp2292
a(I0
I-1
I-4
I1
I-3
I3
I-2
I-3
tp2293
a(I1
I-2
I-1
I-3
I-2
I-1
I-1
I-3
tp2294
a(I-1
I-2
I2
I-1
I-2
I-2
I1
I5
tp2295
a(I-3
I0
I0
I-1
I-1
I2
I-3
I-2
tp2296
a(I1
I-1
I-1
I-3
I2
I0
I2
I1
tp2297
a(I0
I-2
I2
I1
I0
I0
I-3
I0
tp2298
a(I-2
I-1
I3
I-5
I-2
I-2
I2
I-1
tp2299
a(I-3
I-2
I2
I-4
I-1
I0
I0
I1
tp2300
a(I0
I-1
I-3
I-2
I1
I0
I-1
I0
tp2301
a(I1
I1
I4
I-1
I-3
I1
I-2
I1
tp2302
a(I3
I-1
I-3
I-3
I0
I-3
I2
I-3
tp2303
a(I2
I-1
I-3
I-2
I-2
I-1
I2
I0
tp2304
a(I-2
I-2
I0
I2
I-4
I-1
I-4
I-1
tp2305
a(I-2
I0
I1
I0
I-1
I-2
I-1
I-1
tp2306
a(I-2
I1
I-1
I1
I-3
I-2
I0
I1
tp2307
a(I0
I-1
I3
I1
I-5
I0
I-4
I-4
tp2308
a(I1
I-1
I-1
I0
I0
I-2
I-2
I-1
tp2309
a(I-1
I-4
I2
I1
I-6
I-3
I-2
I3
tp2310
a(I-1
I0
I-1
I-4
I1
I2
I1
I0
tp2311
a(I-1
I0
I-1
I0
I-5
I-1
I2
I-1
tp2312
a(I-1
I-2
I3
I-1
I0
I-1
I0
I-6
tp2313
a(I-2
I0
I1
I-3
I-1
I-1
I1
I0
tp2314
a(I-1
I0
I2
I6
I2
I-1
I-2
I-1
tp2315
a(I0
I-1
I4
I-3
I-5
I-2
I-2
I-2
tp2316
a(I0
I-1
I-4
I2
I0
I-3
I-2
I-2
tp2317
a(I-2
I-2
I-1
I0
I-2
I0
I3
I0
tp2318
a(I-2
I1
I2
I-4
I4
I-2
I-4
I2
tp2319
a(I-2
I-2
I1
I-1
I-3
I-3
I-2
I-1
tp2320
a(I-2
I-3
I-6
I-3
I1
I1
I0
I0
tp2321
a(I1
I-1
I-2
I1
I-2
I0
I2
I-4
tp2322
a(I-1
I0
I1
I-8
I-3
I4
I-2
I4
tp2323
a(I-2
I-2
I5
I1
I2
I-1
I2
I1
tp2324
a(I1
I-1
I-2
I1
I-2
I-1
I-3
I2
tp2325
a(I0
I-2
I-4
I-1
I2
I-2
I-2
I0
tp2326
a(I-1
I1
I2
I0
I-4
I-2
I-2
I0
tp2327
a(I-2
I-1
I-3
I2
I1
I0
I1
I-2
tp2328
a(I0
I-1
I-6
I4
I1
I2
I0
I-1
tp2329
a(I-3
I2
I0
I2
I-3
I1
I-1
I1
tp2330
a(I-2
I-1
I2
I-1
I0
I1
I-3
I1
tp2331
a(I0
I-1
I5
I-6
I-3
I0
I-4
I-3
tp2332
a(I2
I1
I-4
I3
I1
I1
I3
I0
tp2333
a(I0
I0
I-1
I-4
I-6
I-4
I3
I0
tp2334
a(I-1
I-4
I2
I0
I-3
I0
I-2
I-1
tp2335
a(I-2
I-3
I0
I-3
I-1
I3
I1
I3
tp2336
a(I-1
I0
I-1
I-1
I1
I1
I-2
I-1
tp2337
a(I1
I-1
I0
I3
I0
I-1
I-3
I-1
tp2338
a(I0
I5
I0
I0
I3
I-3
I-3
I-4
tp2339
a(I-3
I-4
I0
I-4
I0
I4
I-1
I-1
tp2340
a(I-3
I-3
I0
I-1
I0
I-3
I0
I1
tp2341
a(I-3
I1
I0
I-4
I0
I-2
I-2
I1
tp2342
a(I3
I-2
I-4
I0
I0
I1
I0
I-3
tp2343
a(I0
I-1
I1
I-5
I-3
I0
I-1
I-2
tp2344
a(I-2
I-1
I2
I1
I-2
I0
I-1
I-2
tp2345
a(I-2
I-1
I-3
I-5
I-3
I-1
I-1
I-1
tp2346
a(I-1
I3
I-2
I-1
I3
I-3
I1
I-1
tp2347
a(I2
I-1
I0
I-3
I1
I0
I-1
I1
tp2348
a(I-2
I-1
I-1
I2
I-2
I0
I-1
I0
tp2349
a(I0
I-2
I-3
I0
I-3
I2
I-1
I-2
tp2350
a(I0
I1
I3
I-6
I-2
I1
I0
I-3
tp2351
a(I0
I-3
I-3
I2
I-3
I-2
I-1
I-1
tp2352
a(I-1
I-3
I-3
I2
I2
I2
I1
I2
tp2353
a(I0
I-1
I2
I-5
I-4
I-2
I1
I-1
tp2354
a(I0
I-1
I0
I-3
I-3
I-2
I-1
I1
tp2355
a(I0
I2
I0
I0
I0
I-1
I-2
I-2
tp2356
a(I-1
I0
I-1
I2
I4
I1
I-1
I1
tp2357
a(I-3
I0
I4
I-4
I-5
I0
I-2
I1
tp2358
a(I-2
I0
I1
I-2
I1
I-4
I-2
I0
tp2359
a(I-3
I-2
I2
I0
I-1
I-1
I-3
I-1
tp2360
a(I2
I0
I-4
I4
I0
I1
I3
I-3
tp2361
a(I0
I-3
I4
I-4
I-1
I0
I-2
I0
tp2362
a(I1
I3
I-3
I0
I-2
I-1
I-2
I1
tp2363
a(I-1
I1
I2
I-2
I-8
I-2
I1
I1
tp2364
a(I0
I2
I-3
I-5
I-2
I-1
I0
I-1
tp2365
a(I0
I-2
I-1
I-1
I0
I4
I0
I1
tp2366
a(I0
I-5
I0
I-2
I-1
I-3
I-1
I1
tp2367
a(I1
I-2
I3
I-4
I-5
I-2
I-1
I-2
tp2368
a(I-1
I-2
I1
I0
I-6
I0
I-3
I-1
tp2369
a(I-1
I1
I2
I-2
I0
I-1
I2
I-2
tp2370
a(I-1
I-1
I-7
I2
I3
I-1
I-3
I-1
tp2371
a(I-1
I1
I1
I0
I-5
I-1
I-1
I1
tp2372
a(I-1
I-2
I2
I-4
I-5
I-3
I0
I-2
tp2373
a(I-1
I-1
I0
I2
I-2
I1
I-2
I-1
tp2374
a(I-5
I-1
I4
I0
I-2
I-1
I-3
I0
tp2375
a(I-1
I1
I1
I0
I-2
I-4
I0
I2
tp2376
a(I-1
I-1
I-6
I-3
I0
I-2
I-1
I-1
tp2377
a(I0
I-1
I5
I4
I-2
I0
I0
I-3
tp2378
a(I1
I-1
I-1
I2
I-3
I1
I2
I1
tp2379
a(I-2
I-2
I1
I0
I-2
I0
I-3
I-4
tp2380
a(I-2
I-1
I-3
I1
I0
I-2
I-2
I-2
tp2381
a(I-2
I-1
I1
I-2
I-3
I-2
I-1
I-2
tp2382
a(I0
I-2
I1
I0
I-4
I-1
I0
I0
tp2383
a(I-1
I-2
I0
I-2
I-2
I1
I1
I1
tp2384
a(I2
I0
I-6
I5
I-1
I-4
I2
I-1
tp2385
a(I0
I-2
I3
I1
I-2
I3
I-2
I4
tp2386
a(I0
I0
I0
I-1
I1
I-1
I1
I0
tp2387
a(I0
I-1
I-1
I-1
I-4
I-2
I-1
I1
tp2388
a(I1
I-2
I1
I-2
I1
I-2
I0
I-3
tp2389
a(I-1
I0
I-3
I-4
I-3
I-2
I-3
I1
tp2390
a(I-3
I1
I-3
I-3
I3
I1
I0
I1
tp2391
a(I-1
I-2
I-1
I0
I0
I1
I-1
I-1
tp2392
a(I-2
I0
I1
I1
I-2
I2
I-1
I-5
tp2393
a(I-2
I-1
I2
I3
I-1
I0
I0
I0
tp2394
a(I2
I-1
I-3
I-2
I2
I0
I0
I-2
tp2395
a(I-2
I-1
I3
I-5
I-4
I-2
I-2
I2
tp2396
a(I-2
I2
I-4
I2
I-1
I-1
I-2
I-1
tp2397
a(I-1
I-1
I0
I0
I-1
I1
I0
I-2
tp2398
a(I-1
I-3
I3
I-2
I2
I-2
I-2
I3
tp2399
a(I-2
I1
I-2
I-1
I-1
I-1
I0
I-2
tp2400
a(I0
I1
I-2
I1
I-1
I0
I-1
I1
tp2401
a(I-1
I0
I0
I-2
I-3
I-4
I-3
I-2
tp2402
a(I-2
I-5
I2
I0
I-2
I-4
I1
I-3
tp2403
a(I0
I0
I-1
I-2
I-3
I2
I-4
I-2
tp2404
a(I3
I-1
I-4
I-2
I2
I3
I2
I-1
tp2405
a(I1
I2
I0
I0
I-1
I-1
I3
I0
tp2406
a(I-2
I-1
I0
I-2
I-1
I-1
I0
I1
tp2407
a(I-2
I-1
I2
I1
I-3
I0
I4
I0
tp2408
a(I-2
I-2
I-1
I-2
I4
I0
I0
I-3
tp2409
a(I0
I-3
I1
I-4
I0
I2
I-2
I-1
tp2410
a(I1
I-3
I-3
I-1
I2
I0
I0
I0
tp2411
a(I0
I-3
I3
I-6
I-3
I-3
I1
I1
tp2412
a(I-16
I10
I111
I-47
I-82
I51
I24
I37
tp2413
a(I-37
I-8
I101
I-32
I-62
I18
I-1
I17
tp2414
a(I-35
I-9
I50
I-6
I-31
I1
I-15
I0
tp2415
a(I-14
I-4
I-61
I33
I43
I-17
I-12
I-19
tp2416
a(I0
I-12
I-51
I17
I21
I-23
I-16
I-22
tp2417
a(I-6
I-9
I-9
I2
I-8
I-15
I-10
I-9
tp2418
a(I-12
I-10
I-5
I5
I-2
I-17
I-12
I-9
tp2419
a(I6
I3
I-47
I17
I22
I-7
I0
I-7
tp2420
a(I5
I-2
I-30
I11
I13
I-12
I-3
I-7
tp2421
a(I-2
I-4
I4
I-4
I-13
I-5
I-3
I-3
tp2422
a(I-8
I-5
I7
I-1
I-4
I-3
I-9
I-3
tp2423
a(I6
I5
I-28
I8
I14
I5
I6
I-2
tp2424
a(I6
I1
I-18
I4
I7
I-3
I2
I-4
tp2425
a(I-4
I-7
I6
I-6
I-6
I-10
I-9
I-2
tp2426
a(I-7
I-1
I13
I-5
I-9
I-1
I-1
I-1
tp2427
a(I5
I4
I-19
I7
I11
I6
I6
I4
tp2428
a(I4
I-3
I-9
I5
I4
I-3
I-1
I-8
tp2429
a(I-1
I-3
I10
I-7
I-9
I-2
I-3
I-1
tp2430
a(I-4
I0
I8
I3
I-6
I4
I-2
I4
tp2431
a(I0
I4
I-16
I1
I6
I3
I4
I1
tp2432
a(I1
I-2
I-10
I-3
I4
I-7
I-1
I-4
tp2433
a(I-3
I-3
I14
I-10
I-9
I-1
I-3
I0
tp2434
a(I-1
I0
I5
I-6
I-4
I-3
I2
I2
tp2435
a(I3
I1
I-14
I5
I8
I-1
I-1
I-3
tp2436
a(I-7
I0
I5
I-8
I-3
I-3
I-1
I3
tp2437
a(I2
I1
I-9
I0
I4
I3
I0
I-1
tp2438
a(I2
I-1
I1
I1
I0
I-4
I-2
I-3
tp2439
a(I-2
I0
I4
I-3
I-6
I-1
I-4
I-1
tp2440
a(I-3
I-3
I2
I-2
I0
I3
I-4
I-2
tp2441
a(I3
I3
I-8
I-1
I1
I4
I3
I0
tp2442
a(I-4
I1
I-2
I3
I1
I-4
I1
I0
tp2443
a(I-1
I-3
I6
I-4
I-5
I-2
I-1
I1
tp2444
a(I0
I1
I-3
I-3
I-1
I-2
I-3
I-2
tp2445
a(I2
I0
I-5
I-1
I2
I1
I1
I-2
tp2446
a(I-2
I-3
I-2
I-2
I2
I3
I-2
I-2
tp2447
a(I-2
I-4
I5
I-2
I-6
I-2
I-1
I2
tp2448
a(I0
I-1
I-2
I-1
I-2
I-3
I-1
I-2
tp2449
a(I-3
I-1
I4
I-3
I-1
I3
I0
I-1
tp2450
a(I0
I-1
I-3
I-1
I0
I-2
I0
I-2
tp2451
a(I-1
I1
I-3
I-4
I2
I-1
I0
I2
tp2452
a(I1
I1
I2
I-2
I-1
I0
I-2
I-1
tp2453
a(I-3
I-2
I1
I-3
I-2
I-4
I-1
I-3
tp2454
a(I-1
I-1
I0
I2
I0
I0
I1
I-1
tp2455
a(I3
I-1
I0
I2
I2
I0
I-1
I-3
tp2456
a(I-2
I-2
I-2
I0
I-1
I-3
I-2
I0
tp2457
a(I-3
I-4
I3
I-1
I-1
I2
I-1
I-1
tp2458
a(I-3
I-2
I-5
I1
I-2
I1
I2
I-3
tp2459
a(I1
I-4
I-1
I0
I0
I0
I2
I-1
tp2460
a(I0
I0
I0
I-3
I1
I2
I-1
I0
tp2461
a(I0
I-2
I-1
I-4
I-1
I2
I0
I-1
tp2462
a(I0
I1
I1
I-1
I-2
I-5
I1
I0
tp2463
a(I-3
I-2
I1
I4
I-1
I0
I-1
I1
tp2464
a(I0
I0
I-1
I3
I-2
I4
I0
I-2
tp2465
a(I0
I0
I0
I1
I-4
I1
I-1
I-1
tp2466
a(I-2
I-1
I0
I2
I-1
I-3
I-3
I0
tp2467
a(I0
I-3
I1
I-4
I-2
I0
I-2
I-1
tp2468
a(I1
I0
I-2
I2
I-1
I0
I0
I-1
tp2469
a(I0
I-2
I-2
I1
I-2
I1
I0
I-1
tp2470
a(I-2
I0
I2
I-5
I-1
I-2
I2
I-2
tp2471
a(I0
I1
I1
I-1
I-2
I1
I-2
I-1
tp2472
a(I1
I-2
I0
I0
I-1
I-4
I0
I0
tp2473
a(I0
I0
I2
I4
I-5
I-4
I-3
I-2
tp2474
a(I1
I-1
I-2
I2
I1
I0
I1
I0
tp2475
a(I-1
I-4
I-3
I0
I-3
I-3
I1
I2
tp2476
a(I-2
I-2
I0
I-4
I-2
I-3
I-3
I0
tp2477
a(I-1
I-2
I2
I-1
I-1
I-2
I-2
I-1
tp2478
a(I-1
I1
I-6
I4
I2
I-2
I-1
I-2
tp2479
a(I-2
I0
I-1
I1
I-6
I1
I-4
I2
tp2480
a(I-4
I0
I-2
I1
I0
I-1
I0
I3
tp2481
a(I-1
I-2
I0
I2
I-6
I0
I1
I-1
tp2482
a(I1
I1
I-2
I-3
I1
I-2
I-3
I-1
tp2483
a(I0
I0
I-1
I1
I-4
I-2
I1
I0
tp2484
a(I1
I-1
I-2
I-1
I1
I0
I0
I2
tp2485
a(I0
I-3
I0
I0
I0
I0
I-2
I-2
tp2486
a(I-2
I1
I1
I3
I-5
I0
I-1
I1
tp2487
a(I-1
I-1
I-1
I-1
I-2
I1
I-2
I0
tp2488
a(I0
I0
I-6
I1
I-4
I1
I1
I-2
tp2489
a(I1
I0
I0
I-1
I-2
I-1
I0
I2
tp2490
a(I-2
I-3
I3
I-1
I-1
I0
I0
I-3
tp2491
a(I-1
I-2
I6
I1
I-1
I-1
I-1
I-1
tp2492
a(I0
I-1
I-9
I-2
I-2
I1
I3
I0
tp2493
a(I0
I0
I1
I0
I0
I1
I0
I-1
tp2494
a(I-1
I-1
I-2
I-2
I-4
I3
I-3
I-1
tp2495
a(I-3
I-2
I1
I-1
I-3
I0
I-2
I-1
tp2496
a(I0
I-1
I0
I1
I2
I-2
I-1
I-1
tp2497
a(I0
I0
I1
I3
I-3
I-1
I3
I-1
tp2498
a(I0
I0
I5
I-1
I-1
I1
I-3
I2
tp2499
a(I-1
I-2
I-3
I-1
I-2
I1
I-3
I-1
tp2500
a(I-1
I0
I-4
I2
I2
I1
I-1
I0
tp2501
a(I0
I3
I-2
I-1
I-1
I-2
I3
I1
tp2502
a(I-1
I0
I5
I-2
I-3
I-2
I0
I0
tp2503
a(I-2
I-2
I2
I1
I-4
I-2
I-1
I1
tp2504
a(I-1
I1
I0
I1
I2
I-3
I-2
I-2
tp2505
a(I-1
I1
I-3
I-4
I0
I1
I-1
I-2
tp2506
a(I-1
I-3
I0
I-2
I-2
I-1
I-1
I-1
tp2507
a(I1
I1
I-2
I2
I0
I-2
I-3
I-1
tp2508
a(I0
I-2
I-2
I-1
I0
I-5
I1
I-2
tp2509
a(I-1
I-1
I1
I-5
I0
I1
I2
I0
tp2510
a(I-1
I-1
I-3
I3
I1
I-1
I-1
I-3
tp2511
a(I0
I-2
I1
I-7
I-1
I-2
I0
I1
tp2512
a(I-3
I1
I0
I0
I-3
I0
I-3
I-2
tp2513
a(I0
I-2
I2
I0
I-2
I-4
I-1
I-1
tp2514
a(I3
I-1
I-4
I1
I0
I-1
I2
I-2
tp2515
a(I-3
I-2
I-2
I-3
I0
I-4
I2
I-3
tp2516
a(I-2
I-1
I2
I-1
I2
I1
I0
I-2
tp2517
a(I-2
I1
I-1
I-3
I1
I-2
I0
I2
tp2518
a(I-2
I-2
I-7
I-4
I0
I-1
I-2
I3
tp2519
a(I1
I-3
I-2
I-3
I-1
I1
I0
I-2
tp2520
a(I1
I-1
I-3
I-1
I2
I-1
I0
I1
tp2521
a(I-1
I-1
I1
I-2
I-3
I1
I-3
I1
tp2522
a(I-1
I-1
I-1
I-5
I2
I-2
I-3
I0
tp2523
a(I-2
I-1
I1
I-1
I-1
I-1
I0
I3
tp2524
a(I-2
I-3
I-4
I-3
I0
I-1
I-1
I0
tp2525
a(I0
I-1
I0
I-1
I-3
I-4
I1
I-3
tp2526
a(I0
I-1
I5
I1
I-2
I0
I1
I-2
tp2527
a(I1
I0
I-1
I-1
I-5
I0
I1
I-3
tp2528
a(I-1
I-1
I-4
I3
I2
I0
I-2
I1
tp2529
a(I0
I0
I1
I-7
I-6
I0
I-1
I2
tp2530
a(I-2
I-1
I2
I-1
I0
I1
I-2
I-2
tp2531
a(I0
I0
I-4
I1
I0
I-1
I0
I0
tp2532
a(I-1
I0
I0
I-4
I-3
I-2
I-2
I-2
tp2533
a(I-1
I1
I2
I1
I-1
I1
I-2
I0
tp2534
a(I2
I2
I-6
I2
I0
I-1
I1
I1
tp2535
a(I-1
I0
I6
I0
I-3
I-2
I0
I-2
tp2536
a(I-1
I-3
I-1
I1
I-2
I1
I0
I-1
tp2537
a(I-1
I0
I4
I0
I-3
I-3
I1
I-3
tp2538
a(I2
I-1
I-3
I-2
I2
I0
I2
I-3
tp2539
a(I-2
I-3
I1
I2
I-3
I2
I0
I-2
tp2540
a(I-1
I0
I2
I-5
I-3
I-2
I-2
I3
tp2541
a(I0
I-1
I0
I0
I-1
I-4
I-5
I-1
tp2542
a(I0
I0
I0
I-3
I4
I3
I0
I2
tp2543
a(I1
I-2
I3
I-2
I-3
I-3
I0
I0
tp2544
a(I-2
I1
I-1
I5
I-1
I-2
I-1
I-3
tp2545
a(I1
I-2
I2
I-3
I-4
I0
I-1
I0
tp2546
a(I-1
I-2
I1
I-3
I-3
I0
I1
I-1
tp2547
a(I0
I-2
I4
I1
I1
I0
I-1
I-1
tp2548
a(I0
I2
I-5
I3
I0
I0
I0
I0
tp2549
a(I0
I-1
I3
I1
I-3
I0
I-3
I1
tp2550
a(I-3
I1
I1
I0
I-2
I-3
I-2
I2
tp2551
a(I-3
I-2
I3
I-2
I-2
I3
I1
I-2
tp2552
a(I2
I-1
I-7
I3
I3
I-1
I-2
I0
tp2553
a(I-3
I1
I5
I-1
I-5
I-2
I-1
I-3
tp2554
a(I-2
I-3
I3
I-2
I-4
I0
I-2
I-1
tp2555
a(I-1
I-2
I-1
I-1
I-3
I4
I-3
I-3
tp2556
a(I-2
I-1
I-1
I0
I-5
I-3
I-3
I0
tp2557
a(I-2
I-1
I1
I-1
I-2
I-2
I2
I1
tp2558
a(I0
I-1
I3
I-2
I-1
I0
I-1
I-6
tp2559
a(I-1
I0
I0
I-1
I0
I-2
I3
I-1
tp2560
a(I-1
I1
I-2
I3
I-6
I-1
I-2
I-1
tp2561
a(I-4
I2
I3
I0
I0
I-4
I-2
I-2
tp2562
a(I0
I0
I-9
I2
I0
I-1
I1
I-3
tp2563
a(I1
I-1
I1
I-1
I-3
I1
I-1
I-1
tp2564
a(I0
I-1
I3
I-1
I-3
I2
I-1
I-1
tp2565
a(I0
I0
I-3
I-1
I-1
I-2
I-3
I-1
tp2566
a(I2
I-1
I-1
I0
I2
I-1
I-1
I0
tp2567
a(I-1
I0
I3
I4
I-1
I-5
I-1
I0
tp2568
a(I1
I-3
I-6
I-1
I-2
I1
I0
I-2
tp2569
a(I1
I-2
I1
I-2
I1
I-1
I-1
I1
tp2570
a(I-1
I-1
I-1
I-5
I2
I-2
I-3
I0
tp2571
a(I-1
I1
I0
I-1
I-2
I1
I1
I-1
tp2572
a(I-2
I-1
I-6
I2
I3
I0
I1
I-3
tp2573
a(I0
I-1
I-2
I0
I-3
I-2
I-3
I2
tp2574
a(I0
I-2
I-2
I-2
I-1
I-4
I-1
I-1
tp2575
a(I-3
I-1
I1
I-2
I0
I1
I-1
I2
tp2576
a(I2
I1
I-5
I0
I1
I1
I0
I-1
tp2577
a(I-2
I-2
I6
I-2
I-1
I0
I-3
I-3
tp2578
a(I-2
I-1
I2
I-3
I0
I1
I2
I0
tp2579
a(I-2
I-2
I3
I2
I-2
I-3
I-3
I-1
tp2580
a(I-2
I-2
I2
I0
I3
I2
I-2
I0
tp2581
a(I0
I-2
I1
I0
I0
I0
I1
I0
tp2582
a(I0
I-1
I-2
I-2
I2
I-3
I-1
I1
tp2583
a(I1
I-2
I-2
I-9
I-6
I-3
I-4
I-1
tp2584
a(I0
I0
I5
I0
I-2
I-4
I2
I-1
tp2585
a(I0
I-1
I1
I-1
I0
I-2
I0
I1
tp2586
a(I-2
I2
I-1
I0
I1
I-2
I0
I-3
tp2587
a(I-1
I-4
I0
I-5
I0
I2
I-1
I2
tp2588
a(I1
I0
I-1
I-3
I-5
I-1
I-4
I-3
tp2589
a(I-1
I-1
I1
I0
I1
I-2
I-2
I0
tp2590
a(I0
I-1
I-3
I-1
I0
I0
I4
I3
tp2591
a(I-1
I-1
I3
I-3
I-4
I-3
I0
I-2
tp2592
a(I2
I-3
I-2
I4
I0
I3
I0
I-2
tp2593
a(I-2
I-2
I5
I-4
I-7
I1
I-2
I-2
tp2594
a(I0
I2
I-3
I3
I-1
I-2
I-1
I1
tp2595
a(I-1
I0
I0
I3
I0
I-1
I-2
I-2
tp2596
a(I-1
I-1
I-4
I0
I3
I1
I-2
I-1
tp2597
a(I0
I-1
I5
I-4
I-3
I-2
I2
I2
tp2598
a(I-1
I-3
I1
I2
I0
I0
I-2
I2
tp2599
a(I-3
I0
I-3
I-3
I2
I0
I-1
I-1
tp2600
a(I2
I-1
I-7
I0
I3
I-3
I-2
I-4
tp2601
a(I-1
I-2
I4
I-5
I-5
I1
I-2
I1
tp2602
a(I-1
I-3
I-3
I-2
I0
I0
I0
I-2
tp2603
a(I0
I3
I-1
I0
I0
I1
I1
I-2
tp2604
a(I-2
I-1
I3
I-5
I-6
I-1
I-2
I1
tp2605
a(I0
I-1
I-2
I3
I-3
I-3
I-3
I-3
tp2606
a(I-1
I-1
I-7
I-2
I2
I-3
I-2
I0
tp2607
a(I-1
I-1
I9
I1
I-4
I-3
I1
I0
tp2608
a(I-2
I-1
I0
I-2
I-1
I1
I-2
I0
tp2609
a(I0
I-2
I-1
I1
I-1
I1
I0
I-3
tp2610
a(I1
I1
I-4
I3
I-1
I-3
I1
I0
tp2611
a(I-1
I-3
I4
I2
I-3
I3
I0
I0
tp2612
a(I-4
I-4
I2
I-1
I-4
I2
I-1
I0
tp2613
a(I-1
I-1
I-4
I3
I-3
I1
I1
I-3
tp2614
a(I1
I1
I-8
I4
I-1
I-3
I0
I-2
tp2615
a(I-2
I0
I3
I-1
I-6
I-1
I-1
I0
tp2616
a(I-1
I0
I-5
I2
I0
I1
I1
I0
tp2617
a(I0
I0
I4
I-2
I-9
I-2
I-2
I-1
tp2618
a(I1
I2
I6
I-3
I-5
I-2
I0
I0
tp2619
a(I-1
I-1
I-4
I-1
I-2
I-2
I2
I0
tp2620
a(I-2
I2
I-4
I4
I2
I1
I0
I-4
tp2621
a(I-2
I-3
I3
I-6
I-2
I-5
I0
I-2
tp2622
a(I0
I1
I1
I1
I-1
I-2
I-1
I1
tp2623
a(I0
I-3
I-2
I-3
I2
I-3
I1
I1
tp2624
a(I0
I-3
I-5
I0
I3
I1
I2
I-1
tp2625
a(I-1
I-3
I4
I-2
I-5
I0
I-2
I-2
tp2626
a(I-1
I0
I3
I0
I-4
I-3
I-2
I-2
tp2627
a(I2
I0
I-3
I-3
I2
I1
I-2
I-1
tp2628
a(I-2
I1
I-2
I-1
I-1
I1
I1
I0
tp2629
a(I0
I0
I-3
I3
I3
I-1
I-2
I1
tp2630
a(I0
I-1
I-4
I-1
I1
I-1
I-1
I-2
tp2631
a(I-1
I-2
I2
I-1
I-6
I0
I-1
I-2
tp2632
a(I1
I-3
I-2
I-2
I-2
I0
I1
I0
tp2633
a(I-1
I1
I-2
I3
I0
I0
I2
I0
tp2634
a(I-1
I1
I-4
I-1
I3
I0
I2
I1
tp2635
a(I-1
I-4
I3
I0
I-2
I0
I0
I0
tp2636
a(I0
I0
I4
I-2
I-2
I0
I-3
I-1
tp2637
a(I-2
I1
I-4
I-1
I-2
I1
I0
I0
tp2638
a(I1
I-1
I-4
I-3
I0
I0
I1
I-1
tp2639
a(I-2
I-2
I3
I-1
I-3
I0
I-3
I0
tp2640
a(I0
I2
I-5
I0
I2
I1
I-2
I-1
tp2641
a(I2
I1
I3
I-3
I-4
I0
I-1
I0
tp2642
a(I0
I1
I5
I-3
I-5
I0
I-1
I-5
tp2643
a(I-4
I0
I-1
I4
I3
I2
I0
I-2
tp2644
a(I1
I0
I-4
I2
I3
I-2
I-1
I-1
tp2645
a(I-2
I-3
I4
I-2
I-4
I-1
I0
I-3
tp2646
a(I-2
I0
I1
I-6
I-1
I-1
I0
I-2
tp2647
a(I0
I-2
I-1
I-2
I1
I0
I0
I1
tp2648
a(I0
I-4
I-5
I1
I3
I3
I1
I0
tp2649
a(I1
I-2
I5
I-6
I-3
I1
I-2
I0
tp2650
a(I-1
I-2
I3
I-1
I-4
I-1
I-2
I2
tp2651
a(I-1
I2
I-2
I0
I4
I-3
I0
I2
tp2652
a(I0
I-3
I1
I1
I-4
I-1
I-4
I-2
tp2653
a(I-1
I-1
I-4
I-5
I3
I2
I-2
I-4
tp2654
a(I0
I3
I0
I3
I5
I0
I1
I-1
tp2655
a(I-2
I0
I8
I-1
I-5
I-2
I-2
I0
tp2656
a(I-3
I-3
I2
I1
I-6
I-2
I0
I-1
tp2657
a(I0
I-1
I-8
I1
I3
I-2
I0
I-1
tp2658
a(I0
I0
I-3
I-2
I-2
I-1
I1
I-2
tp2659
a(I-4
I-1
I4
I0
I-4
I1
I-2
I3
tp2660
a(I-3
I1
I0
I0
I-1
I-3
I-1
I-1
tp2661
a(I0
I-1
I4
I1
I1
I-1
I-1
I-1
tp2662
a(I1
I1
I-6
I0
I-2
I-1
I2
I-1
tp2663
a(I-2
I-1
I3
I1
I-4
I-1
I-1
I2
tp2664
a(I3
I0
I-2
I1
I-1
I-5
I-3
I2
tp2665
a(I0
I-4
I3
I-5
I-3
I2
I-3
I1
tp2666
a(I0
I-3
I1
I-1
I1
I-1
I-3
I4
tp2667
a(I-2
I0
I0
I0
I0
I-2
I0
I-2
tp2668
a(I-1
I-2
I-3
I5
I0
I1
I-1
I-4
tp2669
a(I-1
I-3
I2
I0
I-5
I-3
I-2
I-3
tp2670
a(I-2
I-2
I1
I-4
I-4
I-2
I1
I-1
tp2671
a(I0
I-2
I-1
I2
I0
I0
I0
I-3
tp2672
a(I0
I-3
I-2
I1
I-1
I0
I1
I0
tp2673
a(I0
I-2
I2
I3
I-3
I-6
I-4
I1
tp2674
a(I2
I-2
I4
I0
I-1
I-3
I0
I-3
tp2675
a(I1
I-1
I-3
I0
I-4
I1
I1
I2
tp2676
a(I-4
I0
I1
I-3
I-1
I0
I-1
I3
tp2677
a(I0
I1
I-2
I2
I-3
I2
I-4
I-2
tp2678
a(I1
I-1
I-2
I0
I0
I-2
I-1
I-3
tp2679
a(I0
I-2
I3
I0
I-4
I-1
I1
I-1
tp2680
a(I-1
I-1
I-1
I1
I-1
I1
I-2
I-1
tp2681
a(I-1
I1
I0
I0
I-1
I-2
I2
I-1
tp2682
a(I-2
I1
I-2
I0
I4
I0
I-2
I2
tp2683
a(I2
I-1
I4
I-5
I-4
I1
I0
I3
tp2684
a(I-3
I0
I2
I-5
I0
I-2
I-2
I-2
tp2685
a(I3
I-3
I-2
I0
I3
I-4
I2
I0
tp2686
a(I1
I-2
I-6
I3
I0
I-4
I2
I1
tp2687
a(I-2
I-1
I5
I-4
I-1
I3
I-4
I-2
tp2688
a(I1
I0
I-3
I1
I3
I3
I0
I-5
tp2689
a(I-1
I-1
I3
I-1
I-4
I0
I-3
I0
tp2690
a(I-2
I-4
I1
I2
I-6
I-1
I-1
I-3
tp2691
a(I0
I-1
I-6
I3
I-2
I4
I-1
I0
tp2692
a(I1
I-1
I-2
I-2
I6
I2
I2
I3
tp2693
a(I-3
I1
I4
I-3
I-2
I-4
I0
I1
tp2694
a(I-2
I-1
I5
I-1
I-1
I-2
I-2
I-1
tp2695
a(I-2
I1
I-3
I0
I3
I0
I1
I-5
tp2696
a(I3
I1
I-3
I-3
I3
I0
I-1
I-2
tp2697
a(I-3
I-5
I1
I-5
I-5
I2
I2
I0
tp2698
a(I1
I-1
I1
I2
I-4
I-5
I-1
I0
tp2699
a(I0
I-1
I-2
I5
I0
I0
I-3
I0
tp2700
a(I-2
I-1
I4
I0
I-5
I0
I0
I2
tp2701
a(I0
I-2
I-2
I-2
I4
I-2
I-2
I-1
tp2702
a(I2
I-2
I-7
I-4
I2
I-1
I-2
I-2
tp2703
a(I-2
I-1
I3
I-2
I1
I-1
I1
I2
tp2704
a(I-1
I-1
I5
I0
I-3
I0
I-2
I-1
tp2705
a(I-2
I1
I-2
I0
I-1
I1
I-3
I1
tp2706
a(I2
I-1
I-2
I1
I2
I-2
I0
I-1
tp2707
a(I-2
I-2
I0
I0
I-1
I-3
I0
I-3
tp2708
a(I1
I-2
I3
I-5
I-2
I2
I-1
I-2
tp2709
a(I-1
I-2
I0
I-2
I0
I0
I1
I-3
tp2710
a(I1
I0
I-2
I1
I1
I0
I0
I0
tp2711
a(I0
I0
I2
I-2
I-4
I0
I-4
I0
tp2712
a(I-1
I1
I-7
I2
I0
I-1
I2
I1
tp2713
a(I-1
I-3
I2
I1
I-1
I-1
I-1
I0
tp2714
a(I-2
I0
I2
I-1
I-2
I-2
I-3
I0
tp2715
a(I-1
I-1
I-3
I0
I0
I-1
I0
I-3
tp2716
a(I0
I1
I-3
I-1
I1
I-3
I1
I-1
tp2717
a(I-5
I-1
I2
I0
I-3
I1
I-2
I1
tp2718
a(I-2
I-1
I-3
I-2
I-8
I-4
I0
I0
tp2719
a(I0
I-1
I-2
I0
I4
I4
I-1
I1
tp2720
a(I2
I-2
I-6
I1
I-3
I-6
I-2
I0
tp2721
a(I-4
I-2
I3
I0
I-2
I-2
I1
I-3
tp2722
a(I-2
I0
I0
I1
I-1
I-2
I-1
I1
tp2723
a(I1
I1
I-3
I2
I1
I1
I0
I-3
tp2724
a(I0
I-1
I1
I0
I-1
I-2
I0
I0
tp2725
a(I0
I-1
I1
I2
I4
I-3
I-1
I-2
tp2726
a(I2
I2
I-2
I-4
I-1
I2
I2
I-5
tp2727
a(I-1
I-3
I-2
I-5
I-4
I-2
I-3
I-1
tp2728
a(I-4
I-1
I2
I0
I-2
I6
I-3
I-4
tp2729
a(I-2
I-1
I-4
I-1
I1
I1
I0
I0
tp2730
a(I-2
I-4
I-4
I3
I1
I-3
I2
I-1
tp2731
a(I2
I-2
I-2
I3
I0
I0
I-1
I-4
tp2732
a(I-2
I-1
I6
I-3
I-6
I0
I-1
I0
tp2733
a(I0
I0
I-6
I-2
I2
I1
I1
I-1
tp2734
a(I0
I-1
I-3
I-3
I-3
I5
I-1
I2
tp2735
a(I-2
I1
I6
I2
I-2
I-1
I-2
I1
tp2736
a(I0
I-3
I-3
I-2
I-1
I-2
I3
I-1
tp2737
a(I0
I-3
I2
I-1
I-3
I-2
I-3
I0
tp2738
a(I-1
I-1
I-1
I-2
I-2
I-2
I-2
I-1
tp2739
a(I-1
I1
I-5
I-2
I1
I-3
I0
I-2
tp2740
a(I0
I0
I-3
I-2
I4
I2
I2
I0
tp2741
a(I0
I-2
I1
I0
I-2
I-6
I-1
I1
tp2742
a(I-2
I-1
I0
I-3
I-1
I0
I2
I-1
tp2743
a(I-1
I1
I-3
I-1
I0
I0
I-2
I-3
tp2744
a(I-2
I-3
I-3
I0
I-1
I0
I-2
I-3
tp2745
a(I-2
I-3
I0
I-3
I-2
I-2
I1
I-3
tp2746
a(I-1
I-2
I-1
I3
I-2
I2
I-1
I-1
tp2747
a(I0
I-2
I-3
I0
I-1
I-1
I0
I1
tp2748
a(I-1
I2
I3
I0
I-5
I-5
I2
I-2
tp2749
a(I0
I0
I-3
I-3
I3
I-1
I-1
I1
tp2750
a(I0
I-2
I-2
I0
I-3
I0
I0
I-4
tp2751
a(I0
I1
I0
I-2
I-1
I1
I1
I2
tp2752
a(I-1
I-2
I1
I-3
I-3
I2
I-2
I1
tp2753
a(I0
I-1
I-4
I3
I0
I-1
I1
I-3
tp2754
a(I0
I0
I-3
I-1
I2
I-2
I-2
I1
tp2755
a(I-1
I-2
I1
I-1
I-3
I-1
I-2
I-2
tp2756
a(I-3
I-1
I3
I-1
I-2
I0
I0
I-1
tp2757
a(I0
I0
I-1
I0
I0
I2
I-3
I-2
tp2758
a(I0
I2
I-2
I1
I-1
I1
I0
I1
tp2759
a(I-2
I-1
I-2
I2
I-2
I0
I-2
I-1
tp2760
a(I0
I0
I0
I-1
I4
I-2
I0
I1
tp2761
a(I1
I2
I1
I-4
I-5
I-1
I-2
I-1
tp2762
a(I-2
I-1
I1
I-3
I-2
I-1
I1
I1
tp2763
a(I1
I-2
I-6
I-1
I3
I-3
I0
I0
tp2764
as.