(dp0
S'rest'
p1
(lp2
(I0
I-2
I3
I-5
I-4
I18
I1
I1
tp3
a(I0
I-1
I3
I-7
I-5
I9
I1
I0
tp4
a(I0
I1
I-4
I4
I2
I-18
I-2
I-2
tp5
a(I0
I-1
I-3
I2
I-2
I-9
I-2
I0
tp6
a(I1
I0
I2
I-2
I2
I9
I-1
I-2
tp7
a(I-1
I-2
I1
I-4
I-4
I9
I1
I-1
tp8
a(I0
I0
I-3
I2
I-1
I-10
I0
I1
tp9
a(I-2
I0
I-2
I4
I3
I-10
I-1
I-2
tp10
a(I-3
I-1
I-1
I-1
I-2
I6
I0
I-2
tp11
a(I1
I0
I-1
I-5
I-3
I8
I1
I0
tp12
a(I0
I0
I-2
I1
I1
I-10
I-1
I-3
tp13
a(I-2
I0
I-2
I3
I1
I-8
I-2
I-3
tp14
a(I-1
I-1
I0
I-4
I-5
I7
I0
I-1
tp15
a(I-1
I-1
I2
I-3
I-5
I6
I-2
I1
tp16
a(I-1
I-3
I-3
I4
I5
I-10
I-2
I-1
tp17
a(I0
I-1
I-3
I2
I-1
I-5
I-1
I-2
tp18
a(I-1
I-1
I-2
I0
I-2
I5
I1
I-1
tp19
a(I-2
I-1
I0
I-4
I-3
I2
I1
I-1
tp20
a(I1
I-1
I-1
I0
I1
I-7
I-1
I-2
tp21
a(I0
I-2
I0
I0
I0
I-3
I-2
I-2
tp22
a(I0
I-1
I-1
I-3
I0
I4
I-2
I-1
tp23
a(I-1
I0
I0
I-1
I-2
I0
I0
I-1
tp24
a(I-2
I0
I-1
I1
I0
I-5
I-1
I-1
tp25
a(I-1
I-1
I-1
I1
I-2
I0
I-1
I0
tp26
a(I-2
I-1
I-1
I0
I2
I-3
I-2
I0
tp27
a(I1
I2
I-2
I-1
I-9
I-6
I-1
I1
tp28
a(I-1
I-1
I1
I-1
I0
I2
I0
I0
tp29
a(I-1
I-1
I0
I-1
I-4
I0
I-1
I-3
tp30
a(I-2
I-1
I-1
I0
I1
I-2
I-2
I0
tp31
a(I-1
I0
I-1
I-1
I2
I-1
I-1
I-1
tp32
a(I-2
I0
I0
I-5
I-2
I0
I1
I1
tp33
a(I1
I-1
I0
I-3
I3
I-1
I-1
I0
tp34
a(I0
I0
I0
I0
I-7
I-3
I1
I-1
tp35
a(I0
I-1
I-2
I0
I1
I-1
I-2
I-2
tp36
a(I0
I-1
I0
I-1
I-1
I2
I-1
I-1
tp37
a(I-1
I-1
I-1
I0
I1
I1
I1
I1
tp38
a(I-1
I-1
I0
I0
I0
I1
I-1
I0
tp39
a(I0
I-1
I-2
I-1
I-1
I-2
I-3
I-2
tp40
a(I0
I0
I-1
I-1
I0
I-1
I0
I0
tp41
a(I-2
I-1
I-2
I-1
I-1
I0
I1
I-2
tp42
a(I0
I0
I-1
I0
I-2
I2
I0
I-2
tp43
a(I-1
I-2
I-1
I1
I3
I0
I0
I-1
tp44
a(I0
I-1
I-2
I-1
I2
I-2
I-1
I-1
tp45
a(I-1
I0
I-2
I1
I0
I0
I0
I0
tp46
a(I0
I0
I0
I-1
I-6
I0
I0
I-2
tp47
a(I-2
I1
I-1
I-1
I1
I-3
I-1
I-1
tp48
a(I-2
I-1
I-1
I0
I-1
I-1
I0
I0
tp49
a(I0
I-1
I-1
I-1
I0
I0
I-1
I1
tp50
a(I0
I-1
I1
I0
I0
I-3
I-1
I-3
tp51
a(I0
I-1
I-1
I0
I1
I0
I0
I-1
tp52
a(I0
I-1
I-2
I-1
I-1
I-1
I-1
I0
tp53
a(I0
I-2
I-1
I0
I-2
I-2
I-1
I-2
tp54
a(I1
I0
I-1
I-2
I-1
I-1
I0
I-1
tp55
a(I-1
I-2
I0
I0
I-1
I0
I-1
I-3
tp56
a(I-2
I-1
I0
I-1
I0
I1
I-2
I0
tp57
a(I0
I0
I-2
I-1
I0
I-4
I0
I0
tp58
a(I-2
I0
I-2
I1
I1
I-2
I0
I-1
tp59
a(I-1
I-1
I1
I-1
I0
I0
I0
I-1
tp60
a(I-1
I-1
I-1
I-1
I-1
I1
I0
I-1
tp61
a(I-1
I-1
I-1
I-1
I-5
I-3
I0
I0
tp62
a(I0
I0
I0
I-1
I0
I0
I0
I-1
tp63
a(I0
I-2
I-2
I0
I-2
I-2
I-1
I0
tp64
a(I0
I-3
I0
I-1
I-2
I-1
I-1
I0
tp65
a(I-1
I0
I-1
I-1
I-1
I-1
I0
I-1
tp66
a(I-2
I-2
I-1
I-2
I1
I-3
I0
I0
tp67
a(I0
I0
I0
I1
I1
I-1
I-2
I-2
tp68
a(I-1
I0
I-2
I1
I-2
I-3
I0
I0
tp69
a(I-1
I0
I2
I0
I-1
I0
I0
I0
tp70
a(I0
I0
I-1
I-1
I-5
I-2
I0
I0
tp71
a(I-2
I0
I1
I1
I6
I-2
I-1
I1
tp72
a(I0
I-1
I-2
I0
I-1
I-1
I0
I-1
tp73
a(I0
I-1
I-2
I-4
I0
I0
I-1
I-2
tp74
a(I-2
I-1
I-1
I-2
I-4
I-1
I-2
I-1
tp75
a(I-1
I-1
I-2
I-1
I1
I0
I-1
I-1
tp76
a(I1
I-1
I-1
I-1
I-2
I0
I-1
I0
tp77
a(I0
I0
I-1
I1
I2
I-1
I0
I0
tp78
a(I1
I0
I0
I0
I-1
I-2
I-2
I-1
tp79
a(I-1
I-1
I-3
I-1
I0
I-1
I0
I0
tp80
a(I-3
I-1
I-2
I-1
I0
I-1
I-2
I-2
tp81
a(I-1
I-2
I-2
I1
I-2
I-2
I-2
I-2
tp82
a(I-1
I-1
I-2
I0
I-3
I-2
I0
I0
tp83
a(I0
I-2
I0
I-2
I0
I0
I0
I0
tp84
a(I-1
I0
I-1
I0
I2
I1
I-1
I0
tp85
a(I-1
I0
I-1
I-1
I-5
I-3
I0
I-1
tp86
a(I0
I0
I-2
I-2
I0
I0
I1
I0
tp87
a(I-2
I-1
I-2
I-1
I0
I-2
I0
I0
tp88
a(I-2
I-1
I-1
I-1
I-3
I-3
I-3
I-1
tp89
a(I0
I-2
I-1
I-2
I0
I0
I-1
I-1
tp90
a(I0
I-2
I-2
I-1
I-4
I0
I0
I-2
tp91
a(I-1
I-1
I-2
I1
I2
I-2
I-1
I-2
tp92
a(I-1
I-1
I0
I0
I0
I-3
I-1
I1
tp93
a(I0
I0
I-1
I-1
I-1
I1
I0
I-1
tp94
a(I-2
I-1
I0
I1
I-1
I-2
I-1
I1
tp95
a(I0
I0
I0
I-2
I-2
I-5
I-1
I-1
tp96
a(I-3
I-1
I-1
I-3
I-2
I1
I0
I-2
tp97
a(I0
I-1
I-1
I-1
I-2
I0
I-2
I0
tp98
a(I-1
I-1
I-1
I-1
I0
I-3
I0
I0
tp99
a(I0
I-1
I-1
I-3
I-3
I0
I-1
I-1
tp100
a(I-1
I-1
I-1
I-2
I-2
I-1
I-1
I-1
tp101
a(I-1
I0
I-1
I0
I1
I-2
I0
I0
tp102
a(I-1
I-1
I0
I0
I-1
I0
I-1
I0
tp103
a(I-1
I-2
I-2
I1
I0
I1
I-1
I0
tp104
a(I-2
I-1
I-1
I-2
I1
I0
I-1
I0
tp105
a(I-1
I-2
I-1
I0
I-1
I-2
I-2
I-1
tp106
a(I1
I0
I-1
I0
I-3
I1
I1
I-1
tp107
a(I-1
I-1
I1
I-1
I2
I-1
I1
I-2
tp108
a(I0
I-1
I2
I1
I3
I-1
I-2
I-1
tp109
a(I-1
I-1
I0
I-1
I-1
I-2
I0
I-1
tp110
a(I0
I-2
I-1
I1
I0
I0
I0
I-2
tp111
a(I-1
I1
I0
I-2
I2
I-2
I-2
I-1
tp112
a(I-1
I-2
I-2
I-2
I-5
I-3
I-2
I0
tp113
a(I0
I-1
I-1
I-2
I-1
I1
I0
I0
tp114
a(I1
I0
I-2
I-2
I-2
I-3
I-1
I0
tp115
a(I1
I0
I-3
I-1
I-3
I-3
I-1
I-1
tp116
a(I0
I0
I0
I-1
I1
I-2
I1
I-1
tp117
a(I-2
I-1
I-1
I0
I-2
I1
I-1
I-1
tp118
a(I0
I0
I0
I-1
I-2
I1
I-1
I-1
tp119
a(I0
I-2
I-1
I1
I4
I-3
I-1
I1
tp120
a(I-1
I0
I0
I0
I-3
I0
I1
I-2
tp121
a(I-1
I-1
I1
I-1
I3
I-2
I-2
I-1
tp122
a(I-1
I-1
I0
I-1
I1
I0
I0
I-1
tp123
a(I-2
I-1
I0
I-1
I-2
I0
I-1
I-2
tp124
a(I-1
I0
I0
I-1
I-3
I0
I0
I-1
tp125
a(I-1
I-2
I-1
I0
I1
I-3
I0
I0
tp126
a(I-1
I0
I-2
I1
I1
I-2
I-2
I-2
tp127
a(I-1
I-1
I-1
I-1
I-2
I1
I0
I-2
tp128
a(I-1
I0
I-1
I0
I-1
I-1
I0
I0
tp129
a(I-1
I1
I-1
I-1
I-3
I-3
I0
I-1
tp130
a(I1
I-1
I-1
I2
I4
I-2
I-2
I0
tp131
a(I0
I0
I-2
I-2
I-4
I0
I0
I0
tp132
a(I-2
I-2
I-1
I0
I1
I0
I-1
I-1
tp133
a(I-1
I-2
I-2
I0
I-2
I-4
I-1
I-2
tp134
a(I0
I0
I0
I0
I5
I-2
I-1
I-1
tp135
a(I-2
I0
I-1
I1
I0
I-3
I-1
I-1
tp136
a(I-1
I-1
I-1
I-1
I3
I0
I0
I-2
tp137
a(I-2
I0
I3
I0
I2
I0
I-1
I-1
tp138
a(I-2
I-2
I-1
I-1
I-5
I-1
I-1
I-2
tp139
a(I-1
I0
I-3
I-1
I0
I-4
I-1
I-1
tp140
a(I1
I0
I-1
I-1
I1
I-1
I-3
I0
tp141
a(I-2
I-2
I-2
I-3
I-2
I0
I-1
I-2
tp142
a(I-1
I0
I-1
I1
I3
I0
I-1
I-3
tp143
a(I-1
I-1
I0
I0
I1
I-1
I0
I0
tp144
a(I0
I-1
I-2
I-1
I-3
I-2
I-1
I0
tp145
a(I-1
I-1
I-3
I1
I0
I-1
I-1
I1
tp146
a(I-1
I-1
I-2
I-2
I-1
I1
I-1
I-2
tp147
a(I0
I0
I1
I-1
I2
I1
I0
I-2
tp148
a(I-1
I-1
I-2
I-1
I-2
I0
I1
I-1
tp149
a(I-1
I-1
I-1
I-1
I0
I-1
I0
I0
tp150
a(I-1
I0
I-1
I-2
I-5
I0
I0
I-1
tp151
a(I-1
I-2
I-1
I-3
I2
I-1
I-1
I-2
tp152
a(I0
I-1
I-1
I-2
I1
I1
I0
I-1
tp153
a(I-2
I-2
I-1
I1
I-2
I-2
I-4
I-1
tp154
a(I-1
I-1
I-1
I0
I0
I1
I-2
I-1
tp155
a(I1
I1
I0
I1
I-1
I1
I1
I-1
tp156
a(I0
I-1
I0
I-2
I-2
I-1
I0
I-1
tp157
a(I-1
I-1
I-1
I-1
I-1
I-3
I0
I-2
tp158
a(I-2
I0
I-2
I-3
I-3
I-1
I0
I-2
tp159
a(I-1
I-1
I-1
I1
I0
I-2
I0
I-2
tp160
a(I-2
I0
I-1
I-1
I-4
I-2
I-1
I0
tp161
a(I0
I1
I0
I-2
I-1
I0
I0
I-2
tp162
a(I-1
I-2
I0
I1
I1
I-2
I-1
I0
tp163
a(I0
I-1
I-1
I0
I-1
I-3
I0
I-1
tp164
a(I0
I-1
I1
I2
I-4
I1
I-1
I-1
tp165
a(I0
I-1
I-2
I-2
I4
I1
I-2
I-1
tp166
a(I0
I0
I-2
I-3
I-2
I-1
I0
I0
tp167
a(I0
I0
I-1
I0
I-2
I-3
I-1
I-2
tp168
a(I-1
I-2
I0
I-1
I3
I0
I0
I-1
tp169
a(I-1
I-1
I-1
I-1
I-2
I1
I-1
I0
tp170
a(I1
I1
I-1
I1
I2
I-1
I-2
I-2
tp171
a(I0
I-2
I-1
I0
I-1
I1
I-1
I-2
tp172
a(I0
I-1
I-1
I-1
I0
I1
I-1
I-1
tp173
a(I0
I-1
I-2
I-4
I-2
I-1
I-2
I0
tp174
a(I1
I-2
I0
I-1
I-2
I-1
I-1
I1
tp175
a(I-2
I0
I0
I0
I-1
I1
I-1
I0
tp176
a(I0
I0
I0
I0
I-2
I-1
I0
I-1
tp177
a(I-1
I-1
I-1
I0
I2
I-3
I0
I-2
tp178
a(I-2
I1
I-1
I-2
I-1
I-1
I0
I-1
tp179
a(I-1
I0
I-3
I-1
I1
I0
I0
I-2
tp180
a(I-1
I-1
I-2
I-1
I-1
I-3
I-2
I-2
tp181
a(I0
I-2
I-3
I1
I-1
I-4
I-1
I0
tp182
a(I-22
I-53
I33
I-78
I-89
I56
I-3
I-37
tp183
a(I-1
I13
I-37
I96
I50
I-105
I-9
I-6
tp184
a(I-1
I7
I-21
I44
I25
I-34
I-7
I-4
tp185
a(I6
I15
I2
I14
I16
I12
I7
I11
tp186
a(I5
I11
I-4
I-6
I12
I27
I2
I11
tp187
a(I-1
I-7
I8
I-39
I-19
I41
I-1
I-1
tp188
a(I-7
I-10
I-1
I-25
I-17
I12
I-7
I-6
tp189
a(I-6
I-11
I-5
I-24
I-12
I25
I-7
I-6
tp190
a(I3
I8
I-3
I5
I9
I-4
I1
I5
tp191
a(I-1
I-6
I1
I-13
I-9
I-2
I-1
I-2
tp192
a(I4
I6
I-3
I13
I10
I-14
I1
I4
tp193
a(I-1
I-6
I3
I-10
I-9
I13
I-1
I-5
tp194
a(I3
I6
I-6
I16
I13
I-16
I1
I3
tp195
a(I3
I6
I3
I1
I3
I-8
I3
I5
tp196
a(I0
I-4
I4
I-13
I-7
I9
I-1
I-3
tp197
a(I-3
I-2
I0
I0
I-5
I2
I-1
I-3
tp198
a(I-1
I3
I-8
I13
I9
I-19
I-4
I-2
tp199
a(I-3
I-3
I-5
I-7
I-5
I2
I-5
I-3
tp200
a(I-1
I-4
I2
I-4
I-2
I4
I0
I-3
tp201
a(I0
I-2
I-1
I0
I-2
I0
I-1
I-3
tp202
a(I4
I8
I-7
I19
I17
I-19
I-2
I5
tp203
a(I0
I-3
I2
I-7
I-5
I4
I-3
I-2
tp204
a(I-1
I-1
I-1
I-2
I-3
I0
I-2
I-3
tp205
a(I-1
I2
I1
I1
I2
I-2
I2
I1
tp206
a(I-3
I-3
I-2
I-1
I-2
I-2
I-2
I-2
tp207
a(I0
I-2
I-2
I-3
I-4
I1
I-1
I-3
tp208
a(I0
I1
I-4
I5
I3
I-7
I0
I2
tp209
a(I-2
I-2
I1
I-2
I-1
I-1
I0
I-1
tp210
a(I0
I0
I-3
I3
I3
I-3
I-1
I1
tp211
a(I-1
I-2
I1
I-2
I-2
I2
I-1
I-1
tp212
a(I1
I4
I-2
I4
I2
I-5
I-3
I0
tp213
a(I2
I1
I-3
I1
I-2
I-3
I0
I-1
tp214
a(I0
I-1
I1
I-2
I-3
I1
I0
I0
tp215
a(I0
I-2
I0
I-2
I-1
I2
I-1
I0
tp216
a(I-2
I2
I-3
I3
I2
I-6
I0
I-2
tp217
a(I-1
I-2
I0
I0
I-2
I1
I-2
I-3
tp218
a(I0
I1
I-1
I5
I4
I-5
I0
I1
tp219
a(I-1
I0
I-1
I-2
I-1
I0
I0
I-1
tp220
a(I0
I-2
I-1
I-2
I-1
I0
I0
I-1
tp221
a(I-1
I0
I0
I0
I-1
I-3
I-2
I-1
tp222
a(I0
I1
I-2
I0
I1
I-4
I-1
I-1
tp223
a(I0
I-1
I0
I-1
I-1
I-2
I-1
I-1
tp224
a(I-1
I-1
I-1
I-4
I-3
I0
I-1
I-1
tp225
a(I-3
I-2
I-2
I-1
I-1
I1
I-2
I0
tp226
a(I0
I0
I-1
I1
I1
I-2
I0
I-1
tp227
a(I0
I0
I0
I-2
I-2
I-3
I0
I-2
tp228
a(I1
I-1
I-2
I0
I1
I1
I-1
I-1
tp229
a(I-1
I-1
I-2
I-2
I-1
I0
I-1
I-2
tp230
a(I-2
I0
I-1
I-3
I-1
I-2
I-1
I-1
tp231
a(I-1
I-1
I-2
I-1
I-1
I-1
I-2
I-1
tp232
a(I1
I-1
I-2
I0
I-1
I-3
I1
I-2
tp233
a(I-3
I-1
I-1
I-1
I-1
I-1
I-1
I0
tp234
a(I-1
I1
I-1
I0
I-1
I0
I1
I-1
tp235
a(I-2
I0
I-1
I-3
I-2
I0
I-1
I-1
tp236
a(I-2
I0
I-1
I0
I0
I-3
I-2
I0
tp237
a(I-2
I-1
I-1
I-1
I0
I1
I0
I-3
tp238
a(I-1
I0
I-1
I-1
I-1
I1
I-1
I-1
tp239
a(I0
I-1
I-1
I2
I0
I-2
I0
I-1
tp240
a(I0
I-3
I-1
I-2
I0
I-1
I-2
I1
tp241
a(I-1
I-2
I-2
I0
I-1
I0
I-1
I0
tp242
a(I-3
I-1
I-1
I-1
I2
I-4
I-3
I-2
tp243
a(I0
I-1
I0
I0
I-2
I1
I-1
I0
tp244
a(I1
I-3
I-2
I0
I-3
I-1
I-1
I-1
tp245
a(I-1
I-1
I-1
I-1
I-1
I0
I-1
I-1
tp246
a(I1
I-1
I0
I-1
I-3
I-2
I0
I0
tp247
a(I-1
I0
I-2
I-2
I1
I-1
I-1
I-1
tp248
a(I0
I0
I0
I0
I5
I-1
I-3
I-1
tp249
a(I-1
I-1
I0
I0
I-5
I-2
I0
I-2
tp250
a(I0
I0
I-2
I1
I1
I-2
I-1
I0
tp251
a(I-1
I-1
I-1
I-2
I-2
I-1
I1
I0
tp252
a(I-2
I1
I-1
I0
I-2
I2
I-1
I-1
tp253
a(I-1
I-1
I-2
I-1
I0
I1
I-2
I-1
tp254
a(I1
I-1
I0
I-2
I-2
I0
I-1
I-1
tp255
a(I-2
I0
I1
I1
I2
I0
I0
I2
tp256
a(I-2
I-1
I-1
I-1
I-3
I-1
I0
I0
tp257
a(I-1
I0
I0
I0
I-1
I0
I-2
I1
tp258
a(I-2
I-1
I-1
I-3
I-1
I0
I-1
I-1
tp259
a(I-1
I0
I-1
I-2
I0
I-1
I-1
I-2
tp260
a(I1
I0
I-3
I1
I1
I-2
I1
I-1
tp261
a(I-1
I0
I0
I-1
I1
I-2
I-2
I-1
tp262
a(I1
I-1
I0
I-1
I-2
I1
I-1
I-1
tp263
a(I-1
I0
I-2
I0
I-2
I-3
I0
I-1
tp264
a(I1
I1
I0
I2
I2
I-2
I0
I0
tp265
a(I0
I-1
I-2
I-2
I-3
I-1
I1
I-2
tp266
a(I-1
I0
I-2
I-1
I0
I-5
I-1
I0
tp267
a(I0
I0
I0
I-2
I0
I2
I0
I-2
tp268
a(I-1
I-1
I0
I-1
I-2
I0
I-1
I-1
tp269
a(I-1
I-2
I-1
I-2
I1
I0
I-1
I-2
tp270
a(I-1
I1
I1
I0
I0
I-1
I0
I-1
tp271
a(I-2
I-1
I0
I0
I-2
I-1
I0
I-2
tp272
a(I-2
I-1
I-1
I-2
I-2
I-1
I0
I0
tp273
a(I2
I-3
I-2
I0
I0
I-2
I-1
I0
tp274
a(I-1
I-1
I-2
I-2
I0
I-2
I-1
I-1
tp275
a(I0
I1
I-3
I0
I-4
I-1
I-1
I-1
tp276
a(I0
I0
I0
I-1
I-1
I0
I-1
I-2
tp277
a(I0
I0
I0
I0
I-1
I-2
I1
I-1
tp278
a(I0
I-1
I0
I-3
I-3
I-1
I-1
I1
tp279
a(I-1
I1
I0
I-2
I0
I0
I-1
I0
tp280
a(I0
I-1
I0
I1
I1
I-3
I-1
I0
tp281
a(I-1
I-1
I0
I0
I-1
I1
I0
I-2
tp282
a(I-1
I0
I-1
I1
I0
I3
I-1
I0
tp283
a(I-2
I0
I-1
I-3
I2
I0
I-1
I-1
tp284
a(I1
I0
I-1
I-1
I-2
I-2
I-1
I-1
tp285
a(I0
I-3
I-1
I-3
I3
I-1
I0
I1
tp286
a(I1
I0
I-1
I-2
I-4
I0
I-1
I0
tp287
a(I-1
I0
I-1
I0
I-1
I-1
I1
I0
tp288
a(I-1
I-1
I-2
I2
I0
I-2
I-1
I0
tp289
a(I-1
I-1
I-2
I0
I-2
I-1
I0
I-2
tp290
a(I-1
I-1
I-2
I-2
I-1
I-2
I0
I0
tp291
a(I-1
I-1
I1
I0
I-1
I0
I-1
I0
tp292
a(I-3
I-1
I-1
I-2
I1
I0
I-1
I0
tp293
a(I-1
I-1
I-2
I-2
I-2
I-3
I-3
I0
tp294
a(I0
I-1
I-1
I0
I-1
I0
I0
I1
tp295
a(I-1
I0
I-2
I-3
I1
I0
I-1
I0
tp296
a(I0
I1
I1
I-3
I-3
I0
I1
I-2
tp297
a(I-1
I-1
I-1
I-1
I-1
I-2
I-1
I0
tp298
a(I1
I-1
I-2
I2
I2
I-3
I0
I-2
tp299
a(I-1
I0
I-1
I-1
I-1
I-1
I-2
I-2
tp300
a(I-2
I-1
I0
I0
I0
I1
I-2
I-1
tp301
a(I0
I-2
I-1
I-1
I-3
I-1
I0
I-2
tp302
a(I-1
I-1
I0
I-1
I-3
I0
I-1
I-1
tp303
a(I-1
I0
I-1
I1
I0
I0
I-1
I-1
tp304
a(I-1
I-1
I-1
I-1
I-2
I-2
I-2
I0
tp305
a(I-1
I-1
I1
I0
I2
I-1
I0
I0
tp306
a(I-2
I-1
I-1
I0
I-1
I2
I-2
I-2
tp307
a(I0
I-1
I0
I-1
I0
I-1
I1
I0
tp308
a(I-1
I1
I-2
I-1
I-1
I-2
I-1
I0
tp309
a(I-2
I-1
I0
I-1
I-1
I-1
I0
I0
tp310
a(I2
I0
I2
I1
I0
I0
I-1
I0
tp311
a(I0
I-2
I-1
I0
I0
I-2
I-3
I-1
tp312
a(I-1
I-1
I-1
I-1
I-2
I-2
I-1
I-2
tp313
a(I-2
I-2
I-1
I-2
I-4
I-1
I-1
I-1
tp314
a(I-1
I-1
I-3
I0
I-1
I-2
I0
I0
tp315
a(I0
I-1
I-1
I1
I-2
I0
I0
I-2
tp316
a(I0
I0
I-1
I-1
I7
I0
I-1
I-2
tp317
a(I0
I-1
I-1
I-3
I-2
I-1
I-1
I0
tp318
a(I0
I0
I-1
I1
I-2
I-1
I-1
I-1
tp319
a(I0
I-2
I-1
I-1
I-2
I0
I-1
I0
tp320
a(I0
I0
I-2
I-1
I-1
I-1
I-2
I-2
tp321
a(I-1
I1
I0
I0
I-1
I-2
I-1
I0
tp322
a(I0
I0
I-1
I-2
I-1
I-2
I-2
I-1
tp323
a(I-1
I0
I-2
I-1
I0
I-1
I-1
I0
tp324
a(I-1
I-1
I1
I-1
I-4
I-1
I0
I0
tp325
a(I-1
I-1
I-2
I0
I1
I-1
I0
I0
tp326
a(I0
I-2
I-1
I-1
I-2
I0
I-1
I-1
tp327
a(I1
I0
I0
I-2
I-1
I-2
I-1
I-1
tp328
a(I-2
I0
I-2
I1
I0
I-2
I-1
I0
tp329
a(I-1
I-1
I-2
I-2
I1
I1
I-1
I0
tp330
a(I0
I-1
I0
I-1
I-1
I0
I1
I0
tp331
a(I-1
I-2
I-2
I-1
I-1
I-2
I-1
I-1
tp332
a(I0
I-1
I-2
I0
I1
I-2
I0
I-1
tp333
a(I-1
I-1
I-1
I-2
I-1
I1
I-2
I-1
tp334
a(I-2
I-2
I0
I-1
I-4
I0
I0
I-1
tp335
a(I-1
I-1
I-1
I0
I0
I-1
I0
I0
tp336
a(I-1
I0
I0
I-1
I-1
I-2
I-1
I-1
tp337
a(I0
I0
I0
I-2
I-5
I-2
I-1
I-1
tp338
a(I-2
I-2
I0
I-1
I-2
I-3
I-2
I-1
tp339
a(I0
I0
I0
I0
I2
I-1
I0
I-1
tp340
a(I-1
I0
I-1
I-1
I0
I0
I0
I0
tp341
a(I-1
I0
I-2
I0
I-1
I-3
I-1
I0
tp342
a(I-1
I-2
I-1
I0
I2
I-2
I1
I-2
tp343
a(I0
I0
I-3
I0
I-2
I-1
I-2
I-2
tp344
a(I-1
I-1
I1
I-1
I-1
I0
I0
I0
tp345
a(I0
I-1
I-1
I-2
I-1
I-1
I-1
I-1
tp346
a(I0
I0
I-1
I0
I-1
I-2
I-1
I-2
tp347
a(I0
I-1
I0
I0
I-1
I-1
I1
I0
tp348
a(I-1
I-2
I-1
I-1
I-3
I-1
I0
I0
tp349
a(I0
I-1
I-1
I-1
I0
I-2
I0
I-2
tp350
a(I0
I0
I-1
I-1
I-2
I-2
I-2
I-1
tp351
a(I-1
I-1
I-1
I1
I-1
I-3
I-1
I-2
tp352
a(I-1
I-1
I0
I1
I0
I-2
I-1
I0
tp353
a(I-1
I0
I-2
I1
I0
I0
I0
I-1
tp354
as.