(dp0
S'rest'
p1
(lp2
(I-1
I-1
I5
I-11
I-7
I6
I2
I0
tp3
a(I0
I0
I0
I-2
I-2
I-11
I-2
I-1
tp4
a(I-1
I0
I-5
I6
I4
I-4
I-4
I-1
tp5
a(I-1
I-1
I-2
I0
I1
I0
I0
I-1
tp6
a(I-2
I-1
I1
I-7
I-4
I5
I0
I0
tp7
a(I-1
I-1
I0
I-4
I-3
I0
I1
I-1
tp8
a(I0
I-1
I-3
I6
I2
I-6
I-1
I0
tp9
a(I-2
I-1
I-2
I-1
I1
I-2
I-2
I-1
tp10
a(I0
I-2
I2
I-7
I-4
I-2
I-1
I1
tp11
a(I-2
I1
I0
I-4
I-3
I4
I0
I-1
tp12
a(I0
I-1
I-5
I3
I1
I-4
I0
I-2
tp13
a(I0
I0
I1
I4
I1
I0
I-1
I-2
tp14
a(I0
I0
I2
I-5
I-2
I1
I-1
I-2
tp15
a(I-1
I-3
I0
I-2
I1
I2
I0
I0
tp16
a(I-1
I-1
I-3
I2
I1
I-2
I1
I-1
tp17
a(I-3
I-1
I-2
I-1
I-5
I-19
I-3
I-2
tp18
a(I-1
I1
I0
I-6
I-2
I1
I-1
I-1
tp19
a(I1
I-1
I-1
I0
I0
I-2
I0
I-1
tp20
a(I-2
I-1
I-3
I6
I3
I0
I0
I-1
tp21
a(I-1
I-1
I0
I0
I-1
I0
I0
I0
tp22
a(I-1
I-1
I2
I-2
I-1
I6
I0
I1
tp23
a(I-3
I-3
I-3
I-1
I0
I7
I2
I-1
tp24
a(I-1
I-3
I-1
I2
I-2
I-5
I-3
I-3
tp25
a(I-1
I0
I-1
I-1
I-1
I3
I0
I0
tp26
a(I-2
I0
I-2
I0
I1
I3
I-4
I-1
tp27
a(I0
I-1
I-3
I1
I1
I1
I-2
I0
tp28
a(I-1
I-1
I0
I-3
I-2
I3
I2
I-1
tp29
a(I-1
I0
I0
I-1
I0
I-1
I-2
I-1
tp30
a(I0
I-1
I0
I1
I0
I-5
I-3
I1
tp31
a(I-2
I-1
I-1
I-3
I0
I2
I-1
I-2
tp32
a(I0
I-2
I1
I-5
I-1
I-1
I0
I-1
tp33
a(I0
I1
I0
I2
I1
I-1
I-1
I-3
tp34
a(I-3
I0
I-2
I1
I1
I-1
I-2
I-1
tp35
a(I1
I0
I1
I-2
I-1
I0
I-2
I-3
tp36
a(I0
I-1
I-2
I-1
I-1
I0
I0
I0
tp37
a(I-1
I-2
I-1
I0
I-1
I-1
I-2
I0
tp38
a(I-1
I0
I0
I-2
I-2
I-3
I-3
I0
tp39
a(I1
I-1
I0
I0
I0
I-7
I-3
I0
tp40
a(I0
I-1
I-2
I1
I-1
I-2
I-1
I0
tp41
a(I-2
I-3
I0
I-3
I-1
I1
I-2
I0
tp42
a(I-1
I1
I0
I0
I-1
I0
I-2
I-2
tp43
a(I-1
I0
I-2
I1
I-1
I1
I0
I-1
tp44
a(I-1
I-1
I0
I1
I2
I0
I0
I-3
tp45
a(I0
I-1
I-1
I-2
I2
I13
I-1
I-1
tp46
a(I-1
I-2
I-2
I-1
I-1
I0
I-1
I1
tp47
a(I0
I0
I0
I2
I0
I-3
I-4
I-1
tp48
a(I-1
I-1
I0
I-1
I-1
I4
I-1
I0
tp49
a(I1
I-1
I-1
I-2
I-3
I-3
I-2
I0
tp50
a(I0
I-1
I-2
I-2
I-2
I-5
I0
I-1
tp51
a(I0
I0
I1
I1
I-1
I-2
I-2
I0
tp52
a(I0
I-1
I-1
I-2
I-2
I0
I-1
I-1
tp53
a(I-2
I-1
I-1
I0
I-1
I-3
I-1
I0
tp54
a(I-1
I0
I-3
I-2
I1
I1
I0
I-1
tp55
a(I-2
I-1
I-1
I-2
I-2
I-2
I2
I0
tp56
a(I0
I2
I-1
I2
I0
I1
I-1
I-2
tp57
a(I-1
I-3
I-1
I0
I1
I-4
I-3
I0
tp58
a(I0
I0
I0
I-1
I0
I-2
I-2
I-1
tp59
a(I-1
I-2
I-1
I-1
I-2
I0
I-1
I-1
tp60
a(I-1
I-2
I0
I-1
I-1
I-2
I-1
I-1
tp61
a(I-1
I-1
I-2
I-1
I-2
I0
I0
I-1
tp62
a(I0
I-4
I-2
I0
I1
I1
I-1
I-1
tp63
a(I0
I-1
I0
I-1
I-1
I0
I0
I0
tp64
a(I0
I-2
I-3
I-3
I-3
I0
I-1
I-1
tp65
a(I-1
I1
I-1
I-3
I2
I0
I1
I-1
tp66
a(I-2
I-1
I-2
I1
I-2
I1
I0
I-1
tp67
a(I0
I0
I-1
I0
I2
I2
I-2
I-1
tp68
a(I0
I2
I0
I1
I3
I14
I-3
I0
tp69
a(I-1
I-2
I0
I-1
I-2
I1
I-1
I0
tp70
a(I-1
I-1
I-2
I-3
I-2
I1
I-1
I-1
tp71
a(I-2
I-1
I-3
I-1
I0
I2
I1
I-1
tp72
a(I-1
I-2
I0
I0
I-2
I-4
I3
I0
tp73
a(I1
I-2
I-2
I-2
I0
I-3
I-3
I-1
tp74
a(I1
I0
I-1
I-2
I-2
I-2
I1
I-2
tp75
a(I-1
I-1
I-1
I-1
I-2
I-1
I0
I-2
tp76
a(I0
I-1
I1
I-1
I-2
I-4
I-1
I1
tp77
a(I-1
I-1
I-3
I-1
I0
I-1
I1
I-1
tp78
a(I-1
I-2
I0
I-1
I0
I-3
I-3
I-1
tp79
a(I-1
I-1
I2
I-3
I-1
I2
I-1
I-1
tp80
a(I-1
I-1
I0
I3
I-1
I-1
I-3
I-2
tp81
a(I-1
I-2
I-1
I0
I0
I0
I0
I0
tp82
a(I-1
I1
I-1
I-1
I-4
I-3
I-1
I-2
tp83
a(I-1
I1
I-1
I0
I-1
I-1
I0
I-1
tp84
a(I-1
I1
I0
I0
I1
I0
I1
I-2
tp85
a(I-1
I0
I1
I-1
I0
I3
I-1
I1
tp86
a(I0
I-2
I-2
I0
I0
I-1
I1
I0
tp87
a(I-3
I0
I0
I2
I1
I-1
I-2
I-1
tp88
a(I-1
I-1
I-1
I-2
I-3
I-10
I0
I-1
tp89
a(I-1
I-1
I-1
I-1
I-1
I0
I0
I-1
tp90
a(I-1
I-1
I-2
I-1
I-3
I-1
I-2
I0
tp91
a(I-1
I0
I-2
I0
I-1
I-2
I1
I-1
tp92
a(I-2
I-1
I0
I-1
I-2
I2
I0
I0
tp93
a(I-2
I0
I1
I0
I1
I18
I1
I-1
tp94
a(I-1
I0
I-1
I-1
I-2
I-3
I-1
I0
tp95
a(I0
I-1
I-2
I0
I0
I-1
I-2
I-1
tp96
a(I-2
I-1
I-2
I-1
I1
I6
I2
I-2
tp97
a(I-1
I-2
I0
I-2
I-1
I-6
I-2
I-2
tp98
a(I-1
I-1
I-1
I-1
I0
I-4
I-1
I-1
tp99
a(I0
I-2
I0
I-1
I-2
I-3
I-1
I1
tp100
a(I0
I-1
I0
I-3
I1
I-2
I-1
I0
tp101
a(I-1
I0
I-1
I-1
I-2
I-5
I-2
I1
tp102
a(I-1
I-1
I-1
I-1
I-1
I-5
I-3
I-1
tp103
a(I-1
I1
I0
I1
I-2
I-4
I-1
I0
tp104
a(I-1
I0
I-3
I-1
I-1
I3
I-2
I0
tp105
a(I-1
I-2
I-2
I-1
I-1
I2
I1
I-1
tp106
a(I-2
I-3
I0
I-3
I0
I2
I-2
I0
tp107
a(I-1
I-2
I0
I1
I-1
I-2
I-1
I1
tp108
a(I1
I1
I0
I0
I-1
I-3
I-2
I-2
tp109
a(I-2
I0
I-1
I1
I-1
I-3
I0
I-1
tp110
a(I-3
I-1
I-2
I-1
I0
I1
I0
I-2
tp111
a(I-1
I0
I-1
I0
I0
I-1
I-1
I-2
tp112
a(I-2
I2
I-2
I-2
I0
I0
I-1
I-1
tp113
a(I0
I-1
I-1
I-2
I-1
I-1
I-1
I-1
tp114
a(I-1
I1
I-1
I0
I-1
I0
I-2
I-1
tp115
a(I0
I-2
I0
I0
I-2
I-3
I0
I-1
tp116
a(I1
I-1
I-1
I-2
I-2
I0
I0
I0
tp117
a(I-1
I-1
I-1
I-2
I-2
I-3
I0
I-1
tp118
a(I-1
I-1
I-2
I-1
I-1
I-2
I2
I-1
tp119
a(I-2
I-1
I1
I0
I0
I-2
I-3
I1
tp120
a(I-1
I-1
I0
I0
I1
I-1
I-1
I-1
tp121
a(I0
I-1
I-3
I-1
I1
I0
I0
I1
tp122
a(I-2
I-1
I0
I-1
I-1
I2
I1
I-1
tp123
a(I1
I-1
I-2
I0
I-2
I5
I0
I1
tp124
a(I-1
I-1
I2
I0
I0
I-2
I-2
I0
tp125
a(I1
I-2
I-1
I0
I1
I-4
I-3
I-3
tp126
a(I-2
I0
I-1
I-2
I-1
I-1
I0
I-1
tp127
a(I-1
I0
I0
I-4
I-1
I-6
I-1
I-1
tp128
a(I-1
I-2
I0
I0
I0
I1
I2
I1
tp129
a(I1
I-1
I-1
I0
I0
I4
I-1
I-2
tp130
a(I-1
I0
I-2
I1
I-2
I0
I-1
I-1
tp131
a(I0
I0
I-1
I-2
I0
I-3
I-2
I-1
tp132
a(I1
I0
I-1
I-1
I-2
I-3
I-1
I0
tp133
a(I-3
I-1
I-1
I0
I0
I1
I-1
I-1
tp134
a(I-1
I-1
I-1
I-2
I1
I1
I-2
I-2
tp135
a(I-2
I0
I-3
I0
I0
I-4
I-1
I1
tp136
a(I-2
I-2
I-2
I0
I-1
I0
I0
I-1
tp137
a(I-2
I-1
I0
I-1
I-2
I-2
I-2
I-2
tp138
a(I0
I-2
I-1
I-2
I-1
I0
I1
I0
tp139
a(I1
I-1
I-1
I-1
I0
I0
I0
I-2
tp140
a(I-1
I-1
I1
I-1
I-3
I-2
I3
I-1
tp141
a(I0
I1
I-2
I-1
I-2
I-1
I-2
I1
tp142
a(I-2
I-2
I-3
I0
I2
I1
I1
I-1
tp143
a(I-2
I-1
I0
I0
I-2
I-2
I1
I0
tp144
a(I1
I0
I-2
I-1
I-1
I0
I-4
I-1
tp145
a(I-1
I-1
I1
I-3
I0
I4
I0
I-1
tp146
a(I0
I1
I0
I-1
I-3
I-23
I-6
I0
tp147
a(I-2
I0
I0
I-1
I-2
I-2
I-4
I-1
tp148
a(I0
I0
I-1
I0
I-3
I-3
I-2
I-1
tp149
a(I-1
I-2
I-2
I1
I1
I3
I-1
I0
tp150
a(I0
I-2
I0
I1
I0
I-2
I-1
I-1
tp151
a(I-1
I-3
I0
I-1
I1
I5
I0
I-2
tp152
a(I-1
I-2
I0
I-1
I-1
I-2
I0
I-1
tp153
a(I0
I-1
I-1
I0
I-2
I-7
I-2
I-1
tp154
a(I1
I-1
I-1
I-1
I1
I3
I-1
I-1
tp155
a(I0
I-1
I-1
I-1
I-1
I-4
I-2
I0
tp156
a(I-2
I0
I-1
I-1
I-1
I1
I-1
I0
tp157
a(I-1
I-1
I-1
I-1
I1
I0
I-3
I0
tp158
a(I1
I-1
I-2
I2
I-1
I-3
I-2
I-2
tp159
a(I-2
I-1
I-1
I0
I-1
I1
I0
I-1
tp160
a(I-2
I-1
I0
I-3
I-2
I1
I1
I1
tp161
a(I-2
I1
I0
I-3
I-2
I-5
I-1
I-1
tp162
a(I-2
I0
I1
I-1
I-2
I1
I1
I-1
tp163
a(I0
I-2
I-2
I-1
I-1
I-1
I-1
I-1
tp164
a(I-1
I-1
I-1
I-2
I2
I1
I0
I-1
tp165
a(I-2
I-2
I0
I0
I-2
I1
I1
I0
tp166
a(I0
I0
I-1
I1
I2
I0
I0
I0
tp167
a(I-2
I-2
I-1
I-1
I-1
I-1
I0
I-1
tp168
a(I0
I-2
I-2
I-1
I-2
I1
I2
I0
tp169
a(I-1
I-1
I-1
I-3
I-1
I-6
I-2
I0
tp170
a(I0
I-1
I1
I-1
I-2
I0
I-2
I-1
tp171
a(I0
I-1
I-2
I-1
I-1
I1
I-1
I-1
tp172
a(I-1
I0
I-1
I-1
I1
I7
I-1
I-1
tp173
a(I0
I-2
I-1
I1
I0
I-2
I-1
I-1
tp174
a(I0
I0
I-1
I-1
I-1
I1
I-2
I-1
tp175
a(I0
I0
I-1
I-1
I-2
I0
I-1
I-1
tp176
a(I1
I-1
I-1
I0
I-1
I-3
I-1
I0
tp177
a(I0
I-2
I-1
I0
I-2
I-1
I0
I1
tp178
a(I-2
I-1
I-1
I0
I-2
I-19
I-4
I0
tp179
a(I-2
I-2
I-2
I0
I2
I5
I-1
I1
tp180
a(I-1
I-1
I-3
I-2
I-2
I-4
I-2
I-1
tp181
a(I-2
I1
I1
I-2
I-1
I-2
I-1
I-1
tp182
a(I0
I-1
I0
I1
I0
I-4
I-1
I0
tp183
a(I1
I0
I-1
I0
I0
I1
I2
I0
tp184
a(I-27
I-46
I64
I-72
I-84
I68
I0
I-21
tp185
a(I-3
I5
I-31
I105
I59
I-37
I-7
I-5
tp186
a(I-3
I4
I-20
I62
I34
I-18
I-8
I-2
tp187
a(I6
I15
I-9
I29
I23
I-10
I3
I8
tp188
a(I8
I12
I-6
I-15
I6
I5
I2
I9
tp189
a(I-2
I-4
I16
I-59
I-29
I22
I2
I0
tp190
a(I-6
I-10
I0
I-32
I-19
I2
I-4
I-7
tp191
a(I-7
I-8
I-5
I-18
I-11
I1
I-7
I-7
tp192
a(I5
I6
I-8
I1
I10
I-11
I0
I2
tp193
a(I-1
I-5
I8
I-25
I-17
I15
I4
I-2
tp194
a(I3
I5
I-7
I11
I9
I-9
I3
I4
tp195
a(I-3
I-6
I0
I-5
I-6
I1
I-1
I-3
tp196
a(I4
I6
I-8
I17
I14
I-4
I-1
I2
tp197
a(I4
I5
I6
I-8
I-3
I3
I4
I5
tp198
a(I-4
I-3
I1
I-9
I-8
I4
I1
I-1
tp199
a(I-3
I-3
I0
I7
I3
I-4
I-4
I-3
tp200
a(I-1
I2
I-12
I10
I10
I-16
I-5
I-1
tp201
a(I-2
I-4
I0
I-13
I-8
I4
I-1
I-2
tp202
a(I-1
I-2
I2
I-2
I0
I1
I-1
I-3
tp203
a(I-1
I-1
I-2
I7
I-2
I-24
I-5
I-3
tp204
a(I4
I6
I-9
I16
I16
I-8
I1
I3
tp205
a(I-1
I-1
I2
I-11
I-6
I2
I-2
I1
tp206
a(I-1
I-2
I-1
I1
I-1
I-3
I1
I0
tp207
a(I1
I0
I-4
I5
I5
I-4
I2
I0
tp208
a(I-2
I-2
I-4
I-1
I-3
I0
I-2
I-2
tp209
a(I-2
I-2
I-2
I1
I2
I5
I-2
I-2
tp210
a(I1
I1
I-2
I3
I4
I-4
I0
I0
tp211
a(I-1
I0
I1
I-3
I-1
I7
I-1
I0
tp212
a(I1
I1
I-1
I4
I3
I-4
I-2
I1
tp213
a(I0
I0
I0
I-2
I-1
I4
I1
I-1
tp214
a(I-1
I-1
I-4
I4
I3
I-12
I-3
I0
tp215
a(I0
I0
I0
I0
I-2
I-5
I-1
I-2
tp216
a(I-1
I-1
I-1
I-3
I-2
I1
I-1
I-3
tp217
a(I-1
I-1
I0
I1
I-2
I4
I0
I0
tp218
a(I-1
I1
I-3
I1
I1
I-2
I-3
I0
tp219
a(I-1
I-2
I-1
I-5
I-4
I-2
I-1
I-2
tp220
a(I0
I1
I-5
I2
I2
I-2
I0
I-1
tp221
a(I-2
I-2
I0
I-2
I-3
I-4
I-2
I-3
tp222
a(I-1
I-1
I0
I1
I0
I0
I0
I-2
tp223
a(I-1
I-1
I-2
I0
I1
I-1
I-1
I0
tp224
a(I-1
I-1
I-1
I-1
I-2
I-2
I-3
I-1
tp225
a(I-1
I0
I0
I-1
I-2
I-1
I-1
I0
tp226
a(I-1
I-1
I-2
I-1
I-2
I-1
I0
I-1
tp227
a(I-1
I-3
I0
I-4
I-1
I7
I0
I-1
tp228
a(I-1
I1
I-1
I-1
I1
I1
I3
I2
tp229
a(I-3
I-1
I-2
I-3
I-1
I0
I-1
I0
tp230
a(I1
I0
I-2
I0
I2
I-4
I-1
I-1
tp231
a(I0
I0
I-1
I-1
I0
I1
I0
I-1
tp232
a(I-1
I-1
I0
I-1
I-1
I3
I-3
I-2
tp233
a(I-1
I-2
I0
I0
I-3
I0
I-1
I-2
tp234
a(I0
I1
I-1
I-1
I0
I2
I0
I-2
tp235
a(I-2
I0
I0
I-1
I0
I-2
I-1
I-2
tp236
a(I0
I-3
I-1
I-3
I-1
I-3
I0
I1
tp237
a(I-1
I-1
I0
I-3
I-1
I-6
I-3
I-1
tp238
a(I0
I1
I-2
I-3
I1
I4
I-1
I0
tp239
a(I-1
I0
I-1
I0
I1
I1
I1
I1
tp240
a(I-1
I-1
I1
I0
I0
I4
I-1
I-1
tp241
a(I-1
I0
I-1
I1
I0
I-1
I0
I1
tp242
a(I0
I-1
I-1
I-3
I0
I3
I-1
I2
tp243
a(I0
I-2
I-1
I0
I-1
I0
I-1
I-1
tp244
a(I-1
I-1
I-1
I1
I0
I4
I2
I1
tp245
a(I-1
I0
I-1
I0
I0
I-3
I-3
I-2
tp246
a(I-1
I1
I0
I0
I-2
I-1
I-1
I0
tp247
a(I-1
I0
I-1
I-2
I-1
I1
I1
I0
tp248
a(I0
I-1
I-2
I-2
I1
I4
I-5
I-3
tp249
a(I0
I-1
I-2
I-2
I-1
I2
I1
I1
tp250
a(I1
I1
I-2
I-1
I-2
I-1
I-1
I-2
tp251
a(I-1
I-3
I-1
I-1
I-1
I0
I-2
I0
tp252
a(I0
I-3
I1
I-1
I0
I0
I1
I-1
tp253
a(I-1
I-1
I0
I0
I0
I-2
I0
I0
tp254
a(I-1
I-2
I0
I1
I1
I1
I0
I-1
tp255
a(I1
I2
I-1
I0
I0
I-2
I-3
I-2
tp256
a(I-2
I0
I-2
I-2
I-3
I-2
I2
I0
tp257
a(I-2
I0
I-1
I-1
I-1
I-1
I-1
I0
tp258
a(I0
I0
I0
I0
I0
I-2
I0
I-2
tp259
a(I-2
I1
I-2
I0
I2
I-2
I-3
I0
tp260
a(I0
I-2
I-1
I-2
I4
I16
I0
I1
tp261
a(I2
I0
I-1
I1
I0
I-1
I-4
I-1
tp262
a(I-1
I0
I-1
I0
I-1
I-5
I-5
I-1
tp263
a(I-1
I-1
I-1
I0
I-2
I2
I1
I-1
tp264
a(I0
I-2
I0
I2
I-2
I-6
I-2
I-2
tp265
a(I-2
I0
I-1
I-3
I-1
I-2
I-2
I-1
tp266
a(I1
I0
I-1
I0
I-2
I1
I2
I-1
tp267
a(I-1
I-1
I-1
I1
I-1
I-4
I-2
I-1
tp268
a(I-2
I-1
I0
I-2
I-1
I-2
I-1
I0
tp269
a(I-1
I-1
I-1
I-1
I0
I-2
I1
I0
tp270
a(I1
I-1
I0
I-1
I-2
I-3
I-1
I-1
tp271
a(I-2
I-2
I0
I-2
I-3
I3
I0
I0
tp272
a(I-2
I-1
I-2
I0
I-2
I-8
I0
I-1
tp273
a(I1
I0
I-2
I0
I1
I2
I-1
I0
tp274
a(I-1
I0
I-2
I0
I-1
I-3
I-5
I0
tp275
a(I-1
I-1
I-1
I-1
I-2
I-2
I0
I-1
tp276
a(I-2
I0
I-1
I-2
I-1
I-9
I0
I-2
tp277
a(I0
I-2
I-1
I-1
I0
I0
I1
I-1
tp278
a(I-2
I-1
I-2
I-2
I0
I-3
I0
I-1
tp279
a(I-1
I-2
I0
I0
I0
I-1
I-1
I0
tp280
a(I-2
I0
I0
I-3
I0
I-1
I0
I-1
tp281
a(I-1
I-1
I0
I1
I0
I0
I0
I-1
tp282
a(I-1
I-3
I-1
I1
I0
I5
I3
I0
tp283
a(I-1
I-2
I-2
I0
I-1
I-2
I-2
I0
tp284
a(I0
I-1
I-2
I-1
I-1
I-1
I-1
I-2
tp285
a(I-3
I-1
I0
I-2
I-3
I0
I-1
I1
tp286
a(I-1
I-1
I-2
I-1
I0
I2
I0
I-1
tp287
a(I0
I-1
I-2
I1
I-1
I-2
I0
I-1
tp288
a(I-1
I-1
I-1
I1
I5
I25
I2
I0
tp289
a(I1
I-1
I-2
I-3
I-1
I0
I-1
I-2
tp290
a(I-3
I-1
I0
I-1
I0
I2
I-1
I-2
tp291
a(I-1
I-1
I-1
I-1
I0
I2
I-1
I-2
tp292
a(I-1
I-1
I-2
I-2
I-2
I-1
I0
I0
tp293
a(I0
I-1
I-2
I2
I1
I-3
I-3
I-1
tp294
a(I-1
I-1
I-2
I-1
I-1
I-6
I-3
I-2
tp295
a(I-1
I0
I-1
I-2
I-1
I-9
I-2
I0
tp296
a(I0
I-1
I-1
I-1
I-3
I-2
I0
I-1
tp297
a(I-1
I-2
I-2
I1
I0
I1
I0
I0
tp298
a(I-1
I-2
I-2
I-2
I-1
I-3
I0
I-1
tp299
a(I0
I-1
I-1
I-2
I0
I3
I3
I0
tp300
a(I1
I-1
I0
I-1
I1
I3
I1
I-1
tp301
a(I-1
I-1
I-1
I2
I0
I-4
I-1
I-1
tp302
a(I-1
I-1
I-1
I-2
I0
I-3
I-1
I-1
tp303
a(I-1
I-2
I-1
I-1
I-1
I-1
I-1
I-1
tp304
a(I-1
I0
I-2
I-1
I-1
I-5
I0
I1
tp305
a(I-1
I-1
I1
I2
I1
I0
I-2
I-1
tp306
a(I-2
I-2
I-3
I-1
I-2
I0
I-1
I0
tp307
a(I-1
I-1
I0
I1
I0
I1
I-1
I0
tp308
a(I0
I0
I0
I-2
I-2
I-2
I-1
I1
tp309
a(I0
I-3
I-2
I-4
I-5
I-20
I2
I-2
tp310
a(I-1
I-2
I-1
I-2
I1
I9
I1
I0
tp311
a(I0
I-2
I-1
I-1
I-2
I-6
I-1
I0
tp312
a(I0
I0
I0
I0
I1
I-2
I-1
I-2
tp313
a(I-3
I0
I-3
I-2
I-1
I4
I0
I0
tp314
a(I0
I-3
I0
I-1
I-1
I-2
I-1
I0
tp315
a(I0
I0
I-1
I0
I-2
I-1
I-2
I-1
tp316
a(I1
I-1
I1
I0
I-1
I-1
I-1
I-1
tp317
a(I-1
I-2
I-2
I-2
I1
I4
I0
I0
tp318
a(I-1
I-1
I1
I0
I0
I1
I-1
I-1
tp319
a(I0
I2
I1
I0
I-1
I2
I-1
I0
tp320
a(I0
I-1
I0
I-1
I-2
I-3
I-1
I-1
tp321
a(I0
I-1
I-1
I-1
I-1
I-4
I-1
I-2
tp322
a(I-2
I-1
I0
I-1
I-3
I-5
I-2
I0
tp323
a(I1
I0
I0
I0
I1
I2
I-1
I0
tp324
a(I-1
I1
I-1
I0
I0
I-5
I-3
I0
tp325
a(I-1
I0
I-2
I0
I0
I-1
I1
I0
tp326
a(I0
I-1
I0
I1
I0
I-3
I-2
I-2
tp327
a(I-2
I-2
I0
I-2
I0
I4
I0
I-1
tp328
a(I0
I-1
I0
I0
I0
I-2
I-2
I0
tp329
a(I0
I-1
I0
I-1
I-3
I-4
I-1
I-1
tp330
a(I0
I0
I0
I-3
I1
I0
I1
I0
tp331
a(I-1
I0
I1
I0
I0
I-1
I-1
I0
tp332
a(I-1
I-1
I-1
I0
I-1
I-1
I-2
I-1
tp333
a(I-1
I-1
I-1
I-3
I-1
I2
I-2
I-1
tp334
a(I-2
I-2
I1
I-1
I-3
I-3
I-1
I-1
tp335
a(I-1
I-1
I-3
I1
I-4
I-24
I-4
I-2
tp336
a(I-1
I-2
I-2
I-1
I-4
I0
I1
I-2
tp337
a(I-1
I-2
I-2
I-1
I0
I1
I-1
I-2
tp338
a(I-1
I0
I-1
I-1
I-1
I-1
I-1
I-1
tp339
a(I-1
I1
I-1
I1
I-2
I-5
I-2
I-2
tp340
a(I0
I-1
I0
I-2
I0
I-1
I-1
I0
tp341
a(I-1
I-4
I-1
I-2
I-1
I5
I0
I-1
tp342
a(I0
I0
I-1
I0
I0
I1
I-1
I0
tp343
a(I0
I0
I-1
I-1
I0
I4
I0
I-1
tp344
a(I0
I0
I-1
I-1
I0
I1
I-2
I-2
tp345
a(I-1
I1
I-1
I-1
I-1
I5
I-1
I0
tp346
a(I-2
I-1
I-1
I-2
I0
I0
I0
I-1
tp347
a(I-2
I-1
I0
I-2
I-2
I4
I1
I-1
tp348
a(I-2
I-2
I-1
I0
I-2
I0
I-2
I-1
tp349
a(I-1
I-1
I-2
I1
I1
I2
I1
I-1
tp350
a(I0
I0
I0
I0
I-1
I-3
I-1
I0
tp351
a(I-1
I-2
I0
I1
I-2
I-2
I0
I-1
tp352
a(I0
I-2
I-1
I-1
I1
I7
I3
I-1
tp353
a(I1
I1
I-2
I-3
I-1
I-2
I-2
I0
tp354
a(I0
I0
I0
I-1
I-1
I-1
I2
I-2
tp355
a(I0
I0
I-1
I1
I2
I6
I-4
I-1
tp356
a(I-1
I-2
I0
I0
I-1
I-1
I0
I-1
tp357
a(I0
I0
I0
I-1
I-1
I0
I1
I-1
tp358
a(I-1
I-3
I-4
I0
I-1
I0
I-1
I1
tp359
a(I-2
I0
I-3
I0
I0
I-3
I-1
I0
tp360
a(I0
I1
I0
I1
I-1
I-5
I-4
I-2
tp361
a(I0
I-1
I-1
I-3
I0
I4
I-1
I1
tp362
a(I0
I1
I-1
I-1
I-2
I-1
I-1
I0
tp363
a(I-1
I-1
I0
I1
I0
I-2
I-2
I-1
tp364
a(I-1
I-2
I-1
I-3
I-5
I-23
I-2
I0
tp365
a(I-1
I-1
I-1
I1
I-2
I-1
I1
I-2
tp366
a(I-22
I-43
I73
I-70
I-73
I64
I6
I-17
tp367
a(I-3
I5
I-33
I105
I63
I-40
I-7
I-5
tp368
a(I-2
I3
I-12
I43
I25
I-9
I-5
I0
tp369
a(I6
I14
I-4
I11
I15
I-3
I4
I10
tp370
a(I6
I12
I-13
I-3
I7
I-4
I0
I8
tp371
a(I-1
I-4
I11
I-42
I-21
I15
I0
I-2
tp372
a(I-7
I-8
I3
I-32
I-19
I3
I-3
I-7
tp373
a(I-8
I-10
I2
I-32
I-16
I11
I0
I-4
tp374
a(I3
I6
I-13
I6
I11
I-11
I1
I2
tp375
a(I-3
I-4
I3
I-12
I-10
I4
I0
I-2
tp376
a(I3
I5
I-6
I7
I8
I-13
I-1
I0
tp377
a(I-2
I-6
I7
I-14
I-13
I7
I2
I-3
tp378
a(I1
I5
I-14
I20
I15
I-16
I0
I1
tp379
a(I4
I3
I-1
I3
I3
I2
I2
I3
tp380
a(I-1
I-5
I6
I-13
I-12
I8
I0
I-1
tp381
a(I-1
I-3
I3
I-2
I-3
I-1
I-2
I-2
tp382
a(I0
I2
I-13
I18
I12
I-18
I-5
I-1
tp383
a(I-4
I-3
I-3
I-5
I-6
I-5
I-3
I-2
tp384
a(I-1
I-3
I3
I-9
I-5
I5
I0
I-1
tp385
a(I-1
I-2
I0
I1
I-2
I-2
I-2
I-2
tp386
a(I0
I6
I-13
I22
I15
I-16
I-3
I1
tp387
a(I-1
I-2
I0
I-7
I-5
I2
I-2
I0
tp388
a(I0
I-2
I3
I-2
I-4
I1
I1
I1
tp389
a(I0
I1
I0
I6
I4
I1
I0
I1
tp390
a(I-1
I-1
I-1
I0
I-3
I0
I1
I-1
tp391
a(I-2
I-1
I-2
I-3
I-4
I-4
I-1
I-2
tp392
a(I1
I1
I-2
I4
I4
I0
I-1
I-2
tp393
a(I-1
I-1
I0
I-3
I-2
I-2
I-1
I0
tp394
a(I-1
I1
I-2
I2
I5
I-1
I0
I0
tp395
a(I0
I-2
I0
I-2
I-1
I0
I-2
I-2
tp396
a(I0
I-1
I-5
I5
I1
I-26
I-2
I-1
tp397
a(I1
I0
I-1
I-1
I2
I2
I1
I0
tp398
a(I-1
I-2
I1
I-4
I-3
I-2
I-3
I-2
tp399
a(I0
I-2
I-1
I-1
I-1
I2
I2
I-1
tp400
a(I0
I-1
I-5
I3
I4
I-1
I-3
I-1
tp401
a(I0
I-2
I0
I-2
I-2
I-3
I-2
I-2
tp402
a(I0
I0
I-4
I5
I4
I-2
I-1
I-1
tp403
a(I-1
I-1
I0
I-1
I-2
I-1
I-2
I-1
tp404
a(I-1
I0
I-2
I-3
I0
I3
I1
I-2
tp405
a(I0
I0
I-1
I1
I0
I1
I-1
I-2
tp406
a(I0
I1
I0
I3
I-1
I2
I-2
I0
tp407
a(I0
I-1
I-1
I-2
I-1
I1
I-1
I-1
tp408
a(I-2
I-1
I-2
I-2
I-2
I-12
I-2
I-2
tp409
a(I-2
I0
I-1
I-2
I-1
I-3
I-2
I-3
tp410
a(I0
I1
I-2
I0
I2
I2
I2
I0
tp411
a(I1
I0
I-1
I-1
I-1
I1
I0
I-1
tp412
a(I-1
I-1
I0
I0
I-1
I-4
I-3
I-1
tp413
a(I0
I-1
I1
I0
I-1
I-2
I-1
I-1
tp414
a(I0
I1
I0
I-4
I0
I3
I0
I-1
tp415
a(I0
I1
I0
I-1
I-2
I-3
I-1
I0
tp416
a(I-1
I0
I-1
I1
I0
I-13
I-4
I-1
tp417
a(I-2
I-2
I-2
I-1
I-1
I-3
I-3
I-2
tp418
a(I-1
I-1
I-1
I0
I-3
I3
I1
I-2
tp419
a(I-1
I-2
I-2
I-1
I0
I3
I0
I-1
tp420
a(I0
I0
I0
I3
I1
I1
I0
I0
tp421
a(I0
I0
I1
I-2
I0
I2
I1
I0
tp422
a(I0
I-1
I0
I-2
I-2
I3
I1
I-1
tp423
a(I-2
I-1
I-2
I-1
I0
I-7
I-1
I0
tp424
a(I0
I-1
I-2
I0
I0
I-3
I-4
I1
tp425
a(I-1
I-2
I-1
I-1
I-1
I-1
I0
I-1
tp426
a(I-1
I-2
I-1
I-1
I2
I-2
I-3
I-1
tp427
a(I-1
I0
I0
I-2
I-3
I-2
I1
I-1
tp428
a(I0
I-1
I0
I-3
I0
I1
I0
I1
tp429
a(I-2
I0
I-2
I1
I-2
I0
I0
I-2
tp430
a(I-3
I-1
I-2
I0
I-1
I5
I-1
I0
tp431
a(I-2
I-1
I0
I-2
I-1
I-5
I-2
I-1
tp432
a(I-2
I-2
I0
I-1
I-1
I-3
I-1
I-1
tp433
a(I-1
I0
I-2
I-1
I2
I-1
I-3
I-1
tp434
a(I-1
I0
I-1
I-2
I0
I2
I1
I-2
tp435
a(I-1
I0
I0
I-2
I0
I0
I2
I-2
tp436
a(I-2
I-2
I0
I1
I-2
I0
I-1
I-1
tp437
a(I-1
I0
I0
I0
I1
I-1
I-2
I-1
tp438
a(I0
I-1
I-1
I0
I-2
I-15
I-3
I0
tp439
a(I0
I0
I0
I0
I-1
I4
I1
I-1
tp440
a(I-2
I0
I0
I2
I-1
I1
I-3
I-1
tp441
a(I-2
I-1
I-1
I-2
I1
I-6
I-6
I-2
tp442
a(I-1
I-3
I-1
I-2
I0
I0
I0
I-1
tp443
a(I0
I-1
I-2
I1
I-1
I-3
I0
I-1
tp444
a(I-2
I0
I0
I-1
I-1
I-1
I0
I-1
tp445
a(I-2
I0
I0
I-1
I-2
I4
I1
I-1
tp446
a(I-1
I-1
I-1
I-3
I0
I5
I-1
I-1
tp447
a(I0
I-2
I-2
I0
I-1
I-1
I-3
I-1
tp448
a(I0
I0
I1
I0
I-3
I-6
I-1
I-2
tp449
a(I-1
I-2
I-2
I1
I-2
I0
I0
I0
tp450
a(I-1
I0
I-3
I0
I-1
I-3
I-1
I-1
tp451
a(I0
I0
I0
I0
I-2
I1
I-2
I-1
tp452
a(I0
I0
I-1
I-2
I-3
I-4
I-1
I-1
tp453
a(I-1
I-2
I-1
I-1
I1
I0
I0
I-1
tp454
a(I0
I-1
I-2
I-2
I-1
I1
I-1
I-1
tp455
a(I-1
I-1
I2
I-1
I0
I1
I-1
I-1
tp456
a(I0
I0
I-1
I-3
I-2
I4
I1
I-2
tp457
a(I0
I0
I-2
I-1
I-2
I-2
I0
I-1
tp458
a(I-1
I0
I-1
I-1
I2
I-5
I-3
I0
tp459
a(I-1
I-1
I-2
I1
I-1
I0
I1
I1
tp460
a(I0
I0
I-3
I-1
I-2
I-1
I-2
I-1
tp461
a(I-1
I-1
I-1
I0
I-1
I0
I-2
I-2
tp462
a(I-1
I-1
I0
I1
I2
I7
I-1
I-1
tp463
a(I-1
I0
I0
I0
I0
I-2
I-1
I-1
tp464
a(I-1
I-2
I-3
I0
I-1
I1
I-1
I0
tp465
a(I-1
I-3
I-1
I-2
I0
I-4
I-3
I-1
tp466
a(I-2
I-3
I0
I-2
I-1
I-2
I-2
I0
tp467
a(I-1
I-1
I-1
I-1
I0
I-2
I1
I-1
tp468
a(I-2
I-1
I-1
I-1
I-2
I2
I0
I-2
tp469
a(I0
I-1
I-1
I-1
I1
I13
I0
I1
tp470
a(I0
I-1
I-1
I-3
I-1
I0
I0
I-2
tp471
a(I0
I0
I-1
I2
I0
I-1
I-2
I-1
tp472
a(I0
I-1
I-1
I-2
I-1
I-4
I-2
I0
tp473
a(I-1
I-1
I0
I2
I0
I-3
I-3
I-1
tp474
a(I-1
I-2
I-1
I0
I-1
I2
I2
I-1
tp475
a(I-2
I0
I-1
I-2
I-1
I0
I0
I-1
tp476
a(I1
I0
I-1
I0
I-2
I0
I0
I0
tp477
a(I-1
I-1
I-1
I0
I-2
I-2
I1
I-1
tp478
a(I0
I-1
I-1
I1
I-2
I0
I0
I-1
tp479
a(I0
I1
I-2
I-2
I1
I0
I0
I0
tp480
a(I-2
I1
I-1
I0
I-3
I0
I1
I-1
tp481
a(I0
I0
I-1
I-1
I-2
I0
I-1
I-1
tp482
a(I0
I1
I0
I0
I-1
I-2
I-3
I-1
tp483
a(I0
I-3
I-1
I-3
I0
I1
I0
I-2
tp484
a(I-2
I0
I0
I-1
I0
I-2
I-1
I0
tp485
a(I1
I-2
I-2
I-2
I0
I-1
I1
I-1
tp486
a(I-1
I-2
I-1
I0
I2
I18
I1
I-1
tp487
a(I-2
I0
I1
I-1
I0
I1
I-1
I-2
tp488
a(I-1
I-1
I-3
I-2
I1
I0
I-2
I-1
tp489
a(I-1
I1
I1
I-2
I-1
I7
I0
I-1
tp490
a(I-2
I0
I-1
I-2
I-2
I-5
I-1
I-1
tp491
a(I1
I-1
I-1
I1
I-4
I-5
I-1
I-1
tp492
a(I-1
I-1
I1
I-1
I0
I2
I0
I0
tp493
a(I-1
I-1
I-3
I-2
I-1
I-5
I-1
I-1
tp494
a(I1
I-1
I-1
I0
I-3
I-5
I0
I-1
tp495
a(I-1
I-2
I-2
I-1
I0
I3
I1
I1
tp496
a(I1
I-2
I0
I0
I0
I-4
I-1
I-1
tp497
a(I0
I-2
I0
I0
I0
I-1
I0
I-1
tp498
a(I-1
I-1
I0
I1
I0
I0
I-2
I-1
tp499
a(I-2
I0
I-2
I-1
I-1
I-2
I-1
I0
tp500
a(I0
I1
I0
I0
I0
I2
I1
I0
tp501
a(I-1
I-2
I-1
I-2
I-1
I-4
I-2
I-2
tp502
a(I-1
I0
I-1
I-1
I-1
I2
I1
I0
tp503
a(I0
I-1
I1
I0
I-2
I-2
I-1
I0
tp504
a(I-1
I-1
I-1
I-1
I-2
I-4
I-3
I0
tp505
a(I-1
I0
I0
I2
I1
I-2
I-2
I-2
tp506
a(I0
I-2
I-3
I-2
I0
I-1
I-2
I-1
tp507
a(I0
I-2
I-3
I0
I0
I1
I1
I-2
tp508
a(I-1
I-1
I0
I0
I-1
I-1
I-2
I0
tp509
a(I-2
I0
I-1
I0
I1
I-2
I-1
I0
tp510
a(I0
I-1
I0
I-1
I0
I1
I0
I-2
tp511
a(I-1
I-2
I-2
I-2
I0
I-1
I0
I1
tp512
a(I-1
I-1
I0
I1
I-1
I-3
I-1
I-2
tp513
a(I-1
I-1
I0
I-3
I-1
I-1
I-2
I1
tp514
a(I0
I0
I-2
I0
I-2
I-1
I1
I-1
tp515
a(I-1
I-1
I-1
I1
I3
I27
I2
I-1
tp516
a(I-2
I-1
I0
I0
I0
I-2
I0
I0
tp517
a(I-1
I0
I0
I0
I0
I0
I0
I-1
tp518
a(I-1
I0
I-1
I-3
I-2
I-2
I-1
I0
tp519
a(I-1
I-1
I-2
I1
I-1
I-7
I-2
I-1
tp520
a(I-1
I-1
I-1
I-1
I0
I0
I-1
I0
tp521
a(I-2
I-1
I-1
I-1
I0
I5
I-2
I-1
tp522
a(I0
I0
I-1
I-2
I-1
I-1
I-2
I-2
tp523
a(I-2
I-1
I-1
I-2
I-3
I-4
I-2
I-2
tp524
a(I0
I-2
I-1
I-2
I0
I-3
I0
I-1
tp525
a(I1
I0
I-2
I-1
I0
I-5
I-1
I-2
tp526
a(I0
I-1
I-1
I0
I1
I-3
I-4
I1
tp527
a(I-1
I0
I0
I-1
I-2
I4
I0
I-2
tp528
a(I0
I0
I-2
I0
I-2
I-1
I-3
I-1
tp529
a(I-1
I-1
I-1
I0
I0
I0
I0
I-2
tp530
a(I-1
I-1
I-1
I1
I-1
I0
I0
I0
tp531
a(I-2
I-2
I-2
I0
I-1
I1
I-1
I-1
tp532
a(I0
I-2
I0
I-1
I-2
I2
I-2
I-1
tp533
a(I-1
I-3
I-3
I0
I-2
I-7
I0
I0
tp534
a(I-2
I-1
I-1
I0
I-2
I-1
I1
I-1
tp535
a(I1
I-1
I-1
I-1
I0
I-2
I-3
I-1
tp536
as.