(dp0
S'rest'
p1
(lp2
(I-1
I-1
I1
I-5
I-4
I8
I0
I0
tp3
a(I-1
I-1
I-1
I0
I0
I-4
I-1
I-2
tp4
a(I-2
I0
I-3
I3
I-2
I-8
I-2
I-1
tp5
a(I-1
I-2
I0
I-1
I-1
I2
I0
I-1
tp6
a(I0
I-1
I-1
I-5
I-2
I5
I1
I-2
tp7
a(I-1
I-2
I0
I-1
I-2
I-1
I-2
I-1
tp8
a(I0
I0
I-1
I1
I1
I-5
I-1
I1
tp9
a(I-1
I0
I-1
I-3
I1
I0
I-1
I0
tp10
a(I-2
I-1
I0
I-4
I-4
I4
I0
I-2
tp11
a(I-1
I1
I-2
I-1
I0
I-1
I1
I-1
tp12
a(I1
I-2
I-2
I2
I-1
I-5
I-1
I-1
tp13
a(I-1
I-1
I-3
I0
I-2
I0
I-3
I-2
tp14
a(I-1
I-3
I1
I-2
I-1
I4
I0
I-3
tp15
a(I-1
I1
I-2
I0
I-1
I-4
I-1
I0
tp16
a(I-2
I0
I0
I0
I2
I-5
I-1
I-3
tp17
a(I0
I0
I0
I0
I-1
I-1
I1
I-2
tp18
a(I0
I-1
I0
I-3
I-1
I3
I-1
I1
tp19
a(I0
I-1
I-1
I1
I-1
I-4
I-1
I-2
tp20
a(I0
I-1
I-1
I1
I0
I-3
I0
I-1
tp21
a(I-1
I-1
I-2
I-1
I-1
I1
I-1
I-1
tp22
a(I-2
I-1
I1
I0
I-1
I1
I1
I-2
tp23
a(I0
I1
I-2
I-1
I-1
I-3
I0
I0
tp24
a(I0
I0
I-2
I0
I0
I-3
I0
I-1
tp25
a(I-1
I-1
I0
I-2
I0
I-1
I1
I1
tp26
a(I-1
I0
I-2
I-1
I-1
I-4
I-1
I0
tp27
a(I-2
I0
I-1
I1
I0
I0
I-2
I-3
tp28
a(I-1
I0
I0
I-1
I-2
I2
I-2
I-2
tp29
a(I-2
I0
I-2
I0
I-2
I0
I-1
I-1
tp30
a(I0
I-1
I-3
I0
I0
I-2
I-1
I-1
tp31
a(I-1
I-2
I0
I-2
I-1
I-2
I0
I-1
tp32
a(I0
I-1
I-1
I-1
I0
I1
I0
I0
tp33
a(I-1
I-2
I0
I0
I-1
I-1
I-1
I1
tp34
a(I0
I0
I-1
I-1
I0
I-2
I1
I0
tp35
a(I2
I1
I-2
I-1
I0
I0
I-1
I-2
tp36
a(I-1
I-1
I-3
I-2
I-1
I-1
I0
I-1
tp37
a(I0
I-1
I0
I-2
I0
I-2
I-1
I-2
tp38
a(I-1
I0
I0
I0
I1
I-1
I-1
I-1
tp39
a(I-1
I-2
I-1
I2
I-1
I-2
I-1
I-1
tp40
a(I-2
I-3
I-2
I-3
I0
I-2
I-1
I1
tp41
a(I0
I-2
I0
I-1
I-1
I-1
I-1
I-1
tp42
a(I-2
I0
I0
I-2
I-1
I-1
I-2
I0
tp43
a(I-2
I0
I-1
I-2
I-1
I-2
I0
I-1
tp44
a(I-1
I1
I-1
I-1
I0
I-2
I-2
I-1
tp45
a(I-1
I-3
I-2
I-1
I-1
I-1
I-2
I-1
tp46
a(I-1
I0
I-2
I1
I0
I0
I-1
I-1
tp47
a(I1
I-1
I-1
I-1
I-1
I0
I1
I-2
tp48
a(I-1
I0
I-1
I0
I-2
I-2
I-1
I-1
tp49
a(I-1
I0
I-1
I-2
I-1
I0
I-1
I1
tp50
a(I-3
I-1
I-1
I0
I0
I0
I-2
I-1
tp51
a(I-2
I-2
I1
I-1
I-3
I-2
I0
I1
tp52
a(I0
I0
I-1
I0
I-3
I-3
I-1
I0
tp53
a(I-1
I-1
I-1
I-1
I1
I-2
I-2
I-1
tp54
a(I-1
I-1
I0
I1
I-1
I-2
I0
I-2
tp55
a(I0
I0
I-2
I-1
I-1
I1
I-1
I-1
tp56
a(I-1
I0
I0
I1
I-1
I-1
I-1
I-1
tp57
a(I-2
I-1
I-1
I2
I0
I-2
I-3
I-2
tp58
a(I0
I-1
I-1
I0
I-1
I1
I-3
I-1
tp59
a(I-1
I0
I1
I0
I-1
I-2
I0
I0
tp60
a(I0
I-1
I0
I-2
I-1
I-1
I-2
I1
tp61
a(I0
I-1
I-2
I-1
I-1
I-1
I-1
I0
tp62
a(I-1
I0
I-1
I-1
I0
I-1
I0
I-2
tp63
a(I0
I0
I1
I1
I0
I-3
I-1
I0
tp64
a(I0
I0
I0
I1
I0
I-2
I-1
I-1
tp65
a(I-2
I0
I-1
I-1
I-1
I-1
I0
I-1
tp66
a(I1
I-2
I-1
I-1
I-1
I-2
I1
I-2
tp67
a(I-1
I-1
I-2
I-3
I-1
I-1
I0
I-1
tp68
a(I0
I-2
I-1
I-4
I-1
I0
I0
I0
tp69
a(I0
I0
I1
I-1
I-1
I0
I-1
I-1
tp70
a(I0
I-1
I0
I-1
I-1
I-2
I-1
I-1
tp71
a(I0
I-2
I0
I1
I-1
I-1
I0
I0
tp72
a(I0
I-1
I-3
I0
I0
I-2
I0
I-1
tp73
a(I-1
I-1
I-1
I-3
I0
I2
I-1
I-1
tp74
a(I0
I-2
I-1
I-2
I-1
I0
I-1
I-1
tp75
a(I-1
I-1
I-2
I-1
I-1
I-2
I-2
I-1
tp76
a(I0
I-1
I0
I-1
I0
I-2
I0
I0
tp77
a(I-2
I-1
I-2
I0
I-1
I-2
I-2
I-1
tp78
a(I-1
I0
I0
I-1
I-2
I0
I-1
I0
tp79
a(I-2
I-1
I-1
I1
I-2
I1
I0
I0
tp80
a(I0
I-2
I-1
I0
I0
I-1
I-3
I-1
tp81
a(I0
I0
I0
I1
I1
I-4
I-1
I-2
tp82
a(I0
I-1
I-1
I-1
I-2
I0
I-1
I-2
tp83
a(I0
I-1
I-2
I-1
I0
I0
I-1
I-1
tp84
a(I-1
I-1
I-2
I0
I-1
I-2
I0
I-2
tp85
a(I-1
I0
I-1
I-1
I-2
I-1
I-1
I-1
tp86
a(I0
I-2
I0
I-2
I-1
I-1
I0
I-1
tp87
a(I-2
I-1
I-2
I-1
I-2
I-1
I0
I-1
tp88
a(I-1
I-1
I-2
I0
I-2
I-1
I0
I-1
tp89
a(I0
I-2
I-2
I1
I0
I-2
I-1
I0
tp90
a(I-1
I-2
I-1
I-1
I0
I0
I-2
I-1
tp91
a(I-1
I0
I-1
I1
I-2
I-2
I0
I0
tp92
a(I-2
I0
I-1
I-1
I-1
I-1
I-1
I-2
tp93
a(I-2
I0
I-1
I-1
I0
I-1
I0
I0
tp94
a(I-2
I-1
I-1
I0
I0
I-3
I-1
I1
tp95
a(I0
I-1
I-1
I-3
I0
I-2
I0
I-2
tp96
a(I-1
I0
I-1
I-1
I0
I-2
I0
I-2
tp97
a(I-1
I0
I1
I0
I-2
I0
I1
I-3
tp98
a(I0
I1
I-1
I-1
I1
I-1
I-1
I-1
tp99
a(I-2
I0
I0
I0
I1
I-1
I-2
I0
tp100
a(I-2
I-2
I-2
I-1
I-2
I-2
I-1
I0
tp101
a(I-1
I0
I0
I0
I0
I-2
I-1
I-1
tp102
a(I0
I-1
I-2
I-1
I-3
I-3
I-1
I0
tp103
a(I-1
I1
I-1
I-1
I-1
I-2
I-1
I0
tp104
a(I0
I-1
I0
I0
I-1
I-1
I0
I0
tp105
a(I-1
I-2
I-1
I0
I2
I-2
I-1
I-1
tp106
a(I-1
I-1
I0
I-1
I1
I1
I0
I-1
tp107
a(I1
I-1
I-1
I-2
I-2
I0
I-1
I-1
tp108
a(I-2
I1
I-2
I0
I-2
I-2
I-2
I-2
tp109
a(I-1
I-2
I-2
I-1
I-2
I1
I-2
I0
tp110
a(I-1
I-1
I-1
I0
I0
I-1
I-1
I1
tp111
a(I0
I-1
I-2
I-1
I1
I-3
I0
I-1
tp112
a(I-2
I0
I-1
I-3
I-3
I0
I-1
I-1
tp113
a(I-1
I-2
I-1
I-1
I0
I-1
I-1
I-1
tp114
a(I-1
I0
I-2
I-1
I0
I0
I0
I-1
tp115
a(I0
I-1
I-1
I-1
I0
I-1
I0
I0
tp116
a(I-3
I-1
I-1
I0
I0
I0
I0
I0
tp117
a(I0
I-1
I0
I-2
I-1
I-1
I-2
I-3
tp118
a(I0
I-1
I1
I-2
I-1
I-2
I-2
I0
tp119
a(I-2
I-1
I-2
I-1
I-1
I0
I-1
I-1
tp120
a(I0
I0
I0
I-2
I0
I-1
I-1
I-1
tp121
a(I0
I1
I1
I0
I-1
I-1
I0
I-3
tp122
a(I-1
I-2
I-1
I-1
I0
I0
I0
I-1
tp123
a(I-2
I-3
I-1
I0
I-1
I0
I0
I1
tp124
a(I0
I-4
I-1
I1
I-1
I-1
I0
I-1
tp125
a(I0
I0
I0
I-1
I0
I-3
I0
I-2
tp126
a(I-1
I0
I0
I0
I0
I-2
I-3
I-2
tp127
a(I-1
I-1
I-1
I-2
I-2
I1
I0
I-1
tp128
a(I0
I0
I-1
I0
I-1
I-1
I-1
I-2
tp129
a(I-1
I-2
I-1
I0
I-2
I-1
I0
I0
tp130
a(I0
I-1
I0
I-1
I0
I-1
I-1
I0
tp131
a(I-1
I-1
I1
I-2
I-2
I-2
I-1
I0
tp132
a(I-2
I0
I-1
I-3
I-1
I-2
I0
I-2
tp133
a(I-1
I2
I-1
I1
I-1
I-1
I-1
I-1
tp134
a(I-1
I1
I-1
I-2
I0
I-2
I0
I1
tp135
a(I0
I0
I-2
I-1
I0
I-1
I-2
I0
tp136
a(I0
I-2
I0
I1
I-1
I-1
I0
I0
tp137
a(I1
I1
I0
I-2
I-1
I-1
I0
I-1
tp138
a(I0
I-2
I-1
I0
I-1
I-1
I0
I0
tp139
a(I0
I-1
I-1
I-2
I0
I-1
I-2
I-1
tp140
a(I-1
I-1
I-1
I-1
I-1
I0
I-1
I-1
tp141
a(I-1
I-2
I0
I-1
I-3
I-2
I0
I-2
tp142
a(I0
I0
I0
I1
I-1
I-2
I-1
I-1
tp143
a(I0
I-1
I0
I0
I-1
I-1
I0
I0
tp144
a(I0
I-1
I-2
I-1
I-1
I1
I-2
I0
tp145
a(I-3
I-1
I-1
I0
I0
I0
I-1
I0
tp146
a(I-1
I-1
I0
I0
I-1
I-1
I0
I-2
tp147
a(I0
I-1
I-2
I-3
I-1
I1
I-1
I-1
tp148
a(I-1
I-1
I-2
I-1
I0
I-2
I-1
I0
tp149
a(I-1
I0
I-1
I0
I0
I-2
I0
I0
tp150
a(I-2
I-1
I-1
I-3
I0
I-1
I-2
I-2
tp151
a(I-1
I0
I0
I-1
I-2
I0
I-1
I-2
tp152
a(I-2
I0
I-2
I0
I0
I-2
I-1
I0
tp153
a(I0
I0
I0
I0
I-3
I-3
I0
I-1
tp154
a(I0
I-2
I-2
I1
I1
I-2
I0
I-1
tp155
a(I0
I1
I-2
I-1
I0
I-1
I-1
I-3
tp156
a(I0
I-1
I-1
I1
I-2
I-1
I-1
I0
tp157
a(I0
I-1
I-2
I0
I-3
I-1
I-1
I1
tp158
a(I-2
I-1
I0
I0
I-1
I0
I0
I-3
tp159
a(I-1
I-1
I-1
I-2
I1
I-2
I-3
I-1
tp160
a(I-1
I-1
I-2
I-1
I-1
I0
I-1
I1
tp161
a(I-1
I-2
I-1
I-1
I-2
I-1
I-2
I0
tp162
a(I0
I0
I0
I0
I-1
I-2
I-1
I-1
tp163
a(I-1
I0
I-1
I0
I0
I-1
I0
I-1
tp164
a(I1
I1
I-1
I-2
I-1
I0
I-2
I0
tp165
a(I-1
I0
I-2
I-2
I1
I0
I0
I-1
tp166
a(I1
I-3
I-2
I-1
I0
I-2
I0
I-1
tp167
a(I0
I-2
I1
I2
I0
I-2
I-1
I-1
tp168
a(I-1
I-3
I0
I-1
I-2
I-1
I-1
I-2
tp169
a(I1
I-1
I0
I1
I-2
I0
I-2
I1
tp170
a(I0
I1
I-1
I-2
I-1
I0
I-1
I0
tp171
a(I-2
I0
I-1
I-1
I-1
I0
I-1
I-2
tp172
a(I-2
I-1
I-1
I0
I0
I0
I-1
I0
tp173
a(I0
I0
I-1
I-1
I-1
I-2
I-1
I-1
tp174
a(I-2
I0
I-2
I-1
I0
I-1
I-1
I-2
tp175
a(I1
I-1
I1
I-2
I0
I0
I-1
I0
tp176
a(I0
I0
I-3
I-2
I-2
I-1
I-1
I0
tp177
a(I-2
I-1
I-1
I-2
I-1
I-1
I-2
I-1
tp178
a(I-1
I1
I1
I1
I-2
I-2
I-1
I0
tp179
a(I-1
I-1
I-1
I0
I1
I-2
I0
I0
tp180
a(I-2
I1
I1
I1
I-1
I-1
I0
I0
tp181
a(I0
I-1
I-2
I0
I0
I0
I-2
I-1
tp182
a(I-36
I-59
I22
I-80
I-90
I-10
I-6
I-34
tp183
a(I-1
I10
I-35
I94
I46
I-113
I-10
I-7
tp184
a(I-1
I8
I-21
I41
I23
I-57
I-9
I-2
tp185
a(I8
I16
I0
I23
I20
I-14
I4
I12
tp186
a(I6
I12
I-2
I-3
I15
I30
I0
I9
tp187
a(I-3
I-6
I11
I-45
I-23
I54
I1
I1
tp188
a(I-9
I-11
I-1
I-31
I-20
I18
I-3
I-7
tp189
a(I-7
I-9
I-10
I-19
I-11
I7
I-9
I-9
tp190
a(I6
I9
I-4
I10
I13
I4
I2
I4
tp191
a(I-3
I-6
I3
I-17
I-11
I17
I1
I-2
tp192
a(I5
I5
I1
I9
I10
I4
I2
I1
tp193
a(I-3
I-6
I-1
I-7
I-7
I-7
I-4
I-5
tp194
a(I4
I7
I-6
I22
I16
I-14
I-1
I2
tp195
a(I5
I2
I7
I-4
I-1
I12
I5
I5
tp196
a(I-3
I-4
I3
I-13
I-10
I8
I1
I-1
tp197
a(I-3
I-3
I-3
I4
I-2
I-12
I-3
I-4
tp198
a(I1
I3
I-9
I15
I10
I-18
I-3
I0
tp199
a(I-3
I-3
I-3
I-10
I-6
I11
I-4
I-3
tp200
a(I-2
I-5
I2
I-4
I-6
I4
I1
I0
tp201
a(I-2
I-1
I-3
I6
I1
I-11
I-1
I-2
tp202
a(I7
I10
I-5
I20
I17
I-9
I1
I6
tp203
a(I-2
I-4
I3
I-11
I-8
I9
I1
I-2
tp204
a(I-1
I-3
I-1
I-2
I-2
I-1
I-1
I-2
tp205
a(I0
I2
I-1
I5
I2
I-5
I3
I1
tp206
a(I-3
I-3
I-2
I-2
I-3
I-3
I-2
I-2
tp207
a(I-1
I-2
I-3
I0
I-1
I-3
I-2
I-1
tp208
a(I3
I2
I-2
I7
I3
I-2
I-1
I1
tp209
a(I0
I0
I-1
I-2
I-1
I0
I0
I-2
tp210
a(I0
I3
I0
I2
I3
I-3
I0
I0
tp211
a(I-2
I-2
I-1
I-1
I-2
I-3
I-2
I-1
tp212
a(I1
I3
I-1
I4
I3
I-5
I-1
I-1
tp213
a(I-2
I-1
I1
I-2
I-1
I2
I0
I2
tp214
a(I-1
I-2
I1
I-2
I-2
I2
I-2
I-1
tp215
a(I-2
I-2
I0
I0
I0
I-3
I0
I-1
tp216
a(I-1
I-1
I-4
I1
I2
I-2
I-1
I-1
tp217
a(I0
I-1
I-1
I-4
I-2
I2
I-2
I-2
tp218
a(I0
I1
I0
I3
I4
I-4
I0
I3
tp219
a(I-1
I-1
I1
I-3
I-1
I1
I0
I1
tp220
a(I0
I0
I-1
I-1
I-2
I-2
I-1
I-2
tp221
a(I2
I0
I-1
I1
I1
I-2
I2
I0
tp222
a(I-1
I0
I0
I2
I-1
I-2
I0
I-1
tp223
a(I-2
I0
I-1
I-3
I-2
I1
I-1
I-1
tp224
a(I-1
I-2
I-2
I-2
I-2
I-2
I-1
I0
tp225
a(I-3
I-2
I-2
I0
I-1
I-3
I-1
I-3
tp226
a(I-1
I0
I-2
I1
I-1
I-1
I-2
I0
tp227
a(I-1
I-1
I-1
I-1
I-1
I1
I0
I0
tp228
a(I0
I-1
I-1
I1
I0
I-2
I-1
I-1
tp229
a(I0
I-1
I1
I0
I-2
I-2
I-1
I-1
tp230
a(I-1
I-2
I0
I-2
I-1
I-1
I-1
I1
tp231
a(I-1
I-1
I-1
I0
I-3
I-1
I-2
I-1
tp232
a(I-2
I-1
I0
I1
I0
I-1
I0
I0
tp233
a(I-1
I-2
I0
I-2
I-1
I0
I1
I-1
tp234
a(I-2
I-1
I-2
I-2
I-3
I-1
I-1
I-1
tp235
a(I-1
I1
I-1
I-1
I0
I-2
I0
I-1
tp236
a(I-1
I0
I-2
I-1
I-2
I0
I1
I-1
tp237
a(I-1
I1
I0
I-1
I-2
I0
I-2
I0
tp238
a(I0
I0
I-1
I-1
I0
I-1
I-1
I0
tp239
a(I-1
I0
I-2
I-2
I0
I-2
I0
I0
tp240
a(I-1
I1
I-1
I0
I0
I0
I-2
I0
tp241
a(I1
I-1
I-1
I-1
I-1
I-2
I0
I-1
tp242
a(I0
I-1
I-1
I0
I0
I0
I-1
I1
tp243
a(I-2
I-1
I-1
I-1
I-2
I-3
I0
I-1
tp244
a(I-1
I-1
I-2
I0
I0
I-4
I-1
I1
tp245
a(I0
I-1
I-1
I0
I0
I-1
I-2
I-3
tp246
a(I-1
I-1
I-1
I0
I-1
I-2
I-1
I-2
tp247
a(I-2
I-1
I-2
I-1
I-1
I1
I-1
I-2
tp248
a(I0
I-1
I-1
I0
I-1
I-2
I-2
I-1
tp249
a(I-1
I0
I-1
I1
I-1
I0
I0
I-1
tp250
a(I0
I-1
I-2
I-1
I-1
I1
I-1
I1
tp251
a(I0
I-1
I0
I-1
I-1
I-1
I-3
I0
tp252
a(I0
I-1
I-2
I0
I0
I0
I1
I-1
tp253
a(I0
I-1
I-2
I-1
I0
I-2
I-1
I-1
tp254
a(I-3
I0
I1
I0
I-2
I-1
I0
I-1
tp255
a(I-1
I0
I0
I1
I-1
I0
I-2
I-2
tp256
a(I0
I-2
I-1
I-1
I-1
I-2
I-1
I-2
tp257
a(I-1
I-2
I0
I0
I-2
I-2
I-2
I0
tp258
a(I-1
I-1
I-1
I-1
I-1
I-2
I-1
I0
tp259
a(I0
I-2
I-1
I-2
I0
I-1
I0
I0
tp260
a(I-1
I-1
I0
I-1
I1
I-1
I0
I1
tp261
a(I-2
I-1
I-1
I-1
I-1
I-1
I0
I0
tp262
a(I0
I-1
I0
I0
I-1
I-2
I-1
I-2
tp263
a(I0
I0
I-1
I0
I-2
I-1
I0
I0
tp264
a(I-1
I-1
I-1
I-2
I0
I0
I0
I-2
tp265
a(I-2
I-1
I-1
I0
I-1
I-1
I-1
I-2
tp266
a(I0
I0
I0
I-1
I-1
I-2
I0
I-1
tp267
a(I-1
I-1
I0
I0
I-1
I-1
I-2
I-1
tp268
a(I0
I0
I0
I0
I0
I-2
I-1
I-1
tp269
a(I-1
I-1
I1
I-1
I-1
I-1
I-1
I-1
tp270
a(I-1
I0
I1
I0
I-3
I0
I-1
I0
tp271
a(I0
I-1
I0
I-2
I-1
I-2
I-1
I-1
tp272
a(I0
I-2
I-1
I0
I1
I-2
I-1
I0
tp273
a(I-3
I-2
I0
I-1
I-2
I-1
I-1
I-2
tp274
a(I-1
I0
I-2
I1
I-2
I-1
I-1
I-1
tp275
a(I-2
I0
I-2
I-1
I-1
I-1
I-1
I-2
tp276
a(I-2
I-1
I-3
I0
I0
I0
I-2
I-1
tp277
a(I0
I-1
I-1
I1
I-2
I0
I1
I0
tp278
a(I0
I0
I0
I0
I-1
I-1
I-1
I1
tp279
a(I-2
I0
I0
I-1
I-1
I0
I-1
I-1
tp280
a(I-1
I-2
I-1
I-2
I-2
I-1
I0
I-1
tp281
a(I1
I1
I-2
I0
I-1
I2
I0
I-1
tp282
a(I-1
I-2
I-2
I-1
I0
I-1
I-1
I-2
tp283
a(I-1
I-2
I0
I-2
I1
I-1
I-2
I1
tp284
a(I0
I-2
I-1
I-1
I-1
I-1
I0
I1
tp285
a(I0
I-1
I0
I0
I0
I-3
I0
I1
tp286
a(I-1
I-2
I0
I-2
I-1
I-2
I-1
I0
tp287
a(I1
I-1
I-1
I1
I-2
I0
I-1
I-2
tp288
a(I-2
I0
I0
I-2
I-1
I1
I0
I-1
tp289
a(I0
I0
I-2
I0
I0
I-1
I0
I-1
tp290
a(I-1
I0
I-1
I-2
I-3
I0
I-2
I-1
tp291
a(I-2
I0
I0
I-2
I-1
I-2
I0
I0
tp292
a(I0
I-1
I0
I0
I-1
I-2
I0
I-2
tp293
a(I0
I-3
I1
I1
I1
I-1
I-1
I-2
tp294
a(I1
I0
I-2
I0
I-1
I0
I0
I-2
tp295
a(I0
I0
I-1
I-1
I0
I1
I-2
I-1
tp296
a(I-1
I-1
I0
I-1
I0
I-3
I-1
I-2
tp297
a(I-2
I-1
I-1
I1
I-1
I-2
I0
I0
tp298
a(I1
I-1
I-1
I-2
I2
I-2
I-2
I-1
tp299
a(I0
I-1
I0
I0
I0
I-1
I-2
I-2
tp300
a(I0
I1
I-2
I-1
I2
I-1
I0
I0
tp301
a(I-3
I-2
I-3
I-2
I-1
I0
I-3
I0
tp302
a(I0
I0
I-1
I-2
I0
I-1
I-1
I-2
tp303
a(I0
I0
I-2
I0
I-1
I0
I-2
I0
tp304
a(I-1
I-3
I-2
I0
I-1
I-2
I-1
I0
tp305
a(I-2
I-1
I0
I1
I-1
I0
I0
I-1
tp306
a(I-2
I0
I-1
I1
I-1
I-2
I-2
I-1
tp307
a(I0
I0
I1
I-3
I-2
I-2
I-1
I-1
tp308
a(I-1
I-1
I-1
I1
I0
I-1
I-1
I-1
tp309
a(I0
I-1
I1
I0
I-1
I-1
I0
I0
tp310
a(I-1
I-2
I-1
I0
I-2
I-2
I-1
I1
tp311
a(I-1
I1
I-1
I0
I-1
I-1
I1
I0
tp312
a(I-3
I-1
I1
I-1
I0
I0
I-1
I0
tp313
a(I-1
I0
I-1
I-3
I-1
I-2
I1
I0
tp314
a(I-1
I0
I-1
I-2
I-2
I1
I0
I-2
tp315
a(I0
I-2
I-2
I-1
I-2
I-1
I-2
I-1
tp316
a(I0
I0
I-1
I1
I1
I-2
I-2
I0
tp317
a(I0
I-2
I-1
I-1
I-1
I0
I-1
I-1
tp318
a(I0
I-1
I-1
I-1
I0
I-1
I-2
I0
tp319
a(I-1
I-1
I1
I-1
I-2
I-1
I-1
I0
tp320
a(I1
I-3
I-3
I-2
I-2
I-2
I-1
I0
tp321
a(I0
I-1
I1
I0
I-1
I-2
I-1
I-1
tp322
a(I0
I-1
I-1
I-2
I0
I-1
I-2
I-2
tp323
a(I-1
I-1
I0
I-1
I0
I-3
I0
I1
tp324
a(I-1
I0
I-2
I2
I0
I-2
I0
I-2
tp325
a(I-2
I-2
I-1
I-2
I-1
I0
I-1
I0
tp326
a(I-1
I0
I0
I0
I0
I-1
I0
I-1
tp327
a(I0
I-1
I0
I0
I0
I-1
I-1
I1
tp328
a(I0
I-2
I0
I0
I0
I1
I-1
I0
tp329
a(I-2
I-1
I0
I0
I0
I-2
I0
I-1
tp330
a(I0
I0
I-1
I1
I-2
I-2
I-1
I-1
tp331
a(I-1
I-1
I0
I-1
I-1
I0
I0
I-2
tp332
a(I-1
I-1
I-1
I1
I0
I-2
I-3
I0
tp333
a(I0
I0
I-1
I-2
I-1
I-1
I-1
I-2
tp334
a(I1
I-2
I0
I-1
I0
I-1
I-2
I-1
tp335
a(I-1
I-1
I-1
I-1
I1
I-1
I-1
I-1
tp336
a(I0
I-2
I-1
I-2
I-1
I-2
I-1
I0
tp337
a(I-1
I-2
I-1
I-1
I0
I-1
I-2
I-1
tp338
a(I-2
I0
I-2
I-2
I-1
I-1
I1
I-1
tp339
a(I0
I0
I1
I0
I-2
I-1
I-1
I-1
tp340
a(I-1
I0
I-2
I1
I-1
I-1
I-1
I-1
tp341
a(I-2
I-2
I-3
I-1
I-1
I-3
I0
I0
tp342
a(I0
I-1
I1
I0
I-1
I-1
I0
I-1
tp343
a(I-2
I-1
I-1
I-1
I0
I-1
I-2
I-2
tp344
a(I-1
I-2
I-1
I-2
I0
I-1
I-1
I0
tp345
a(I0
I-2
I-2
I0
I-3
I-1
I-2
I-1
tp346
a(I-1
I-2
I0
I-2
I-3
I-2
I0
I0
tp347
a(I-2
I-2
I-2
I0
I0
I-1
I0
I0
tp348
a(I-1
I0
I-2
I-1
I0
I-1
I-2
I-1
tp349
a(I0
I-2
I-1
I-1
I-1
I0
I0
I-1
tp350
a(I-2
I0
I1
I-2
I-2
I-2
I-2
I1
tp351
a(I0
I-3
I-1
I0
I0
I0
I0
I0
tp352
as.