(lp0
(I-2
I-3
I-3
I0
I-4
I2
I0
I0
tp1
a(I-3
I-3
I-4
I-6
I1
I1
I-1
I-1
tp2
a(I0
I1
I0
I-3
I6
I-4
I0
I1
tp3
a(I0
I1
I3
I3
I-16
I0
I-2
I0
tp4
a(I1
I1
I-1
I-3
I6
I-3
I0
I0
tp5
a(I-1
I-2
I-3
I1
I-3
I-1
I-1
I-1
tp6
a(I-3
I-3
I-3
I-3
I-11
I-5
I-1
I-3
tp7
a(I0
I-1
I-1
I-2
I9
I-2
I0
I-3
tp8
a(I2
I2
I2
I16
I-5
I0
I-1
I-2
tp9
a(I-1
I-1
I-2
I-19
I3
I-10
I-3
I-4
tp10
a(I1
I-1
I-2
I6
I8
I1
I-2
I-2
tp11
a(I-2
I-3
I-2
I-1
I-6
I-5
I0
I-1
tp12
a(I-4
I-3
I-5
I-4
I0
I-3
I0
I-1
tp13
a(I-1
I3
I3
I6
I-4
I-2
I-1
I1
tp14
a(I-1
I-1
I4
I-2
I-7
I1
I-4
I-1
tp15
a(I-2
I1
I-3
I0
I-18
I-6
I-2
I-1
tp16
a(I0
I-4
I-2
I-2
I-3
I-1
I-1
I-1
tp17
a(I-4
I-4
I-5
I-2
I13
I5
I-3
I-3
tp18
a(I1
I2
I0
I2
I-22
I-9
I-1
I-1
tp19
a(I-1
I0
I2
I-1
I17
I5
I-1
I-1
tp20
a(I1
I1
I1
I-4
I-4
I2
I-2
I-2
tp21
a(I-1
I-3
I-3
I-7
I20
I0
I0
I0
tp22
a(I-4
I-5
I-6
I-1
I1
I6
I0
I-1
tp23
a(I0
I-4
I-4
I-2
I-5
I-7
I-1
I-2
tp24
a(I-2
I-2
I-4
I-8
I0
I-4
I-1
I-2
tp25
a(I-1
I-2
I-2
I-1
I15
I6
I-2
I0
tp26
a(I-2
I-3
I0
I8
I3
I-2
I-1
I0
tp27
a(I1
I0
I-1
I2
I-8
I10
I0
I-1
tp28
a(I0
I1
I2
I0
I7
I-15
I-1
I-1
tp29
a(I0
I-1
I1
I1
I-2
I-3
I-1
I0
tp30
a(I0
I-1
I2
I-1
I-1
I-6
I-1
I0
tp31
a(I-2
I-3
I-5
I9
I-19
I2
I-3
I-3
tp32
a(I-1
I-1
I-5
I-26
I-17
I7
I0
I-2
tp33
a(I-2
I-1
I1
I1
I0
I-2
I-3
I0
tp34
a(I-2
I-2
I-3
I-2
I2
I-3
I-4
I0
tp35
a(I-2
I-3
I-3
I3
I8
I-2
I-1
I-2
tp36
a(I0
I2
I1
I-13
I-6
I8
I-1
I-1
tp37
a(I0
I0
I0
I3
I-3
I-7
I-2
I0
tp38
a(I-2
I0
I-1
I11
I15
I6
I-2
I-1
tp39
a(I-2
I-2
I-2
I-8
I6
I-1
I2
I1
tp40
a(I-1
I0
I-2
I-4
I-13
I-2
I-1
I-1
tp41
a(I-2
I-1
I1
I-4
I-3
I-2
I0
I-1
tp42
a(I0
I2
I4
I7
I-10
I-5
I0
I-2
tp43
a(I0
I1
I-1
I3
I11
I4
I1
I0
tp44
a(I-1
I-1
I0
I10
I-8
I3
I2
I0
tp45
a(I0
I-3
I-5
I-37
I5
I0
I-1
I-1
tp46
a(I0
I-2
I-1
I3
I6
I-16
I-4
I0
tp47
a(I0
I0
I-1
I-4
I-16
I3
I1
I-2
tp48
a(I1
I2
I0
I1
I10
I5
I-1
I0
tp49
a(I-2
I-2
I-3
I-3
I5
I1
I-2
I1
tp50
a(I-2
I-1
I-2
I-4
I-11
I-5
I-1
I0
tp51
a(I1
I0
I4
I12
I4
I0
I0
I1
tp52
a(I-1
I-2
I-5
I-6
I-16
I3
I0
I0
tp53
a(I-1
I-2
I-1
I3
I-1
I-2
I-3
I-1
tp54
a(I-1
I-1
I-1
I-2
I12
I1
I1
I1
tp55
a(I0
I1
I0
I3
I7
I1
I-1
I-1
tp56
a(I0
I-1
I1
I-7
I-17
I3
I0
I1
tp57
a(I-1
I-1
I-2
I1
I8
I3
I0
I-1
tp58
a(I-2
I-1
I-5
I-15
I-17
I-7
I-4
I-2
tp59
a(I-1
I-1
I-1
I5
I9
I-7
I-3
I-2
tp60
a(I1
I0
I1
I-6
I4
I-2
I0
I-1
tp61
a(I-1
I-1
I-1
I6
I-5
I5
I1
I0
tp62
a(I-2
I0
I-3
I-7
I-3
I-12
I-2
I-2
tp63
a(I0
I-1
I-1
I-4
I-8
I-1
I-1
I0
tp64
a(I0
I1
I0
I5
I11
I9
I1
I-1
tp65
a(I0
I-1
I-3
I-8
I-44
I-22
I-5
I-2
tp66
a(I-2
I-4
I-1
I-2
I16
I-5
I-2
I-1
tp67
a(I1
I-1
I-2
I4
I0
I-3
I-1
I1
tp68
a(I-2
I1
I2
I9
I1
I-2
I0
I-2
tp69
a(I0
I0
I-5
I-25
I1
I1
I2
I-1
tp70
a(I0
I-3
I0
I1
I13
I2
I0
I0
tp71
a(I-2
I-1
I-1
I1
I-7
I-5
I-1
I-2
tp72
a(I1
I1
I1
I-2
I-18
I6
I2
I-1
tp73
a(I1
I-1
I-6
I-5
I17
I-5
I-2
I-2
tp74
a(I3
I4
I5
I3
I-16
I-3
I-1
I-2
tp75
a(I-2
I-1
I-1
I1
I5
I-2
I1
I-1
tp76
a(I-4
I-5
I-5
I-5
I11
I-1
I-3
I-2
tp77
a(I-1
I1
I3
I16
I-12
I-7
I-1
I0
tp78
a(I-4
I-6
I-9
I-21
I0
I-5
I-3
I-3
tp79
a(I-1
I-2
I0
I4
I-8
I0
I-2
I-1
tp80
a(I-1
I0
I-2
I0
I-2
I-1
I-1
I0
tp81
a(I-3
I-2
I-1
I-5
I3
I-1
I0
I-3
tp82
a(I0
I-1
I0
I5
I-20
I-3
I1
I-1
tp83
a(I0
I-2
I1
I2
I13
I1
I0
I-1
tp84
a(I-3
I-3
I-3
I-6
I-16
I-5
I-2
I1
tp85
a(I-3
I-1
I-1
I-3
I1
I2
I-2
I-2
tp86
a(I1
I1
I-1
I3
I19
I-4
I0
I-2
tp87
a(I1
I-2
I1
I-8
I-10
I0
I0
I1
tp88
a(I0
I-2
I-1
I-2
I7
I-9
I-1
I-1
tp89
a(I0
I1
I-1
I0
I-18
I2
I-4
I-1
tp90
a(I-1
I-2
I1
I15
I5
I3
I0
I1
tp91
a(I-1
I-3
I-6
I-24
I5
I-7
I-1
I-1
tp92
a(I0
I1
I2
I6
I14
I4
I0
I0
tp93
a(I-3
I-3
I-3
I-3
I-4
I-3
I1
I0
tp94
a(I-1
I-2
I-1
I3
I-24
I-6
I-2
I-2
tp95
a(I-1
I0
I-2
I4
I-9
I-4
I-3
I-1
tp96
a(I-1
I-3
I-4
I-7
I-7
I-9
I-1
I-1
tp97
a(I-1
I-2
I0
I-3
I-9
I2
I1
I-2
tp98
a(I0
I-3
I-3
I-6
I24
I8
I1
I3
tp99
a(I-1
I0
I3
I1
I-6
I3
I1
I2
tp100
a(I-1
I0
I3
I11
I6
I7
I3
I1
tp101
a(I2
I-1
I-1
I-9
I-4
I-3
I0
I1
tp102
a(I0
I2
I-1
I-3
I6
I-9
I0
I-1
tp103
a(I2
I0
I2
I1
I18
I8
I2
I0
tp104
a(I4
I1
I1
I-3
I-10
I-3
I0
I-1
tp105
a(I0
I0
I-3
I5
I0
I5
I-2
I0
tp106
a(I0
I1
I2
I-1
I-2
I-8
I-2
I-2
tp107
a(I1
I-1
I2
I1
I0
I-1
I1
I-1
tp108
a(I2
I0
I0
I3
I0
I4
I0
I-1
tp109
a(I-3
I0
I-3
I-11
I-7
I-9
I0
I-2
tp110
a(I-3
I-4
I-3
I-8
I6
I-2
I-2
I-2
tp111
a(I0
I1
I3
I-3
I5
I-7
I1
I0
tp112
a(I1
I-1
I-6
I-6
I-7
I13
I-1
I-2
tp113
a(I1
I3
I7
I21
I-1
I-1
I-1
I0
tp114
a(I0
I-2
I-5
I-27
I-4
I7
I-1
I-1
tp115
a(I-1
I1
I0
I0
I7
I0
I0
I0
tp116
a(I-4
I-1
I-2
I-1
I-21
I-22
I-4
I-3
tp117
a(I0
I-3
I-4
I-1
I16
I13
I-1
I1
tp118
a(I0
I4
I4
I2
I-19
I-2
I-1
I-2
tp119
a(I-1
I-3
I2
I4
I18
I1
I1
I-2
tp120
a(I-1
I-4
I-5
I-27
I3
I4
I0
I-1
tp121
a(I-1
I-1
I-1
I7
I-5
I3
I3
I-2
tp122
a(I1
I-1
I-1
I-1
I1
I4
I0
I-1
tp123
a(I-1
I0
I0
I-12
I-6
I-2
I2
I0
tp124
a(I2
I2
I2
I11
I4
I-4
I0
I-1
tp125
a(I-1
I-1
I2
I3
I-9
I-4
I-2
I-1
tp126
a(I0
I-3
I-1
I0
I8
I0
I-2
I-2
tp127
a(I2
I2
I1
I13
I11
I-5
I0
I-1
tp128
a(I0
I0
I1
I-12
I-25
I-7
I-3
I-1
tp129
a(I0
I-3
I-6
I-6
I-9
I-7
I-3
I1
tp130
a(I-2
I-1
I-1
I0
I-1
I0
I0
I-1
tp131
a(I-4
I-2
I-2
I-3
I4
I-2
I-2
I-1
tp132
a(I-2
I-2
I-1
I-2
I-1
I-4
I-4
I-1
tp133
a(I0
I-5
I-4
I-17
I-11
I-2
I0
I-4
tp134
a(I-3
I-1
I-2
I13
I5
I4
I-2
I0
tp135
a(I-2
I0
I2
I8
I-10
I-4
I-3
I-1
tp136
a(I-3
I-3
I-5
I-18
I4
I1
I0
I0
tp137
a(I-1
I1
I-1
I3
I10
I9
I-2
I0
tp138
a(I0
I-1
I1
I5
I-8
I-4
I-2
I0
tp139
a(I-3
I0
I-2
I-12
I-3
I-1
I-3
I0
tp140
a(I0
I-1
I1
I6
I-14
I-13
I-3
I-1
tp141
a(I-1
I-2
I-5
I-3
I0
I-11
I3
I-2
tp142
a(I0
I0
I0
I-2
I13
I8
I0
I-2
tp143
a(I-1
I1
I-1
I4
I0
I8
I1
I0
tp144
a(I1
I-3
I-3
I10
I2
I-1
I0
I-1
tp145
a(I-1
I0
I-1
I-4
I16
I-2
I0
I-1
tp146
a(I-1
I-2
I-5
I-12
I-21
I0
I1
I0
tp147
a(I-1
I-2
I-1
I3
I-12
I-6
I-4
I0
tp148
a(I-1
I2
I4
I9
I-5
I-3
I-1
I1
tp149
a(I0
I-4
I-6
I-21
I25
I8
I0
I0
tp150
a(I-1
I0
I3
I7
I14
I4
I1
I0
tp151
a(I1
I-2
I0
I-8
I-18
I-6
I-3
I-1
tp152
a(I0
I0
I-5
I0
I8
I-2
I-1
I1
tp153
a(I-1
I-1
I-2
I7
I-7
I-6
I-3
I-2
tp154
a(I0
I-2
I-1
I3
I4
I15
I2
I0
tp155
a(I2
I2
I0
I-1
I-16
I-20
I-9
I-2
tp156
a(I-1
I0
I-1
I-2
I12
I-1
I1
I-1
tp157
a(I-3
I0
I4
I17
I-22
I7
I1
I0
tp158
a(I-2
I-3
I-3
I-19
I3
I-3
I0
I-2
tp159
a(I0
I-2
I0
I5
I18
I4
I0
I-2
tp160
a(I-1
I0
I-1
I2
I-13
I-3
I-5
I-1
tp161
a(I0
I-1
I-1
I0
I22
I1
I5
I2
tp162
a(I-2
I-1
I0
I-6
I-13
I-4
I0
I-1
tp163
a(I-1
I0
I1
I13
I-4
I6
I0
I-1
tp164
a(I0
I-1
I-2
I-23
I-13
I-12
I-2
I0
tp165
a(I-2
I-2
I-3
I-1
I19
I2
I-1
I-1
tp166
a(I0
I0
I1
I3
I12
I2
I0
I0
tp167
a(I0
I0
I1
I1
I-14
I-4
I-1
I-2
tp168
a(I-1
I-1
I2
I2
I-3
I-8
I-1
I0
tp169
a(I0
I0
I3
I-2
I-10
I-7
I-1
I1
tp170
a(I-1
I0
I1
I7
I11
I4
I-1
I-1
tp171
a(I1
I0
I-3
I-11
I-15
I3
I2
I-1
tp172
a(I-1
I-4
I-4
I4
I-8
I2
I-1
I-2
tp173
a(I-1
I-4
I-3
I6
I5
I5
I-3
I-2
tp174
a(I-1
I0
I-2
I-8
I-6
I-27
I-6
I-1
tp175
a(I-1
I-1
I-2
I-3
I-6
I7
I0
I-1
tp176
a(I-1
I1
I0
I10
I12
I-8
I0
I-1
tp177
a(I-2
I-2
I-4
I-21
I-24
I9
I0
I0
tp178
a(I0
I1
I-1
I9
I6
I8
I1
I0
tp179
a(I1
I-1
I1
I-1
I7
I0
I-1
I-1
tp180
a(I-2
I-2
I2
I5
I14
I-1
I1
I-2
tp181
a(I1
I0
I-1
I-7
I-21
I4
I1
I0
tp182
a(I-2
I-4
I-2
I-3
I8
I3
I0
I-1
tp183
a(I0
I-2
I0
I-4
I-4
I-1
I-1
I-1
tp184
a(I-4
I-3
I-2
I-4
I-4
I11
I0
I-1
tp185
a(I0
I4
I5
I8
I5
I-12
I-2
I1
tp186
a(I-1
I-2
I-1
I-1
I-3
I1
I1
I-2
tp187
a(I-2
I-2
I-4
I-7
I-8
I-7
I-2
I-2
tp188
a(I0
I2
I0
I2
I2
I6
I-2
I-2
tp189
a(I-2
I-3
I-1
I3
I7
I5
I0
I-2
tp190
a(I1
I1
I2
I0
I-15
I-5
I-1
I-1
tp191
a(I0
I-1
I0
I-7
I16
I-12
I1
I3
tp192
a(I1
I-1
I-2
I-5
I23
I1
I-1
I1
tp193
a(I1
I0
I-1
I11
I1
I-4
I0
I-1
tp194
a(I-2
I0
I2
I14
I1
I-1
I0
I1
tp195
a(I-3
I-6
I-7
I-8
I2
I6
I2
I0
tp196
a(I-1
I0
I0
I0
I-10
I-6
I-3
I-2
tp197
a(I0
I1
I-1
I1
I5
I5
I-1
I1
tp198
a(I-2
I-1
I-3
I0
I0
I0
I-2
I-1
tp199
a(I-1
I-2
I-3
I-3
I6
I0
I2
I-1
tp200
a(I-2
I0
I-1
I1
I-10
I-1
I-2
I-1
tp201
a(I-3
I-2
I0
I-4
I-1
I7
I1
I-1
tp202
a(I0
I2
I3
I2
I-2
I-5
I-1
I-1
tp203
a(I-1
I-2
I-3
I-2
I-3
I-2
I1
I-1
tp204
a(I-1
I2
I1
I6
I19
I11
I-2
I-1
tp205
a(I1
I0
I-2
I-2
I-9
I-15
I-4
I-2
tp206
a(I-2
I0
I-1
I-2
I1
I15
I0
I1
tp207
a(I1
I2
I1
I6
I-5
I-16
I-3
I-1
tp208
a(I-1
I-1
I-2
I-8
I-2
I-2
I2
I0
tp209
a(I-3
I-2
I-3
I5
I8
I2
I-2
I-2
tp210
a(I0
I1
I4
I7
I-3
I9
I1
I1
tp211
a(I-3
I0
I-1
I3
I3
I-7
I-1
I-1
tp212
a(I-1
I-1
I-2
I-3
I-12
I-7
I-2
I-1
tp213
a(I-2
I-2
I-7
I-10
I-23
I-3
I-1
I0
tp214
a(I1
I-1
I-2
I-6
I-4
I-6
I0
I-1
tp215
a(I0
I-1
I0
I5
I5
I8
I2
I-1
tp216
a(I0
I-1
I1
I12
I-7
I-3
I-2
I0
tp217
a(I1
I-1
I-2
I-10
I3
I1
I0
I-1
tp218
a(I-2
I-3
I-5
I-10
I5
I-2
I0
I0
tp219
a(I-1
I-1
I2
I6
I-3
I0
I-1
I-1
tp220
a(I0
I4
I2
I-4
I-5
I5
I-1
I-1
tp221
a(I1
I0
I0
I8
I0
I-1
I-2
I0
tp222
a(I0
I-5
I-4
I-9
I3
I-1
I-1
I0
tp223
a(I-1
I-2
I-2
I-7
I-6
I-8
I1
I-1
tp224
a(I-2
I-3
I-3
I-7
I-1
I-7
I-4
I-3
tp225
a(I0
I2
I3
I6
I-7
I5
I1
I-1
tp226
a(I1
I0
I0
I3
I7
I3
I-1
I-1
tp227
a(I1
I0
I-2
I-4
I0
I-5
I-4
I-1
tp228
a(I-1
I-2
I1
I15
I-7
I3
I-2
I-1
tp229
a(I-1
I3
I7
I5
I28
I17
I3
I0
tp230
a(I-1
I-1
I-5
I-15
I-9
I-32
I-4
I-1
tp231
a(I-2
I-3
I-1
I9
I-14
I24
I1
I-1
tp232
a(I1
I0
I0
I4
I2
I-5
I-2
I0
tp233
a(I-1
I-1
I-1
I1
I1
I2
I-1
I1
tp234
a(I-2
I-2
I1
I-1
I0
I-2
I-1
I0
tp235
a(I-1
I-3
I-3
I-9
I1
I6
I1
I0
tp236
a(I-1
I-2
I-2
I-1
I-21
I-6
I-4
I-1
tp237
a(I-2
I-2
I-1
I-2
I-1
I2
I-1
I0
tp238
a(I1
I2
I3
I15
I0
I9
I2
I0
tp239
a(I-1
I1
I-2
I-15
I0
I-23
I-6
I-2
tp240
a(I0
I-3
I-4
I-9
I-18
I-16
I-2
I-1
tp241
a(I-2
I-4
I3
I16
I-9
I-3
I-2
I-1
tp242
a(I2
I1
I3
I-1
I4
I9
I4
I1
tp243
a(I-2
I-2
I-7
I-8
I11
I-20
I-9
I-4
tp244
a(I0
I1
I-3
I1
I2
I7
I0
I-1
tp245
a(I0
I2
I6
I5
I-5
I-5
I2
I0
tp246
a(I-2
I-4
I-3
I3
I7
I6
I-1
I-2
tp247
a(I-2
I-6
I-8
I-23
I-23
I-3
I1
I-2
tp248
a(I0
I3
I2
I-8
I3
I10
I3
I0
tp249
a(I2
I1
I-2
I-12
I-1
I-24
I-9
I0
tp250
a(I2
I3
I2
I12
I12
I2
I2
I-2
tp251
a(I0
I2
I10
I20
I-29
I-16
I-3
I0
tp252
a(I-4
I-5
I-9
I11
I-8
I1
I1
I-1
tp253
a(I5
I7
I1
I-5
I-3
I-10
I-4
I0
tp254
a(I2
I1
I4
I-7
I12
I8
I5
I1
tp255
a(I-2
I-1
I-3
I6
I8
I10
I3
I-1
tp256
a(I-2
I-1
I-1
I-10
I-18
I-21
I-9
I-5
tp257
a(I-3
I-3
I-3
I6
I11
I3
I2
I-1
tp258
a(I0
I1
I3
I16
I-23
I4
I2
I0
tp259
a(I3
I7
I3
I-4
I24
I-3
I-1
I0
tp260
a(I-1
I-1
I0
I-12
I-15
I0
I1
I0
tp261
a(I-1
I0
I2
I2
I-11
I1
I1
I1
tp262
a(I-3
I-4
I-4
I15
I11
I15
I6
I0
tp263
a(I-1
I-2
I-1
I-1
I-12
I-12
I-7
I-4
tp264
a(I1
I0
I-5
I16
I-5
I1
I-2
I0
tp265
a(I-1
I1
I2
I-10
I7
I10
I4
I1
tp266
a(I-1
I-1
I3
I15
I24
I-5
I-5
I-1
tp267
a(I-4
I-5
I-4
I5
I17
I9
I1
I-2
tp268
a(I0
I-1
I0
I-4
I11
I0
I0
I-1
tp269
a(I2
I-1
I-2
I2
I-8
I0
I0
I0
tp270
a(I-1
I-5
I-11
I-9
I-16
I12
I3
I-1
tp271
a(I1
I1
I-1
I-6
I7
I12
I2
I0
tp272
a(I0
I-1
I0
I3
I-7
I-14
I-5
I-1
tp273
a(I-4
I-6
I-11
I5
I16
I15
I2
I-2
tp274
a(I1
I1
I0
I-3
I-21
I-1
I1
I1
tp275
a(I-1
I1
I2
I4
I6
I-2
I-1
I0
tp276
a(I-1
I-2
I-1
I10
I-4
I-16
I-3
I-1
tp277
a(I-1
I-2
I-1
I1
I-11
I6
I2
I0
tp278
a(I-1
I-2
I0
I0
I38
I-5
I-6
I-3
tp279
a(I-4
I-6
I-2
I9
I5
I4
I2
I-2
tp280
a(I0
I4
I-2
I-24
I-20
I-19
I-6
I-2
tp281
a(I0
I-5
I-1
I18
I5
I4
I3
I-1
tp282
a(I-3
I-2
I1
I1
I16
I13
I5
I0
tp283
a(I2
I5
I6
I1
I-10
I2
I-2
I1
tp284
a(I-1
I1
I-1
I7
I15
I8
I3
I0
tp285
a(I0
I2
I3
I-4
I-4
I-1
I1
I0
tp286
a(I-2
I-9
I-8
I-7
I-35
I-5
I-1
I-1
tp287
a(I1
I5
I9
I11
I14
I-34
I-11
I0
tp288
a(I0
I1
I7
I3
I-11
I-7
I-4
I-1
tp289
a(I3
I5
I-3
I-17
I-43
I2
I1
I1
tp290
a(I0
I3
I13
I15
I16
I-12
I-4
I1
tp291
a(I-8
I-12
I-12
I-15
I19
I11
I0
I-3
tp292
a(I0
I9
I2
I-8
I-51
I-94
I-49
I-13
tp293
a(I1
I-1
I7
I19
I22
I59
I20
I4
tp294
a(I-1
I-4
I-10
I-28
I-39
I11
I0
I-3
tp295
a(I2
I2
I7
I9
I12
I22
I10
I3
tp296
a(I-6
I-6
I-12
I-9
I15
I-12
I-4
I-5
tp297
a(I-11
I-15
I-12
I16
I31
I14
I-1
I-7
tp298
a(I5
I8
I9
I1
I-23
I-17
I3
I4
tp299
a(I-1
I-7
I-2
I20
I40
I36
I16
I4
tp300
a(I-5
I-10
I-6
I-7
I-25
I27
I7
I-2
tp301
a(I-8
I-11
I-19
I-30
I-26
I-5
I-11
I-10
tp302
a(I2
I1
I-2
I0
I14
I32
I11
I5
tp303
a(I-8
I-18
I-11
I4
I12
I35
I10
I-1
tp304
a(I3
I7
I9
I-5
I-55
I-62
I-21
I-4
tp305
a(I2
I8
I6
I4
I-17
I-13
I-2
I1
tp306
a(I-7
I-18
I-14
I-4
I26
I18
I6
I-3
tp307
a(I11
I19
I18
I1
I-35
I-51
I-14
I3
tp308
a(I-8
I-13
I-16
I2
I28
I0
I-8
I-7
tp309
a(I4
I6
I9
I12
I-10
I-37
I-5
I2
tp310
a(I7
I13
I9
I-14
I-26
I16
I9
I5
tp311
a(I-4
I-2
I-4
I-10
I-3
I-25
I-8
I-4
tp312
a(I6
I8
I8
I-7
I-24
I9
I-5
I16
tp313
a(I1
I2
I-4
I-13
I-6
I13
I-1
I0
tp314
a(I1
I10
I-5
I-34
I-62
I-67
I-34
I-7
tp315
a(I0
I0
I-5
I-31
I-20
I-25
I-12
I-4
tp316
a(I-15
I-29
I-20
I19
I36
I42
I21
I-9
tp317
a(I10
I14
I14
I0
I-13
I-36
I-2
I10
tp318
a(I-2
I-2
I-1
I26
I52
I18
I7
I0
tp319
a(I0
I2
I8
I13
I0
I-23
I-3
I-1
tp320
a(I2
I4
I0
I-21
I-18
I-34
I-2
I-1
tp321
a(I-10
I-15
I-10
I-18
I-23
I12
I-2
I-4
tp322
a(I7
I14
I9
I4
I21
I8
I13
I5
tp323
a(I-6
I-10
I-14
I-7
I2
I-44
I-17
I-9
tp324
a(I-5
I-8
I-12
I-31
I-65
I-17
I-20
I-5
tp325
a(I-1
I-1
I1
I15
I35
I7
I-3
I-3
tp326
a(I3
I11
I8
I2
I10
I-13
I-10
I-13
tp327
a(I-11
I-13
I-16
I-16
I-28
I9
I-4
I-2
tp328
a(I-1
I-1
I4
I7
I7
I-8
I10
I1
tp329
a(I-1
I-4
I1
I14
I13
I16
I6
I6
tp330
a(I-5
I-7
I-10
I-12
I-13
I3
I-2
I-9
tp331
a(I-1
I-3
I2
I22
I42
I49
I10
I-2
tp332
a(I9
I14
I23
I30
I31
I19
I13
I7
tp333
a(I-10
I-15
I-13
I-5
I4
I23
I6
I-3
tp334
a(I6
I6
I6
I5
I6
I-7
I7
I4
tp335
a(I-1
I-7
I-6
I8
I-7
I-10
I-4
I-3
tp336
a(I12
I29
I32
I20
I16
I-40
I1
I9
tp337
a(I-4
I-4
I-10
I-16
I-54
I3
I-7
I-13
tp338
a(I-15
I-32
I-29
I-8
I15
I31
I-2
I9
tp339
a(I11
I15
I15
I7
I-7
I-9
I5
I9
tp340
a(I-13
I-17
I-18
I-2
I31
I14
I2
I-6
tp341
a(I-1
I2
I-5
I-22
I-16
I-3
I-1
I-6
tp342
a(I1
I3
I8
I7
I-25
I11
I5
I-4
tp343
a(I2
I4
I5
I15
I28
I-9
I0
I-2
tp344
a(I-2
I-4
I-4
I-20
I-20
I-9
I-13
I11
tp345
a(I-2
I-5
I-4
I9
I6
I8
I2
I1
tp346
a(I2
I1
I2
I15
I17
I32
I10
I4
tp347
a(I1
I6
I1
I-10
I11
I-12
I-2
I-4
tp348
a(I-3
I-2
I-9
I-20
I-9
I-4
I0
I-3
tp349
a(I-3
I-5
I-6
I-12
I-35
I8
I-1
I1
tp350
a(I0
I-1
I-2
I0
I10
I-12
I-7
I-7
tp351
a(I-5
I-8
I-10
I-8
I18
I10
I-10
I-1
tp352
a(I-1
I1
I2
I2
I-16
I10
I3
I-2
tp353
a(I-5
I-8
I-4
I7
I7
I26
I12
I-1
tp354
a(I-3
I-5
I-2
I11
I30
I25
I11
I-3
tp355
a(I10
I9
I5
I3
I-1
I-13
I-11
I16
tp356
a(I-2
I-1
I2
I-7
I17
I23
I1
I-8
tp357
a(I-10
I-20
I-12
I14
I40
I-2
I-2
I3
tp358
a(I12
I18
I22
I13
I-35
I-34
I2
I2
tp359
a(I1
I0
I-5
I-9
I2
I1
I6
I-3
tp360
a(I-5
I-8
I-10
I-9
I1
I11
I2
I-4
tp361
a(I3
I5
I7
I2
I1
I-13
I0
I-2
tp362
a(I6
I12
I10
I2
I-9
I-20
I-4
I4
tp363
a(I12
I30
I27
I8
I-34
I-34
I-6
I2
tp364
a(I-4
I-7
I-8
I-11
I1
I-7
I-5
I-4
tp365
a(I-9
I-12
I-13
I-16
I-7
I3
I-4
I-6
tp366
a(I8
I6
I6
I11
I-1
I-14
I3
I13
tp367
a(I10
I15
I20
I17
I4
I-11
I2
I14
tp368
a(I-6
I-5
I-6
I-10
I-10
I8
I1
I-2
tp369
a(I-5
I-2
I-4
I-4
I-3
I-2
I-6
I-38
tp370
a(I7
I13
I17
I17
I15
I0
I5
I18
tp371
a(I-10
I-16
I-22
I-26
I-14
I-20
I-7
I-9
tp372
a(I-7
I-5
I-10
I-25
I-14
I-3
I-7
I-14
tp373
a(I-1
I-3
I7
I35
I24
I36
I12
I3
tp374
a(I6
I9
I17
I31
I28
I24
I16
I9
tp375
a(I0
I-1
I-2
I-8
I24
I-4
I3
I2
tp376
a(I-1
I-3
I-5
I4
I11
I-3
I-6
I-5
tp377
a(I0
I-1
I-2
I-1
I-10
I2
I8
I2
tp378
a(I-4
I-5
I-8
I1
I4
I3
I-11
I-8
tp379
a(I-6
I-8
I-9
I-17
I-14
I1
I-5
I1
tp380
a(I-1
I-2
I-7
I-14
I-15
I-24
I-6
I-5
tp381
a(I-4
I-6
I-11
I-15
I-1
I17
I6
I-4
tp382
a(I-3
I-3
I-5
I0
I-15
I-31
I-24
I-23
tp383
a(I8
I6
I5
I-9
I-10
I-19
I1
I37
tp384
a(I-15
I-25
I-30
I-33
I-58
I-4
I-10
I11
tp385
a(I7
I11
I17
I17
I35
I0
I8
I5
tp386
a(I-11
I-15
I-10
I4
I4
I17
I-9
I-17
tp387
a(I10
I13
I12
I11
I4
I-1
I8
I11
tp388
a(I-5
I-8
I-8
I-4
I16
I6
I0
I-8
tp389
a(I0
I0
I2
I2
I-8
I1
I-2
I-1
tp390
a(I0
I-3
I-3
I0
I1
I5
I13
I6
tp391
a(I-7
I-10
I-10
I-10
I-10
I3
I-10
I-9
tp392
a(I12
I19
I20
I14
I-5
I-28
I6
I13
tp393
a(I-5
I-8
I-8
I-4
I-14
I16
I3
I-7
tp394
a(I8
I10
I16
I14
I20
I-34
I-1
I-1
tp395
a(I-5
I-10
I-8
I-10
I-17
I-2
I-10
I-2
tp396
a(I11
I19
I26
I26
I17
I-12
I6
I29
tp397
a(I3
I4
I3
I-6
I-23
I-22
I-1
I1
tp398
a(I-9
I-9
I-14
I-23
I-32
I-27
I-23
I-12
tp399
a(I0
I-2
I-5
I-7
I2
I11
I1
I-2
tp400
a(I-13
I-20
I-22
I-5
I-1
I19
I-3
I-13
tp401
a(I1
I2
I-1
I-5
I15
I-15
I-9
I3
tp402
a(I-1
I-1
I5
I10
I9
I31
I11
I1
tp403
a(I1
I5
I2
I-5
I-10
I-11
I-2
I-2
tp404
a(I-1
I-2
I-4
I-11
I-19
I-1
I-13
I-6
tp405
a(I-4
I-5
I-7
I-16
I-11
I9
I-3
I-3
tp406
a(I-5
I-9
I-7
I10
I10
I0
I-3
I-7
tp407
a(I-4
I-6
I-1
I1
I6
I9
I-1
I0
tp408
a(I-1
I-4
I2
I15
I26
I32
I12
I6
tp409
a(I14
I25
I27
I12
I-9
I-41
I-9
I8
tp410
a(I0
I0
I-6
I-9
I-6
I1
I3
I-1
tp411
a(I-2
I-4
I-5
I-4
I-2
I2
I-2
I-3
tp412
a(I-7
I-7
I-17
I-37
I-48
I-32
I-16
I-5
tp413
a(I-7
I-14
I-14
I-7
I1
I10
I0
I-3
tp414
a(I-5
I-8
I-8
I-9
I-3
I2
I-3
I-9
tp415
a(I0
I1
I6
I12
I15
I-1
I3
I5
tp416
a(I2
I6
I4
I0
I-1
I-8
I-1
I0
tp417
a(I-1
I-3
I-3
I-4
I-7
I5
I1
I-1
tp418
a(I1
I2
I1
I-9
I-36
I-9
I0
I-1
tp419
a(I-6
I-9
I-12
I-5
I18
I-2
I-8
I-6
tp420
a(I-1
I-4
I-3
I-1
I12
I2
I4
I1
tp421
a(I2
I2
I4
I7
I2
I7
I1
I1
tp422
a(I-7
I-12
I-12
I-3
I8
I27
I1
I-6
tp423
a(I6
I11
I6
I-2
I37
I-12
I-4
I1
tp424
a(I-2
I-1
I-3
I-8
I-16
I-6
I-1
I-1
tp425
a(I1
I3
I3
I-4
I-15
I-4
I1
I0
tp426
a(I2
I5
I1
I-3
I2
I-3
I-1
I0
tp427
a(I-11
I-16
I-18
I-14
I-18
I14
I-2
I-6
tp428
a(I-2
I0
I1
I3
I10
I11
I0
I-2
tp429
a(I-2
I-4
I-4
I-6
I2
I-4
I-1
I-1
tp430
a(I3
I4
I6
I4
I7
I-2
I7
I4
tp431
a(I-5
I-8
I-8
I-5
I-7
I5
I-2
I-3
tp432
a(I2
I1
I1
I0
I-3
I-2
I2
I1
tp433
a(I-3
I-11
I-9
I1
I10
I10
I-1
I-1
tp434
a(I-8
I-8
I-14
I-18
I-24
I16
I-2
I-5
tp435
a(I3
I16
I19
I11
I22
I-26
I-6
I0
tp436
a(I5
I10
I17
I11
I9
I-6
I0
I1
tp437
a(I1
I6
I8
I3
I7
I5
I2
I-1
tp438
a(I-6
I-12
I-10
I1
I4
I9
I2
I-1
tp439
a(I-11
I-39
I-14
I-11
I-19
I5
I-1
I-1
tp440
a(I20
I-14
I-11
I-9
I0
I-1
I-4
I-1
tp441
a(I-3
I81
I6
I3
I6
I8
I2
I-1
tp442
a(I3
I19
I25
I13
I7
I-10
I0
I0
tp443
a(I-3
I15
I4
I0
I-3
I-3
I2
I1
tp444
a(I-8
I-24
I-3
I-8
I-7
I-12
I-4
I-3
tp445
a(I-4
I-45
I-14
I3
I-8
I12
I1
I-2
tp446
a(I7
I13
I-12
I-2
I12
I-6
I-2
I-2
tp447
a(I5
I-6
I4
I6
I-8
I-2
I1
I1
tp448
a(I-9
I7
I8
I-3
I-4
I4
I1
I1
tp449
a(I-4
I-18
I-3
I-2
I1
I2
I0
I-1
tp450
a(I-5
I-6
I1
I-1
I2
I-10
I-2
I0
tp451
a(I3
I-8
I-6
I-2
I-2
I6
I0
I2
tp452
a(I-3
I4
I-9
I-4
I-9
I0
I0
I-1
tp453
a(I-8
I-3
I1
I0
I4
I1
I-1
I-2
tp454
a(I2
I-29
I-12
I-16
I-4
I-7
I0
I3
tp455
a(I2
I16
I14
I16
I-3
I14
I-2
I-4
tp456
a(I15
I-37
I11
I12
I7
I-6
I3
I4
tp457
a(I-22
I6
I-29
I-28
I-14
I-6
I-1
I1
tp458
a(I-46
I-28
I-6
I-13
I-5
I-1
I-10
I-16
tp459
a(I31
I21
I28
I28
I20
I5
I5
I4
tp460
a(I0
I-8
I-25
I3
I-4
I-4
I-2
I-2
tp461
a(I0
I9
I12
I-1
I-9
I2
I1
I-1
tp462
a(I2
I-20
I-6
I-4
I-5
I0
I1
I2
tp463
a(I-11
I-29
I-17
I-18
I-15
I-1
I-4
I-4
tp464
a(I-6
I11
I-5
I-16
I2
I0
I-2
I0
tp465
a(I4
I-15
I14
I27
I20
I5
I-1
I-3
tp466
a(I-4
I21
I-3
I2
I7
I-2
I1
I2
tp467
a(I2
I-20
I0
I-2
I-1
I-2
I-2
I-5
tp468
a(I-7
I-5
I-1
I-12
I-13
I-1
I-9
I-11
tp469
a(I-5
I-6
I9
I24
I9
I0
I0
I-2
tp470
a(I-3
I-2
I-2
I-4
I-5
I-2
I1
I-1
tp471
a(I5
I-16
I-6
I-7
I-8
I7
I-2
I-2
tp472
a(I-15
I-20
I-11
I-19
I-10
I8
I0
I2
tp473
a(I2
I46
I13
I15
I7
I7
I0
I2
tp474
a(I12
I14
I6
I7
I2
I5
I1
I2
tp475
a(I2
I14
I6
I10
I5
I3
I-2
I-1
tp476
a(I9
I9
I5
I-4
I-9
I5
I3
I4
tp477
a(I-10
I-50
I-25
I-18
I-9
I2
I-3
I-1
tp478
a(I-10
I6
I13
I2
I-5
I9
I-6
I-7
tp479
a(I12
I18
I3
I2
I0
I4
I4
I6
tp480
a(I-6
I4
I4
I6
I-4
I-14
I-3
I-4
tp481
a(I-9
I-13
I-12
I-15
I-6
I-10
I-5
I-5
tp482
a(I6
I15
I5
I19
I5
I-7
I1
I2
tp483
a(I-3
I-11
I-4
I-7
I-7
I-17
I0
I0
tp484
a(I-3
I-1
I-6
I0
I4
I-7
I2
I-1
tp485
a(I-4
I-4
I2
I-3
I-4
I0
I-2
I-3
tp486
a(I6
I13
I1
I-1
I2
I2
I3
I4
tp487
a(I-4
I-6
I-7
I-6
I-3
I-3
I-1
I-2
tp488
a(I-2
I-7
I-3
I3
I5
I-10
I-8
I-3
tp489
a(I-1
I0
I4
I12
I-1
I-4
I3
I1
tp490
a(I1
I7
I-1
I-17
I0
I11
I-2
I-1
tp491
a(I-1
I-12
I-4
I-1
I12
I0
I1
I-2
tp492
a(I2
I1
I-4
I1
I6
I-2
I0
I1
tp493
a(I-1
I-11
I-7
I0
I-7
I-3
I-1
I-1
tp494
a(I-1
I2
I1
I4
I-4
I1
I2
I0
tp495
a(I-3
I0
I1
I0
I2
I15
I1
I-1
tp496
a(I4
I0
I-2
I-4
I-11
I-6
I2
I-1
tp497
a(I-1
I-1
I2
I10
I29
I4
I-4
I-3
tp498
a(I-3
I-1
I-8
I-42
I-40
I-8
I-2
I-2
tp499
a(I-4
I-6
I-5
I4
I4
I-1
I-4
I-1
tp500
a(I0
I1
I-3
I-3
I-2
I4
I0
I1
tp501
a(I-2
I-5
I-2
I9
I1
I-9
I2
I0
tp502
a(I1
I2
I3
I9
I-6
I3
I1
I2
tp503
a(I2
I5
I9
I-20
I6
I8
I0
I0
tp504
a(I-2
I-5
I1
I30
I4
I4
I1
I-1
tp505
a(I-1
I-5
I-15
I-35
I-14
I-3
I-2
I-2
tp506
a(I2
I2
I10
I11
I27
I-2
I0
I0
tp507
a(I-2
I-1
I0
I1
I-12
I-6
I1
I0
tp508
a(I-1
I-5
I-7
I-10
I10
I3
I-1
I0
tp509
a(I-1
I-1
I3
I13
I-4
I-4
I-1
I-3
tp510
a(I-1
I-3
I-5
I5
I11
I-1
I0
I0
tp511
a(I1
I-2
I-1
I-11
I-1
I-1
I-1
I-1
tp512
a(I-2
I0
I1
I4
I11
I7
I-4
I-2
tp513
a(I-2
I0
I-2
I4
I-19
I-24
I-7
I-2
tp514
a(I-2
I1
I-2
I-7
I6
I9
I-1
I-2
tp515
a(I-1
I-2
I-2
I-3
I-13
I-7
I-2
I-1
tp516
a(I0
I2
I3
I2
I-11
I5
I0
I0
tp517
a(I2
I-4
I0
I-3
I-13
I0
I-2
I0
tp518
a(I1
I2
I3
I13
I-3
I3
I3
I-2
tp519
a(I-1
I-1
I-2
I-13
I3
I5
I1
I1
tp520
a(I-2
I-1
I-2
I-12
I-6
I-7
I0
I-1
tp521
a(I-1
I1
I2
I-4
I13
I4
I-1
I-1
tp522
a(I-1
I-2
I-3
I-4
I12
I0
I1
I-2
tp523
a(I1
I0
I5
I15
I-3
I11
I3
I-1
tp524
a(I0
I0
I-5
I7
I-5
I-10
I-2
I-1
tp525
a(I-2
I-4
I-4
I-7
I-3
I0
I-2
I-1
tp526
a(I-2
I-1
I0
I0
I18
I0
I-1
I-2
tp527
a(I0
I1
I-1
I4
I5
I4
I1
I0
tp528
a(I0
I1
I-1
I-5
I14
I1
I-1
I0
tp529
a(I-1
I1
I2
I0
I-6
I-4
I-1
I-1
tp530
a(I-1
I-2
I-5
I-9
I-6
I-6
I1
I0
tp531
a(I-2
I-3
I-5
I-3
I1
I6
I-1
I-1
tp532
a(I2
I3
I6
I5
I-13
I-8
I-2
I0
tp533
a(I0
I-4
I-5
I0
I2
I4
I-2
I-1
tp534
a(I0
I0
I-2
I-30
I-8
I-5
I-1
I-1
tp535
a(I-2
I-2
I0
I-2
I7
I0
I-4
I-2
tp536
a(I0
I3
I1
I0
I-11
I-1
I0
I-1
tp537
a(I0
I1
I3
I16
I-1
I-1
I-2
I0
tp538
a(I-1
I-3
I-8
I0
I24
I5
I2
I1
tp539
a(I-2
I-4
I-2
I-6
I-39
I-6
I0
I-2
tp540
a(I-1
I-1
I0
I8
I-10
I3
I-2
I-1
tp541
a(I1
I1
I-1
I-1
I3
I-2
I0
I-2
tp542
a(I-3
I-2
I-2
I5
I4
I-5
I-3
I-1
tp543
a(I-1
I-2
I-3
I-7
I-8
I7
I2
I0
tp544
a(I-2
I-1
I4
I16
I7
I1
I-2
I-3
tp545
a(I-3
I0
I-2
I-20
I3
I-4
I0
I-1
tp546
a(I0
I0
I3
I3
I-2
I2
I-1
I0
tp547
a(I1
I1
I-3
I-7
I5
I0
I-1
I-1
tp548
a(I-2
I-2
I-1
I5
I-3
I-2
I-3
I0
tp549
a(I-4
I-1
I-1
I4
I-8
I-2
I-2
I-2
tp550
a(I0
I-2
I-1
I-4
I6
I-2
I0
I-2
tp551
a(I1
I5
I6
I2
I-9
I-2
I-1
I0
tp552
a(I-4
I-3
I-3
I-3
I-3
I-17
I-6
I-4
tp553
a(I-2
I-3
I1
I17
I12
I11
I0
I-1
tp554
a(I0
I-1
I-4
I-26
I-42
I-21
I-4
I-1
tp555
a(I1
I-1
I-1
I-1
I8
I3
I1
I-1
tp556
a(I-2
I-3
I-1
I-3
I-8
I-2
I-2
I-1
tp557
a(I0
I0
I-4
I-5
I9
I-1
I0
I1
tp558
a(I0
I0
I6
I18
I7
I1
I-2
I-1
tp559
a(I-1
I0
I-3
I-4
I-3
I-4
I-1
I0
tp560
a(I2
I5
I3
I5
I7
I2
I2
I0
tp561
a(I-2
I-3
I-1
I4
I-8
I-6
I-2
I-2
tp562
a(I-1
I-1
I0
I-2
I14
I8
I1
I0
tp563
a(I0
I0
I-6
I-10
I-14
I-6
I-4
I0
tp564
a(I1
I-2
I-2
I1
I-2
I1
I-1
I0
tp565
a(I-2
I-1
I1
I5
I-18
I3
I0
I-1
tp566
a(I-3
I-2
I-7
I-9
I9
I-11
I-5
I-4
tp567
a(I-1
I-1
I-2
I-4
I0
I0
I-2
I-1
tp568
a(I1
I1
I-1
I8
I-4
I-2
I-1
I-1
tp569
a(I1
I3
I5
I-18
I0
I-13
I1
I0
tp570
a(I-2
I-2
I-5
I-6
I-3
I26
I3
I1
tp571
a(I-1
I-3
I-1
I-3
I11
I-7
I-1
I-3
tp572
a(I-1
I0
I2
I6
I-22
I-6
I-3
I0
tp573
a(I0
I-2
I-3
I5
I14
I2
I-2
I-2
tp574
a(I-2
I-1
I-1
I-4
I-19
I-18
I-2
I-3
tp575
a(I-3
I-1
I-5
I-3
I10
I2
I0
I0
tp576
a(I2
I0
I1
I-6
I-2
I-3
I0
I-2
tp577
a(I1
I2
I1
I3
I-14
I3
I-1
I0
tp578
a(I-4
I-2
I-5
I-8
I2
I-6
I-1
I0
tp579
a(I-1
I-2
I-3
I4
I8
I0
I-2
I0
tp580
a(I-2
I-3
I-2
I24
I3
I4
I-1
I0
tp581
a(I-1
I-1
I-2
I-24
I-4
I-9
I-1
I0
tp582
a(I-2
I-3
I-3
I-14
I-1
I5
I0
I-1
tp583
a(I0
I3
I5
I10
I-7
I-11
I-2
I1
tp584
a(I-1
I0
I-3
I-10
I13
I18
I2
I1
tp585
a(I-1
I-1
I0
I15
I2
I3
I-1
I-2
tp586
a(I-2
I-2
I-4
I1
I2
I1
I-1
I-2
tp587
a(I-1
I-2
I1
I2
I6
I3
I-1
I0
tp588
a(I0
I1
I2
I3
I23
I-3
I-11
I-3
tp589
a(I0
I-2
I-2
I-4
I-1
I3
I-3
I-2
tp590
a(I-1
I1
I-2
I9
I-1
I-2
I-1
I-1
tp591
a(I1
I-1
I-2
I-6
I-13
I11
I2
I1
tp592
a(I0
I11
I6
I3
I6
I-11
I-2
I-1
tp593
a(I0
I-6
I5
I10
I-21
I-11
I2
I2
tp594
a(I-4
I-4
I-5
I-14
I-1
I16
I-2
I-1
tp595
a(I-3
I-4
I-3
I3
I7
I-4
I-2
I-2
tp596
a(I0
I-2
I-1
I7
I-8
I2
I3
I0
tp597
a(I0
I-1
I0
I0
I17
I11
I3
I0
tp598
a(I3
I1
I0
I-4
I-22
I-15
I5
I0
tp599
a(I0
I3
I2
I0
I-12
I7
I2
I1
tp600
a(I-2
I-4
I-1
I0
I4
I3
I1
I-2
tp601
a(I1
I2
I4
I2
I-10
I-3
I1
I-1
tp602
a(I1
I-2
I-5
I-6
I-18
I4
I-1
I0
tp603
a(I-3
I-1
I-5
I-4
I-2
I4
I-1
I-1
tp604
a(I-3
I-3
I-3
I-6
I10
I-10
I-3
I0
tp605
a(I-2
I0
I0
I3
I-5
I6
I7
I1
tp606
a(I-1
I2
I10
I10
I0
I2
I3
I1
tp607
a(I-1
I-5
I-9
I-13
I4
I-3
I-5
I-2
tp608
a(I1
I2
I8
I1
I-12
I-2
I4
I-1
tp609
a(I-3
I-5
I-6
I-9
I-3
I-11
I-4
I-2
tp610
a(I0
I-3
I2
I11
I-10
I-3
I-4
I-1
tp611
a(I-1
I1
I-6
I-3
I18
I5
I3
I1
tp612
a(I-2
I-4
I-7
I-6
I-1
I8
I6
I0
tp613
a(I-2
I-4
I-2
I-3
I44
I14
I-11
I-4
tp614
a(I-1
I-8
I-13
I-10
I-16
I-8
I-4
I1
tp615
a(I10
I29
I5
I8
I27
I-4
I-19
I-1
tp616
a(I-6
I-10
I8
I1
I-21
I-7
I5
I-1
tp617
a(I20
I-3
I-2
I2
I29
I-5
I2
I-1
tp618
a(I-13
I0
I-5
I0
I7
I27
I15
I1
tp619
a(I-2
I6
I-11
I-6
I5
I1
I-24
I-5
tp620
a(I4
I-3
I-2
I-5
I-12
I9
I2
I2
tp621
a(I-6
I-13
I13
I12
I5
I13
I12
I0
tp622
a(I33
I35
I4
I5
I18
I19
I9
I5
tp623
a(I-10
I37
I-13
I-9
I-2
I3
I13
I4
tp624
a(I-6
I-29
I-1
I-5
I-29
I-2
I-2
I5
tp625
a(I30
I22
I23
I20
I27
I-49
I-32
I-2
tp626
a(I13
I-3
I-23
I-20
I35
I3
I-14
I-5
tp627
a(I-6
I6
I-16
I-4
I8
I33
I17
I8
tp628
a(I-13
I5
I-9
I-9
I-38
I-32
I-19
I-16
tp629
a(I3
I27
I-7
I-7
I-16
I44
I18
I5
tp630
a(I21
I33
I3
I7
I73
I-2
I-2
I10
tp631
a(I-33
I-88
I22
I15
I-40
I-23
I-17
I-22
tp632
a(I39
I8
I14
I6
I32
I-46
I-15
I-8
tp633
a(I-78
I-68
I-93
I-46
I-69
I-18
I-1
I-21
tp634
a(I-40
I-45
I91
I42
I6
I-63
I1
I-4
tp635
a(I34
I22
I-25
I-14
I-27
I-13
I-7
I12
tp636
a(I41
I-19
I-57
I-37
I-13
I3
I1
I7
tp637
a(I-9
I61
I57
I27
I-10
I-49
I-39
I-28
tp638
a(I-37
I-33
I5
I15
I43
I28
I-7
I8
tp639
a(I9
I-5
I-35
I-23
I-27
I-31
I-3
I0
tp640
a(I18
I19
I11
I8
I-26
I12
I2
I-6
tp641
a(I63
I27
I-41
I-26
I-3
I14
I-10
I5
tp642
a(I-36
I-18
I33
I14
I-49
I16
I3
I-6
tp643
a(I-50
I-62
I18
I9
I23
I-49
I10
I1
tp644
a(I30
I52
I-27
I-14
I-14
I-83
I-49
I-11
tp645
a(I-8
I-29
I-19
I-8
I-2
I76
I37
I13
tp646
a(I26
I-2
I19
I8
I8
I-34
I6
I1
tp647
a(I33
I-21
I35
I17
I-10
I18
I23
I9
tp648
a(I57
I44
I-22
I-12
I-32
I-37
I-7
I18
tp649
a(I-16
I-31
I-12
I-7
I24
I64
I11
I-1
tp650
a(I23
I53
I56
I31
I13
I29
I19
I6
tp651
a(I3
I51
I-5
I-6
I-19
I-49
I1
I-3
tp652
a(I-10
I-6
I-22
I-12
I29
I21
I1
I2
tp653
a(I-18
I-7
I-25
I-17
I-8
I-11
I-17
I-22
tp654
a(I-14
I-63
I2
I6
I-6
I27
I15
I4
tp655
a(I-82
I-7
I-19
I-14
I-26
I14
I-20
I-32
tp656
a(I48
I54
I22
I12
I11
I-26
I3
I9
tp657
a(I16
I44
I-4
I-3
I31
I-14
I-1
I0
tp658
a(I-20
I-48
I-8
I0
I16
I28
I2
I-2
tp659
a(I-30
I-63
I-3
I-7
I-55
I-40
I-1
I-1
tp660
a(I-36
I-24
I-2
I3
I-14
I-7
I5
I-8
tp661
a(I-1
I-14
I13
I9
I42
I40
I4
I5
tp662
a(I5
I-5
I-33
I-19
I-35
I0
I-2
I2
tp663
a(I21
I42
I51
I25
I14
I-16
I-7
I11
tp664
a(I-75
I-84
I1
I5
I-22
I-9
I3
I-10
tp665
a(I-5
I53
I27
I17
I9
I-40
I11
I-3
tp666
a(I-9
I-15
I-20
I-12
I5
I-26
I-21
I-10
tp667
a(I-30
I19
I-24
I-13
I19
I52
I-14
I-13
tp668
a(I18
I-28
I6
I7
I31
I3
I-9
I-1
tp669
a(I37
I17
I0
I3
I-6
I1
I26
I15
tp670
a(I-17
I-3
I24
I15
I38
I47
I15
I-3
tp671
a(I-3
I-32
I-7
I-1
I-12
I-18
I-5
I-6
tp672
a(I13
I64
I1
I-8
I-29
I-27
I3
I9
tp673
a(I6
I-50
I15
I10
I-10
I-56
I-8
I2
tp674
a(I1
I16
I-9
I-8
I21
I81
I0
I-3
tp675
a(I-13
I0
I-36
I-20
I13
I-1
I-3
I4
tp676
a(I8
I7
I30
I20
I-26
I8
I9
I5
tp677
a(I-58
I23
I-11
I-15
I-21
I-47
I3
I-8
tp678
a(I53
I66
I-5
I-8
I2
I-28
I-5
I6
tp679
a(I20
I8
I15
I9
I10
I-16
I9
I8
tp680
a(I-38
I-98
I-15
I-6
I16
I8
I-10
I-4
tp681
a(I47
I18
I3
I6
I-8
I65
I0
I10
tp682
a(I49
I50
I6
I6
I-4
I-25
I5
I12
tp683
a(I11
I21
I16
I0
I14
I27
I-12
I-6
tp684
a(I1
I37
I-35
I-15
I-7
I59
I20
I7
tp685
a(I3
I-31
I10
I3
I-10
I-5
I-1
I-4
tp686
a(I-8
I-9
I12
I2
I6
I2
I8
I-1
tp687
a(I9
I-17
I-30
I-18
I40
I-6
I-17
I-2
tp688
a(I-2
I5
I-8
I0
I-13
I1
I14
I3
tp689
a(I0
I-67
I14
I9
I-5
I-11
I7
I-4
tp690
a(I-24
I59
I-5
I1
I4
I36
I-9
I-4
tp691
a(I-27
I-17
I-10
I-9
I23
I13
I5
I-5
tp692
a(I-24
I-82
I16
I10
I-3
I-18
I9
I-1
tp693
a(I11
I15
I-20
I0
I31
I-10
I-17
I8
tp694
a(I-58
I-68
I41
I23
I-29
I7
I-1
I-3
tp695
a(I49
I71
I-8
I-7
I-21
I-10
I-7
I4
tp696
a(I11
I-1
I-23
I-8
I17
I8
I-13
I1
tp697
a(I-13
I-42
I32
I16
I-9
I-9
I6
I-2
tp698
a(I15
I21
I13
I15
I48
I93
I-8
I3
tp699
a(I9
I23
I-32
I-26
I-27
I-33
I-3
I-3
tp700
a(I-10
I-3
I3
I4
I9
I13
I-1
I-8
tp701
a(I-16
I-39
I2
I9
I-24
I0
I22
I-3
tp702
a(I-11
I-2
I-15
I-23
I-58
I-46
I-2
I4
tp703
a(I29
I-2
I27
I17
I5
I18
I-15
I2
tp704
a(I-4
I45
I-9
I-6
I12
I-4
I-11
I-20
tp705
a(I-12
I-11
I-23
I-12
I-44
I-67
I-17
I-12
tp706
a(I-7
I4
I7
I9
I-12
I-75
I0
I-4
tp707
a(I-24
I-22
I5
I-6
I-1
I30
I1
I-4
tp708
a(I-36
I-39
I13
I11
I-35
I-55
I-19
I-20
tp709
a(I-46
I-24
I-7
I4
I16
I-11
I1
I-5
tp710
a(I65
I30
I-10
I-15
I25
I29
I-1
I6
tp711
a(I32
I5
I-9
I-9
I-36
I-33
I-11
I-7
tp712
a(I21
I-7
I9
I5
I35
I33
I-11
I-1
tp713
a(I20
I-5
I-5
I-2
I20
I2
I12
I0
tp714
a(I-17
I19
I-11
I-2
I-52
I-10
I-3
I-6
tp715
a(I-28
I-26
I8
I4
I12
I-13
I-2
I-1
tp716
a(I20
I-6
I-7
I0
I9
I-10
I9
I3
tp717
a(I-9
I8
I6
I2
I-10
I-11
I-6
I-9
tp718
a(I-5
I-34
I-18
I-22
I-26
I-54
I-12
I-3
tp719
a(I-18
I-22
I13
I7
I-6
I7
I4
I-3
tp720
a(I17
I-17
I-12
I-2
I1
I5
I15
I7
tp721
a(I-7
I4
I24
I15
I20
I2
I-7
I3
tp722
a(I-52
I6
I7
I0
I5
I2
I-13
I-5
tp723
a(I34
I-13
I-7
I-7
I-23
I-6
I2
I3
tp724
a(I22
I25
I14
I12
I58
I34
I5
I-3
tp725
a(I5
I1
I2
I2
I-18
I-36
I-12
I1
tp726
a(I7
I-14
I-23
I-15
I-8
I4
I-5
I4
tp727
a(I-41
I-23
I4
I1
I-37
I-14
I-11
I-5
tp728
a(I8
I8
I21
I21
I-7
I-66
I3
I7
tp729
a(I2
I-14
I-3
I4
I25
I39
I5
I2
tp730
a(I10
I36
I0
I-9
I5
I-2
I6
I2
tp731
a(I4
I-15
I-3
I-7
I-20
I-5
I13
I5
tp732
a(I39
I-5
I-10
I-3
I-17
I-17
I8
I9
tp733
a(I-14
I15
I10
I6
I11
I19
I-15
I-9
tp734
a(I27
I9
I-12
I-11
I22
I25
I1
I6
tp735
a(I7
I28
I-5
I0
I-7
I15
I3
I3
tp736
a(I12
I6
I-4
I-4
I19
I12
I4
I0
tp737
a(I-19
I-7
I11
I13
I32
I6
I4
I5
tp738
a(I9
I14
I-3
I-6
I-16
I15
I3
I0
tp739
a(I2
I0
I-7
I-5
I-12
I-30
I-2
I-1
tp740
a(I11
I10
I-3
I-3
I7
I36
I8
I4
tp741
a(I-12
I-7
I2
I2
I-27
I-15
I2
I-2
tp742
a(I-3
I-11
I1
I-1
I-1
I4
I-3
I2
tp743
a(I29
I2
I-6
I-6
I7
I5
I-5
I3
tp744
a(I-11
I-7
I-6
I-4
I16
I18
I6
I1
tp745
a(I-37
I-19
I-7
I-6
I-14
I21
I-2
I-3
tp746
a(I6
I24
I4
I3
I-1
I-9
I-1
I-1
tp747
a(I9
I6
I-14
I-7
I5
I-8
I5
I2
tp748
a(I8
I-3
I13
I2
I-26
I7
I4
I5
tp749
a(I-6
I5
I-1
I5
I16
I17
I0
I-1
tp750
a(I0
I-7
I-4
I-9
I9
I-21
I-9
I-7
tp751
a(I-5
I18
I-1
I-2
I1
I-1
I-1
I2
tp752
a(I-3
I-4
I-4
I2
I28
I18
I2
I1
tp753
a(I-13
I-2
I-10
I-10
I-8
I1
I-7
I-10
tp754
a(I-7
I-6
I16
I14
I8
I29
I-3
I-4
tp755
a(I3
I-2
I-4
I-1
I-8
I0
I0
I-1
tp756
a(I0
I5
I-3
I-4
I-12
I-5
I-3
I-2
tp757
a(I-3
I6
I-1
I2
I10
I4
I2
I0
tp758
a(I0
I6
I-1
I0
I-13
I-22
I-6
I-1
tp759
a(I-2
I-4
I4
I1
I-4
I3
I4
I3
tp760
a(I-11
I-1
I-2
I-3
I-2
I-8
I-4
I-4
tp761
a(I0
I4
I-1
I1
I2
I1
I3
I1
tp762
a(I6
I0
I-2
I-3
I0
I-1
I3
I2
tp763
a(I6
I2
I-2
I-4
I15
I-6
I-4
I1
tp764
a(I-23
I-11
I0
I0
I-14
I1
I-7
I-9
tp765
a(I2
I0
I-5
I-2
I6
I-3
I-2
I-1
tp766
a(I5
I5
I-1
I-2
I-3
I-1
I0
I0
tp767
a(I-8
I-7
I5
I4
I15
I4
I4
I-1
tp768
a(I-4
I-4
I0
I3
I2
I19
I-9
I-6
tp769
a(I2
I4
I2
I17
I-18
I-7
I2
I1
tp770
a(I-3
I-4
I-5
I-40
I6
I7
I-1
I-1
tp771
a(I0
I0
I-6
I-12
I5
I-48
I-11
I-3
tp772
a(I-3
I-5
I-4
I-1
I-11
I-17
I2
I1
tp773
a(I1
I3
I8
I10
I-36
I-26
I-10
I-1
tp774
a(I3
I4
I5
I15
I12
I27
I-1
I0
tp775
a(I-4
I-8
I3
I-4
I-8
I10
I3
I-1
tp776
a(I-1
I-1
I-7
I-6
I-9
I5
I0
I0
tp777
a(I-4
I-2
I-5
I-3
I13
I6
I1
I-1
tp778
a(I-3
I-1
I10
I26
I-5
I-15
I0
I1
tp779
a(I0
I-2
I-8
I-31
I-13
I30
I-1
I-2
tp780
a(I0
I-4
I-4
I0
I8
I-3
I1
I1
tp781
a(I-2
I3
I-3
I-3
I-2
I11
I4
I-1
tp782
a(I4
I9
I16
I22
I-20
I2
I-4
I2
tp783
a(I-2
I-4
I-7
I-36
I11
I-5
I1
I-1
tp784
a(I-2
I0
I-2
I11
I-3
I-2
I-3
I-2
tp785
a(I-3
I-2
I0
I-6
I-12
I-16
I-2
I0
tp786
a(I-2
I-5
I-10
I-11
I3
I-2
I2
I-1
tp787
a(I-2
I-2
I-2
I2
I-16
I19
I-2
I-2
tp788
a(I1
I-2
I-1
I3
I-12
I9
I0
I1
tp789
a(I0
I-2
I5
I16
I14
I-17
I-4
I-2
tp790
a(I1
I0
I-2
I-6
I11
I7
I-1
I-1
tp791
a(I0
I0
I2
I7
I6
I7
I3
I2
tp792
a(I-2
I-2
I-2
I-4
I-6
I-7
I-1
I-1
tp793
a(I0
I3
I1
I-6
I-1
I-10
I-3
I0
tp794
a(I-1
I0
I0
I-1
I-4
I-3
I-1
I-2
tp795
a(I-1
I-1
I-3
I6
I5
I-13
I-3
I0
tp796
a(I2
I5
I4
I22
I12
I15
I4
I2
tp797
a(I-1
I-4
I-5
I-34
I-18
I0
I0
I0
tp798
a(I-1
I2
I4
I-18
I-5
I-24
I-9
I-3
tp799
a(I0
I-6
I-6
I14
I-5
I3
I2
I0
tp800
a(I1
I1
I4
I-6
I14
I-5
I0
I0
tp801
a(I0
I6
I12
I28
I-12
I2
I-2
I0
tp802
a(I-1
I-3
I-8
I-6
I-4
I-5
I1
I2
tp803
a(I-2
I-1
I-1
I6
I17
I-21
I-7
I-5
tp804
a(I-2
I1
I1
I0
I-28
I-13
I0
I-1
tp805
a(I-2
I-2
I-4
I1
I32
I3
I-1
I-2
tp806
a(I-1
I-1
I0
I0
I2
I-16
I-1
I-1
tp807
a(I1
I1
I1
I2
I-10
I0
I1
I-1
tp808
a(I1
I0
I0
I4
I6
I6
I0
I-1
tp809
a(I-1
I0
I2
I0
I-13
I11
I0
I0
tp810
a(I1
I0
I-4
I-6
I-4
I-9
I-1
I0
tp811
a(I-7
I-8
I0
I5
I8
I-6
I-4
I-7
tp812
a(I-1
I-4
I-9
I-4
I0
I9
I1
I1
tp813
a(I0
I2
I3
I-7
I-3
I3
I-1
I0
tp814
a(I1
I0
I1
I-1
I-4
I5
I2
I1
tp815
a(I1
I1
I-3
I2
I4
I-12
I-1
I-1
tp816
a(I-2
I-4
I-15
I-51
I-8
I6
I-3
I-2
tp817
a(I3
I5
I9
I13
I-1
I0
I0
I1
tp818
a(I0
I-1
I1
I5
I10
I-3
I0
I-1
tp819
a(I1
I0
I-2
I-3
I-6
I1
I1
I0
tp820
a(I-2
I-1
I5
I20
I1
I-3
I-1
I-2
tp821
a(I-1
I-5
I-14
I-20
I10
I-10
I-2
I1
tp822
a(I0
I2
I8
I3
I-1
I5
I-3
I-2
tp823
a(I1
I0
I4
I4
I6
I9
I2
I-1
tp824
a(I-2
I-1
I0
I5
I-7
I1
I0
I0
tp825
a(I-1
I0
I-3
I-4
I7
I-6
I-1
I0
tp826
a(I-1
I0
I0
I2
I-13
I20
I2
I0
tp827
a(I-1
I0
I-2
I-3
I-6
I-28
I-4
I1
tp828
a(I0
I-1
I1
I6
I9
I4
I0
I0
tp829
a(I0
I2
I-1
I-15
I-13
I-5
I2
I1
tp830
a(I-2
I-3
I0
I11
I0
I1
I-5
I-2
tp831
a(I-2
I-2
I-4
I7
I12
I0
I1
I1
tp832
a(I-3
I-3
I-4
I-12
I-13
I-5
I-2
I-1
tp833
a(I0
I2
I5
I12
I18
I7
I0
I-2
tp834
a(I-1
I-1
I-1
I4
I-7
I-3
I-4
I-3
tp835
a(I0
I0
I-1
I9
I0
I-15
I-2
I-1
tp836
a(I-2
I-3
I-5
I-3
I8
I6
I-1
I-1
tp837
a(I-2
I-2
I-5
I23
I-17
I-7
I-1
I-2
tp838
a(I1
I2
I7
I-8
I-2
I18
I-2
I-1
tp839
a(I0
I-1
I-7
I-13
I2
I-5
I-3
I0
tp840
a(I-2
I-1
I0
I-6
I-1
I-5
I1
I1
tp841
a(I1
I1
I3
I3
I-5
I-1
I-4
I-3
tp842
a(I0
I-1
I2
I10
I20
I-14
I1
I-1
tp843
a(I-1
I-3
I-1
I4
I8
I10
I0
I0
tp844
a(I0
I-1
I-4
I-9
I-8
I-6
I-3
I-2
tp845
a(I-3
I-1
I-1
I1
I10
I-3
I-1
I-2
tp846
a(I0
I1
I1
I1
I-14
I7
I0
I-1
tp847
a(I0
I1
I2
I-2
I12
I11
I3
I0
tp848
a(I-1
I-3
I-5
I-6
I-1
I4
I0
I-1
tp849
a(I-1
I0
I4
I27
I6
I6
I-1
I-1
tp850
a(I-1
I-2
I-2
I-36
I-14
I2
I-1
I-1
tp851
a(I-2
I-2
I-2
I2
I2
I-13
I0
I1
tp852
a(I2
I-1
I-2
I3
I2
I19
I0
I-1
tp853
a(I1
I1
I1
I2
I-11
I-15
I-2
I-1
tp854
a(I0
I-2
I0
I11
I-12
I2
I0
I-1
tp855
a(I-1
I-1
I0
I-12
I15
I4
I1
I-3
tp856
a(I2
I2
I1
I3
I-24
I-13
I-2
I1
tp857
a(I-6
I0
I1
I-3
I3
I19
I1
I-3
tp858
a(I1
I-2
I3
I7
I9
I-15
I0
I0
tp859
a(I-2
I-3
I-7
I-10
I-7
I0
I1
I1
tp860
a(I0
I3
I4
I2
I2
I0
I1
I0
tp861
a(I1
I-2
I0
I9
I-3
I2
I-3
I0
tp862
a(I-2
I-2
I-2
I3
I10
I1
I4
I-2
tp863
a(I-1
I-4
I-9
I-24
I-1
I-13
I-2
I-2
tp864
a(I0
I3
I8
I16
I16
I8
I-2
I-1
tp865
a(I1
I1
I-1
I-18
I-11
I-7
I-3
I0
tp866
a(I-2
I-2
I-7
I-7
I-4
I-13
I-2
I-1
tp867
a(I0
I-3
I-3
I10
I15
I11
I3
I0
tp868
a(I-1
I1
I1
I-7
I-10
I-2
I-2
I-1
tp869
a(I1
I3
I1
I8
I12
I9
I1
I0
tp870
a(I-1
I-1
I1
I-5
I-7
I-8
I-3
I-1
tp871
a(I-3
I-3
I-1
I0
I-6
I8
I5
I-1
tp872
a(I-2
I-3
I-3
I-9
I14
I1
I0
I-1
tp873
a(I0
I0
I0
I-1
I1
I-3
I-2
I1
tp874
a(I-2
I0
I-2
I5
I-3
I12
I2
I-2
tp875
a(I-1
I-2
I1
I-3
I2
I4
I1
I0
tp876
a(I-3
I-2
I-1
I1
I-5
I-20
I-3
I-3
tp877
a(I1
I1
I1
I1
I8
I-3
I-4
I-1
tp878
a(I-2
I-3
I-3
I9
I-8
I0
I-3
I0
tp879
a(I-2
I-3
I-4
I-20
I-6
I-5
I-2
I0
tp880
a(I2
I2
I5
I7
I-4
I2
I-1
I-1
tp881
a(I2
I3
I3
I4
I3
I3
I-1
I-2
tp882
a(I-3
I-3
I-6
I-11
I-1
I1
I1
I0
tp883
a(I-2
I-1
I-1
I8
I19
I-4
I-1
I-2
tp884
a(I-1
I-2
I-4
I-2
I5
I1
I2
I0
tp885
a(I0
I-3
I2
I7
I8
I-24
I-3
I-2
tp886
a(I1
I-1
I-12
I-22
I-15
I15
I1
I0
tp887
a(I-1
I-1
I0
I10
I-8
I5
I-4
I0
tp888
a(I1
I1
I-5
I-5
I-1
I6
I1
I0
tp889
a(I1
I0
I-4
I-3
I7
I0
I0
I0
tp890
a(I-3
I2
I4
I5
I-10
I-8
I-2
I-1
tp891
a(I0
I-3
I-3
I3
I2
I-8
I1
I1
tp892
a(I-1
I-4
I-1
I-11
I6
I0
I0
I0
tp893
a(I3
I4
I5
I0
I-12
I-5
I-3
I-1
tp894
a(I2
I0
I0
I5
I21
I0
I1
I1
tp895
a(I0
I1
I3
I0
I-13
I-5
I-1
I-2
tp896
a(I1
I0
I-3
I-7
I-11
I-9
I-3
I0
tp897
a(I0
I-1
I0
I0
I-12
I-7
I-2
I-1
tp898
a(I-1
I-1
I-1
I5
I2
I-3
I-4
I-2
tp899
a(I-2
I0
I-4
I-11
I-15
I4
I0
I-2
tp900
a(I-1
I-4
I-7
I-15
I-8
I-6
I-5
I-1
tp901
a(I1
I1
I8
I4
I18
I-15
I-3
I0
tp902
a(I-1
I2
I3
I0
I-14
I0
I-1
I-1
tp903
a(I-2
I-2
I0
I14
I2
I5
I-2
I-2
tp904
a(I-1
I-1
I0
I0
I8
I3
I1
I-1
tp905
a(I-1
I-1
I-1
I-3
I5
I-2
I1
I0
tp906
a(I-1
I-1
I-2
I0
I-32
I-5
I-3
I-1
tp907
a(I-1
I-3
I-3
I-4
I-18
I-9
I-4
I-1
tp908
a(I0
I2
I7
I5
I13
I17
I4
I1
tp909
a(I-1
I3
I-2
I5
I-9
I-15
I-1
I-2
tp910
a(I1
I-1
I5
I6
I-5
I-15
I-2
I0
tp911
a(I0
I-1
I-10
I-11
I-11
I1
I1
I0
tp912
a(I0
I-1
I3
I4
I-3
I-6
I0
I0
tp913
a(I0
I-3
I-5
I-5
I11
I12
I2
I-1
tp914
a(I-1
I-2
I5
I10
I-11
I1
I0
I-4
tp915
a(I1
I1
I5
I6
I-6
I1
I1
I-1
tp916
a(I-1
I-3
I-9
I-22
I6
I-12
I-4
I-2
tp917
a(I-1
I1
I1
I-3
I2
I4
I-5
I-2
tp918
a(I-1
I-1
I-1
I-2
I-13
I-11
I-4
I0
tp919
a(I1
I2
I1
I5
I3
I0
I-2
I0
tp920
a(I-1
I2
I3
I5
I-19
I-9
I-2
I0
tp921
a(I0
I-1
I1
I-3
I3
I4
I0
I0
tp922
a(I-2
I-1
I-3
I-14
I7
I-7
I-3
I-2
tp923
a(I0
I0
I2
I11
I1
I-1
I1
I0
tp924
a(I1
I-3
I-5
I0
I12
I-7
I1
I-2
tp925
a(I-2
I2
I2
I-3
I2
I18
I1
I-1
tp926
a(I2
I1
I1
I3
I-6
I-3
I-1
I0
tp927
a(I1
I-1
I1
I1
I-17
I-5
I0
I2
tp928
a(I0
I-3
I-5
I1
I8
I28
I2
I-1
tp929
a(I-2
I-3
I0
I5
I5
I-10
I-3
I-1
tp930
a(I-3
I-5
I-9
I-19
I-5
I-8
I-3
I-5
tp931
a(I1
I1
I2
I4
I-7
I-5
I-1
I-1
tp932
a(I-2
I-2
I-1
I9
I-5
I2
I1
I-2
tp933
a(I-4
I-2
I1
I4
I6
I-1
I-1
I1
tp934
a(I-1
I0
I3
I1
I19
I6
I2
I-1
tp935
a(I-2
I-1
I-1
I5
I-26
I-1
I-2
I-3
tp936
a(I1
I3
I0
I-9
I10
I-6
I-1
I-1
tp937
a(I-1
I-2
I-4
I-5
I-3
I-6
I-1
I-2
tp938
a(I-1
I0
I0
I2
I7
I18
I2
I2
tp939
a(I-2
I-2
I1
I10
I1
I-17
I-2
I-1
tp940
a(I-1
I-3
I-2
I-9
I-4
I5
I1
I1
tp941
a(I-3
I-2
I3
I14
I7
I-2
I0
I-3
tp942
a(I-1
I0
I-2
I-5
I-16
I-10
I-4
I-1
tp943
a(I2
I0
I0
I-5
I2
I0
I0
I0
tp944
a(I0
I-1
I-1
I2
I1
I17
I2
I0
tp945
a(I-1
I-1
I-5
I-3
I-7
I-20
I-5
I-2
tp946
a(I0
I1
I8
I11
I-4
I1
I0
I2
tp947
a(I-1
I-1
I-1
I-3
I2
I-13
I-2
I-1
tp948
a(I0
I-2
I-5
I1
I7
I9
I3
I-1
tp949
a(I0
I1
I3
I-8
I-4
I6
I0
I0
tp950
a(I-1
I0
I-2
I2
I-11
I-2
I-1
I-1
tp951
a(I-1
I-2
I-4
I-12
I12
I4
I0
I0
tp952
a(I-2
I-1
I-2
I3
I8
I-14
I-3
I-3
tp953
a(I1
I3
I9
I5
I-18
I1
I0
I1
tp954
a(I-3
I-3
I-4
I1
I15
I-1
I0
I-2
tp955
a(I0
I1
I1
I-5
I-3
I3
I-2
I-1
tp956
a(I0
I-1
I2
I3
I2
I7
I0
I-1
tp957
a(I2
I0
I-1
I-2
I-5
I-6
I-1
I0
tp958
a(I0
I-1
I1
I8
I4
I8
I-1
I-1
tp959
a(I-2
I-5
I-13
I-25
I-5
I-16
I-5
I-3
tp960
a(I0
I4
I13
I6
I-5
I-20
I-3
I0
tp961
a(I-1
I-2
I-6
I-4
I2
I8
I0
I-2
tp962
a(I0
I3
I2
I-3
I-4
I-3
I-4
I0
tp963
a(I-1
I-3
I0
I12
I8
I5
I-2
I-2
tp964
a(I-2
I-4
I-8
I-7
I-4
I-6
I-1
I-1
tp965
a(I-2
I-1
I1
I4
I-2
I-6
I-1
I1
tp966
a(I0
I-2
I0
I0
I4
I1
I-1
I0
tp967
a(I0
I-2
I-4
I-3
I-2
I4
I1
I-1
tp968
a(I-3
I-2
I-2
I3
I4
I-5
I1
I-1
tp969
a(I-2
I-2
I-3
I-11
I-7
I-3
I-2
I-2
tp970
a(I1
I-1
I0
I-8
I-1
I12
I3
I0
tp971
a(I0
I-3
I-3
I-1
I-1
I-9
I-3
I-1
tp972
a(I-1
I2
I1
I-6
I-7
I-7
I-2
I-1
tp973
a(I-3
I-1
I0
I8
I6
I5
I0
I-2
tp974
a(I-1
I-1
I-4
I1
I15
I0
I-1
I-2
tp975
a(I-2
I-2
I-2
I-4
I-6
I-3
I-2
I0
tp976
a(I-1
I1
I4
I8
I-1
I-7
I0
I-1
tp977
a(I1
I0
I2
I8
I6
I4
I-1
I-1
tp978
a(I1
I1
I-1
I7
I-15
I1
I0
I0
tp979
a(I-2
I-1
I-3
I-6
I-1
I-9
I-2
I-3
tp980
a(I-1
I-2
I-3
I11
I-1
I-7
I-1
I-1
tp981
a(I-3
I0
I0
I-10
I-2
I3
I0
I-1
tp982
a(I0
I-2
I-1
I1
I-2
I-2
I0
I1
tp983
a(I-2
I-2
I-3
I-2
I12
I9
I4
I2
tp984
a(I-1
I0
I-7
I-8
I-12
I-5
I-4
I-1
tp985
a(I0
I3
I8
I12
I2
I0
I-3
I-2
tp986
a(I-1
I-2
I-3
I0
I-5
I5
I1
I-1
tp987
a(I-1
I1
I3
I-3
I21
I-4
I-2
I-2
tp988
a(I1
I-2
I2
I9
I-3
I-19
I-3
I-1
tp989
a(I-2
I-2
I-6
I-14
I-7
I13
I1
I0
tp990
a(I0
I0
I0
I1
I-8
I-5
I-2
I-2
tp991
a(I-1
I-2
I-1
I4
I3
I-11
I-4
I-2
tp992
a(I-2
I0
I0
I-14
I-9
I-4
I-3
I-3
tp993
a(I-1
I-2
I-3
I10
I-9
I2
I0
I-1
tp994
a(I-3
I-8
I-11
I-14
I0
I7
I4
I1
tp995
a(I-2
I-2
I-3
I-19
I8
I5
I-1
I-2
tp996
a(I1
I5
I15
I17
I-29
I-12
I-2
I2
tp997
a(I0
I-1
I-6
I-12
I1
I-17
I-5
I-3
tp998
a(I1
I0
I8
I15
I-1
I7
I0
I-2
tp999
a(I0
I-4
I-7
I2
I-19
I-5
I0
I-1
tp1000
a(I-2
I-5
I-5
I-4
I37
I3
I-1
I-2
tp1001
a(I-1
I0
I2
I0
I-10
I10
I2
I1
tp1002
a(I1
I1
I-1
I-7
I-6
I-1
I-2
I-1
tp1003
a(I1
I2
I3
I8
I13
I2
I1
I0
tp1004
a(I1
I0
I1
I6
I11
I0
I-3
I-2
tp1005
a(I-2
I-1
I0
I-9
I-9
I-5
I1
I0
tp1006
a(I2
I0
I-3
I-3
I3
I5
I1
I1
tp1007
a(I1
I-1
I-2
I-2
I-3
I-12
I0
I-1
tp1008
a(I-3
I-2
I-2
I6
I13
I6
I0
I1
tp1009
a(I-2
I-1
I-1
I2
I-11
I-8
I-2
I-1
tp1010
a(I-1
I-4
I-8
I-16
I9
I3
I-1
I-2
tp1011
a(I2
I1
I5
I8
I-21
I-12
I1
I2
tp1012
a(I-2
I-4
I-7
I-2
I13
I4
I-2
I-3
tp1013
a(I4
I4
I19
I20
I19
I42
I15
I8
tp1014
a(I-1
I-5
I-12
I10
I16
I-3
I-1
I-2
tp1015
a(I-2
I2
I13
I61
I14
I9
I-1
I-1
tp1016
a(I0
I3
I28
I28
I-53
I-1
I-5
I-2
tp1017
a(I2
I6
I5
I5
I41
I1
I-5
I-1
tp1018
a(I-3
I-2
I5
I40
I1
I14
I6
I1
tp1019
a(I0
I-6
I-8
I11
I26
I-1
I-2
I-1
tp1020
a(I-2
I-3
I-25
I-68
I-22
I14
I4
I2
tp1021
a(I-1
I0
I3
I12
I-1
I-3
I-5
I-4
tp1022
a(I-2
I-2
I3
I0
I-4
I32
I15
I2
tp1023
a(I-2
I1
I-8
I-47
I12
I-54
I-25
I-9
tp1024
a(I-1
I7
I10
I6
I-1
I-14
I-6
I-4
tp1025
a(I-2
I-1
I13
I57
I-20
I1
I2
I2
tp1026
a(I-5
I-9
I-12
I-47
I-5
I-36
I-15
I-6
tp1027
a(I4
I24
I32
I14
I-23
I-88
I-35
I-8
tp1028
a(I-3
I0
I10
I5
I-11
I-18
I-17
I-9
tp1029
a(I-4
I-12
I-30
I-15
I-9
I40
I19
I5
tp1030
a(I-2
I5
I16
I22
I0
I-43
I-18
I-7
tp1031
a(I-2
I-1
I-7
I-19
I17
I2
I-2
I-11
tp1032
a(I3
I6
I8
I11
I-4
I5
I8
I23
tp1033
a(I4
I0
I-3
I-9
I-30
I57
I22
I8
tp1034
a(I-6
I-7
I-21
I-37
I21
I-35
I-16
I-5
tp1035
a(I-1
I-9
I-8
I-9
I-8
I31
I15
I2
tp1036
a(I3
I4
I7
I30
I81
I33
I9
I0
tp1037
a(I8
I13
I14
I-13
I-74
I7
I11
I8
tp1038
a(I-6
I-3
I1
I41
I81
I37
I5
I-21
tp1039
a(I7
I5
I1
I-38
I15
I8
I10
I38
tp1040
a(I-11
I-16
I-20
I2
I-14
I-1
I-14
I-4
tp1041
a(I20
I44
I44
I-8
I-95
I-47
I-8
I1
tp1042
a(I3
I0
I-11
I2
I43
I11
I-1
I8
tp1043
a(I-12
I-13
I24
I50
I20
I36
I11
I-16
tp1044
a(I-8
I-21
I-31
I-66
I0
I-5
I-2
I-8
tp1045
a(I4
I8
I11
I21
I23
I3
I-8
I-5
tp1046
a(I1
I4
I7
I11
I-32
I-14
I-6
I2
tp1047
a(I-8
I-11
I-18
I-13
I25
I-61
I-20
I-10
tp1048
a(I-1
I-2
I-8
I-10
I-22
I16
I2
I7
tp1049
a(I-14
I-20
I-18
I-39
I8
I43
I-4
I-11
tp1050
a(I5
I16
I-9
I-39
I-40
I-102
I-37
I-4
tp1051
a(I-7
I-16
I-17
I-3
I49
I2
I-4
I-2
tp1052
a(I4
I11
I15
I20
I65
I-11
I6
I21
tp1053
a(I-2
I4
I1
I-7
I-1
I-36
I-10
I-6
tp1054
a(I4
I4
I9
I21
I-2
I-2
I18
I11
tp1055
a(I-2
I-4
I-18
I-37
I35
I22
I-2
I1
tp1056
a(I-3
I-2
I11
I19
I-46
I-10
I2
I-6
tp1057
a(I4
I-2
I-7
I6
I24
I57
I17
I13
tp1058
a(I5
I8
I8
I30
I29
I-9
I-2
I1
tp1059
a(I-11
I-13
I-29
I-33
I-5
I20
I2
I-16
tp1060
a(I-7
I-11
I-10
I-23
I-51
I21
I2
I-8
tp1061
a(I3
I9
I8
I38
I-16
I-6
I-6
I-11
tp1062
a(I5
I1
I3
I-10
I7
I-12
I4
I22
tp1063
a(I-6
I-10
I0
I17
I28
I2
I-5
I0
tp1064
a(I-21
I-28
I-27
I-20
I16
I40
I-3
I-18
tp1065
a(I0
I-7
I3
I28
I30
I-9
I-3
I12
tp1066
a(I3
I1
I1
I-13
I-29
I1
I3
I7
tp1067
a(I-14
I-10
I-12
I-18
I3
I-8
I-8
I-16
tp1068
a(I-7
I-7
I-18
I-42
I-41
I18
I-4
I-21
tp1069
a(I-2
I-5
I-4
I-9
I-31
I12
I6
I17
tp1070
a(I-4
I-9
I-14
I0
I44
I-15
I-16
I-14
tp1071
a(I2
I4
I3
I-12
I-9
I-15
I-6
I-3
tp1072
a(I-2
I-5
I-2
I10
I-13
I-10
I-4
I24
tp1073
a(I-2
I2
I0
I-15
I-16
I4
I4
I-18
tp1074
a(I-6
I-5
I-22
I-32
I-37
I8
I-18
I-9
tp1075
a(I3
I-2
I-1
I-5
I-15
I3
I8
I13
tp1076
a(I-2
I3
I3
I14
I-5
I12
I5
I-15
tp1077
a(I8
I17
I19
I10
I5
I-12
I2
I6
tp1078
a(I-13
I-20
I-20
I-16
I-1
I5
I-6
I-5
tp1079
a(I-7
I-11
I-7
I20
I-8
I-4
I-2
I-3
tp1080
a(I13
I20
I27
I41
I38
I-11
I-4
I4
tp1081
a(I-5
I-9
I-9
I-6
I-1
I9
I-4
I-3
tp1082
a(I3
I6
I10
I26
I-7
I-3
I4
I1
tp1083
a(I4
I8
I12
I-2
I-9
I-27
I-8
I-1
tp1084
a(I2
I6
I5
I-3
I-1
I-23
I-6
I13
tp1085
a(I-15
I-23
I-28
I-21
I-14
I33
I-7
I-14
tp1086
a(I3
I4
I12
I7
I5
I-4
I1
I-5
tp1087
a(I4
I-3
I-3
I-14
I12
I25
I11
I19
tp1088
a(I-4
I-5
I-5
I4
I32
I20
I3
I-1
tp1089
a(I5
I10
I7
I-13
I24
I1
I2
I-1
tp1090
a(I0
I-5
I4
I27
I6
I18
I10
I4
tp1091
a(I4
I9
I8
I-8
I14
I6
I1
I-7
tp1092
a(I1
I-3
I0
I-3
I-42
I0
I6
I4
tp1093
a(I-19
I-26
I-23
I2
I28
I33
I-2
I-21
tp1094
a(I12
I21
I29
I21
I38
I-17
I3
I-10
tp1095
a(I11
I14
I22
I29
I-1
I-32
I1
I24
tp1096
a(I4
I9
I6
I0
I3
I-18
I4
I5
tp1097
a(I-7
I-12
I-15
I-14
I-11
I12
I-2
I-5
tp1098
a(I-3
I-8
I-10
I-26
I-4
I8
I-7
I2
tp1099
a(I-5
I-7
I-10
I-8
I-18
I-6
I-2
I-9
tp1100
a(I-5
I-12
I-17
I-60
I-19
I-15
I-3
I0
tp1101
a(I9
I13
I23
I47
I23
I-17
I3
I6
tp1102
a(I-6
I-8
I-7
I-10
I21
I26
I3
I-9
tp1103
a(I3
I5
I2
I-4
I2
I-20
I-9
I2
tp1104
a(I-5
I-3
I-8
I-6
I-29
I1
I2
I-2
tp1105
a(I-8
I-16
I-16
I-21
I10
I12
I-7
I6
tp1106
a(I0
I0
I-1
I-1
I-21
I-15
I-2
I-6
tp1107
a(I-4
I-6
I-2
I-2
I-8
I15
I-2
I-1
tp1108
a(I-11
I-17
I-10
I16
I16
I21
I0
I-5
tp1109
a(I7
I11
I6
I-8
I0
I1
I9
I-1
tp1110
a(I2
I0
I-1
I2
I-3
I2
I1
I13
tp1111
a(I3
I2
I0
I-6
I-16
I-12
I-3
I6
tp1112
a(I21
I34
I43
I17
I-22
I-40
I8
I18
tp1113
a(I-2
I-6
I-12
I-5
I10
I-12
I-2
I1
tp1114
a(I3
I7
I10
I7
I-33
I-5
I-3
I6
tp1115
a(I-1
I-4
I-1
I4
I-19
I-10
I-5
I-6
tp1116
a(I-6
I-7
I-12
I-15
I14
I10
I-3
I-8
tp1117
a(I-2
I1
I12
I14
I10
I19
I9
I4
tp1118
a(I5
I6
I9
I10
I-9
I-16
I1
I7
tp1119
a(I-5
I-5
I-11
I-14
I-22
I-27
I-14
I-6
tp1120
a(I-9
I-13
I-23
I-22
I-3
I7
I-4
I-8
tp1121
a(I-2
I-4
I-6
I-6
I-9
I-11
I-6
I-5
tp1122
a(I-5
I-8
I-11
I-8
I16
I13
I-1
I1
tp1123
a(I-3
I-1
I2
I-3
I0
I3
I-1
I-3
tp1124
a(I14
I19
I19
I21
I27
I-11
I7
I11
tp1125
a(I2
I3
I1
I-12
I-19
I-21
I-3
I-1
tp1126
a(I-4
I-4
I-1
I8
I-14
I22
I6
I-3
tp1127
a(I-3
I-6
I-9
I-10
I-2
I-23
I-7
I-2
tp1128
a(I0
I1
I8
I8
I-1
I-1
I-4
I2
tp1129
a(I-3
I-5
I-3
I-5
I-15
I7
I2
I-3
tp1130
a(I0
I-1
I-3
I-12
I-1
I-19
I-13
I-5
tp1131
a(I4
I9
I8
I14
I-15
I-18
I-1
I3
tp1132
a(I1
I3
I-2
I-7
I-2
I-11
I0
I2
tp1133
a(I-2
I-1
I-5
I-2
I1
I-2
I-3
I-2
tp1134
a(I-4
I-4
I-2
I2
I7
I3
I0
I-2
tp1135
a(I-4
I-2
I-8
I-35
I7
I-3
I-4
I-3
tp1136
a(I-1
I-1
I-1
I1
I10
I-6
I1
I0
tp1137
a(I0
I-1
I-4
I-14
I-26
I4
I-1
I-4
tp1138
a(I-5
I-8
I-6
I0
I38
I15
I3
I-4
tp1139
a(I-2
I-4
I-5
I-14
I-41
I2
I-3
I-3
tp1140
a(I2
I3
I4
I3
I-15
I-13
I1
I-1
tp1141
a(I0
I0
I4
I13
I10
I8
I5
I2
tp1142
a(I2
I6
I7
I6
I-9
I-23
I-5
I1
tp1143
a(I0
I-4
I-2
I3
I12
I-1
I-1
I0
tp1144
a(I-9
I-18
I-16
I-13
I-4
I-8
I-2
I-1
tp1145
a(I2
I-7
I-1
I12
I4
I9
I0
I0
tp1146
a(I21
I13
I7
I2
I-7
I-5
I-4
I0
tp1147
a(I-8
I27
I12
I-2
I14
I0
I-1
I0
tp1148
a(I0
I-6
I-35
I-16
I-9
I-3
I-8
I-7
tp1149
a(I6
I12
I-10
I5
I15
I3
I1
I-1
tp1150
a(I14
I72
I50
I13
I-3
I0
I4
I6
tp1151
a(I29
I89
I10
I5
I1
I-3
I-2
I1
tp1152
a(I30
I21
I12
I3
I2
I-5
I2
I3
tp1153
a(I-5
I61
I17
I-3
I-1
I1
I4
I1
tp1154
a(I-12
I-72
I-36
I2
I5
I-9
I0
I-1
tp1155
a(I0
I-26
I-2
I-7
I1
I-1
I-5
I-4
tp1156
a(I-14
I-32
I-16
I-15
I-7
I2
I1
I2
tp1157
a(I0
I-16
I7
I-2
I4
I4
I-4
I-5
tp1158
a(I3
I10
I0
I0
I5
I-3
I0
I3
tp1159
a(I-5
I-13
I11
I10
I14
I3
I1
I0
tp1160
a(I5
I0
I-10
I-11
I-7
I-4
I-1
I0
tp1161
a(I-4
I-18
I-25
I-13
I-18
I3
I-2
I-2
tp1162
a(I-24
I-7
I15
I8
I-6
I1
I-7
I-13
tp1163
a(I20
I19
I14
I9
I9
I6
I8
I11
tp1164
a(I5
I10
I2
I9
I10
I13
I1
I-2
tp1165
a(I-8
I-19
I-4
I-1
I6
I6
I-1
I-1
tp1166
a(I-7
I1
I-6
I-11
I-6
I2
I-2
I2
tp1167
a(I-3
I-21
I-16
I-16
I-10
I4
I-2
I-5
tp1168
a(I9
I-8
I5
I10
I-2
I8
I-3
I-3
tp1169
a(I-20
I-7
I0
I-5
I0
I0
I-1
I-2
tp1170
a(I4
I3
I2
I0
I-4
I2
I0
I-1
tp1171
a(I-3
I-13
I-9
I3
I-3
I0
I-2
I-1
tp1172
a(I4
I-2
I-10
I-7
I-8
I-9
I4
I7
tp1173
a(I-5
I-16
I-3
I-6
I3
I-19
I-2
I-5
tp1174
a(I-7
I5
I-3
I8
I-4
I-17
I-1
I-2
tp1175
a(I1
I-3
I2
I-3
I-3
I-8
I-3
I-3
tp1176
a(I-3
I1
I3
I0
I2
I-8
I-3
I0
tp1177
a(I2
I-9
I-4
I-2
I-3
I-13
I0
I0
tp1178
a(I-8
I-3
I2
I0
I-1
I-9
I-1
I-4
tp1179
a(I-2
I-5
I-13
I-7
I-4
I-2
I-2
I0
tp1180
a(I0
I3
I7
I6
I-2
I-5
I2
I-1
tp1181
a(I0
I0
I-2
I-6
I-2
I2
I-1
I1
tp1182
a(I-4
I-5
I0
I-1
I1
I-12
I-5
I-5
tp1183
a(I1
I0
I0
I0
I-8
I8
I2
I1
tp1184
a(I-4
I-4
I-4
I-4
I-32
I-16
I-5
I-2
tp1185
a(I1
I1
I-1
I-10
I6
I-4
I-4
I-1
tp1186
a(I0
I2
I2
I-3
I-5
I7
I0
I0
tp1187
a(I-3
I-7
I-5
I9
I11
I3
I3
I-1
tp1188
a(I-2
I-2
I1
I21
I20
I14
I2
I0
tp1189
a(I-2
I-1
I-8
I-24
I-23
I-1
I-1
I-1
tp1190
a(I1
I2
I2
I10
I6
I-9
I-2
I-1
tp1191
a(I-1
I1
I7
I5
I-10
I-10
I-3
I-3
tp1192
a(I2
I3
I1
I-2
I14
I4
I2
I1
tp1193
a(I-1
I-3
I0
I5
I6
I0
I0
I0
tp1194
a(I-5
I-6
I-9
I-16
I-5
I-1
I-1
I-2
tp1195
a(I-2
I-4
I1
I8
I-8
I-4
I-1
I-2
tp1196
a(I-5
I-2
I-4
I0
I-4
I11
I-5
I-4
tp1197
a(I-1
I-1
I2
I-5
I-1
I-4
I0
I0
tp1198
a(I-2
I-3
I-6
I0
I-8
I-3
I1
I-1
tp1199
a(I-1
I-1
I-1
I0
I-3
I1
I-1
I-1
tp1200
a(I0
I-2
I-6
I-11
I-4
I5
I0
I-1
tp1201
a(I-2
I-1
I-2
I-4
I0
I-13
I-3
I-1
tp1202
a(I-2
I-1
I2
I6
I14
I8
I-1
I0
tp1203
a(I0
I-2
I-7
I-1
I-26
I-7
I1
I1
tp1204
a(I0
I3
I12
I-2
I20
I14
I1
I2
tp1205
a(I-3
I-6
I-7
I-5
I-13
I1
I-4
I-4
tp1206
a(I0
I0
I2
I-3
I6
I-5
I3
I0
tp1207
a(I-1
I0
I-1
I2
I-11
I2
I-2
I-3
tp1208
a(I-3
I-2
I-7
I-16
I-13
I-4
I-3
I-1
tp1209
a(I1
I-1
I4
I5
I1
I5
I-2
I-1
tp1210
a(I-2
I1
I6
I6
I-3
I-8
I-2
I-3
tp1211
a(I4
I1
I-5
I2
I13
I-3
I0
I3
tp1212
a(I-6
I1
I9
I9
I-6
I-2
I-4
I-4
tp1213
a(I-4
I-1
I-1
I-4
I9
I1
I1
I1
tp1214
a(I-1
I-5
I-8
I-17
I-22
I-6
I0
I-2
tp1215
a(I-1
I0
I3
I10
I3
I-5
I-3
I0
tp1216
a(I2
I-2
I-2
I-2
I-5
I2
I-1
I-1
tp1217
a(I1
I2
I1
I9
I13
I8
I1
I0
tp1218
a(I-1
I0
I1
I-5
I-3
I-15
I0
I-1
tp1219
a(I-4
I-4
I-3
I1
I-5
I6
I-1
I0
tp1220
a(I1
I-2
I-4
I-4
I-1
I9
I-2
I-2
tp1221
a(I-1
I1
I1
I2
I-3
I-22
I-2
I-2
tp1222
a(I1
I-1
I-2
I-3
I10
I16
I2
I0
tp1223
a(I-1
I0
I-3
I13
I2
I4
I0
I0
tp1224
a(I-1
I-2
I-10
I-25
I-5
I-6
I-2
I-1
tp1225
a(I-1
I0
I7
I14
I1
I-2
I-7
I-3
tp1226
a(I1
I-1
I-1
I-5
I-8
I-9
I1
I0
tp1227
a(I-2
I-5
I0
I11
I14
I10
I3
I-2
tp1228
a(I1
I0
I-2
I-1
I-5
I2
I0
I1
tp1229
a(I0
I-3
I-3
I-10
I5
I3
I3
I-1
tp1230
a(I-1
I-2
I1
I5
I-6
I-10
I0
I0
tp1231
a(I2
I2
I1
I-8
I-10
I-2
I-3
I0
tp1232
a(I-3
I0
I0
I5
I-1
I1
I-3
I-1
tp1233
a(I-1
I-1
I-1
I3
I-3
I-5
I0
I-1
tp1234
a(I0
I0
I1
I-5
I5
I1
I-1
I1
tp1235
a(I0
I-3
I-5
I2
I-17
I-3
I1
I0
tp1236
a(I-2
I0
I5
I0
I15
I17
I-1
I1
tp1237
a(I-2
I-1
I-2
I-2
I14
I-1
I-2
I-3
tp1238
a(I-1
I-2
I-3
I-11
I-3
I-12
I-1
I-2
tp1239
a(I-1
I-3
I0
I6
I-6
I0
I-1
I-2
tp1240
a(I0
I0
I-2
I1
I1
I-10
I0
I0
tp1241
a(I1
I1
I0
I-3
I-7
I8
I0
I1
tp1242
a(I1
I0
I-4
I4
I-2
I1
I0
I1
tp1243
a(I-3
I2
I9
I13
I14
I-6
I-2
I-2
tp1244
a(I-2
I-2
I-2
I-4
I-21
I0
I1
I0
tp1245
a(I-1
I0
I-1
I14
I20
I1
I-1
I0
tp1246
a(I3
I1
I-3
I-15
I3
I-5
I-2
I0
tp1247
a(I0
I0
I1
I-5
I-6
I-2
I-2
I-2
tp1248
a(I0
I-1
I6
I18
I2
I1
I-2
I0
tp1249
a(I-2
I0
I-5
I-9
I-2
I4
I0
I-1
tp1250
a(I-1
I0
I5
I10
I12
I-5
I0
I0
tp1251
a(I-1
I0
I-6
I-5
I-1
I-2
I1
I0
tp1252
a(I-3
I-2
I-1
I-11
I-8
I-9
I0
I-2
tp1253
a(I-3
I-3
I-5
I2
I15
I11
I-2
I-3
tp1254
a(I-1
I-2
I-3
I-5
I-5
I-5
I-2
I-2
tp1255
a(I0
I0
I2
I3
I-8
I-7
I-2
I0
tp1256
a(I-1
I-2
I-3
I3
I4
I9
I1
I-1
tp1257
a(I0
I1
I0
I-2
I-6
I-11
I0
I0
tp1258
a(I-1
I0
I3
I9
I12
I10
I-1
I-1
tp1259
a(I2
I0
I6
I9
I1
I-5
I-2
I-1
tp1260
a(I-2
I-3
I-4
I-7
I-27
I-3
I-1
I0
tp1261
a(I-1
I0
I-3
I-3
I8
I2
I0
I-1
tp1262
a(I-1
I-2
I-3
I9
I-3
I-1
I-1
I-2
tp1263
a(I-1
I-1
I-2
I-18
I-10
I-2
I1
I-1
tp1264
a(I-2
I0
I0
I-8
I-3
I-6
I-1
I-2
tp1265
a(I0
I0
I2
I9
I4
I2
I-1
I-1
tp1266
a(I0
I-3
I-6
I-7
I-2
I-2
I-2
I-2
tp1267
a(I-2
I-2
I0
I10
I-7
I2
I-1
I-1
tp1268
a(I-1
I-2
I-1
I1
I4
I5
I0
I0
tp1269
a(I1
I1
I-3
I-2
I0
I-4
I0
I-1
tp1270
a(I2
I1
I2
I-1
I-5
I-10
I-1
I-1
tp1271
a(I-1
I2
I4
I0
I4
I9
I-1
I0
tp1272
a(I-1
I1
I5
I4
I1
I-4
I-1
I-1
tp1273
a(I-3
I-4
I-6
I-11
I-15
I-3
I-2
I-2
tp1274
a(I-3
I-4
I-7
I0
I2
I1
I0
I-1
tp1275
a(I-3
I-2
I-3
I-1
I2
I-4
I-1
I-2
tp1276
a(I-1
I-2
I-3
I-5
I3
I0
I0
I-1
tp1277
a(I2
I6
I6
I6
I-14
I4
I-1
I0
tp1278
a(I1
I2
I4
I13
I29
I5
I0
I0
tp1279
a(I0
I-4
I-14
I-40
I-16
I-25
I-2
I-1
tp1280
a(I-2
I-1
I-2
I9
I0
I-6
I-1
I-2
tp1281
a(I-2
I0
I-2
I2
I3
I7
I-1
I-1
tp1282
a(I0
I2
I0
I-2
I-7
I4
I0
I0
tp1283
a(I0
I1
I6
I0
I-7
I-4
I2
I0
tp1284
a(I-2
I-2
I-3
I-2
I11
I2
I-2
I-1
tp1285
a(I-2
I-3
I-6
I-4
I-5
I-4
I-2
I-1
tp1286
a(I0
I0
I-2
I-2
I-2
I-5
I-1
I-1
tp1287
a(I0
I-1
I2
I6
I4
I5
I1
I0
tp1288
a(I-1
I0
I2
I1
I-2
I-2
I0
I1
tp1289
a(I-1
I-1
I-1
I3
I6
I2
I-1
I-2
tp1290
a(I-2
I-2
I-2
I-6
I-2
I-1
I-1
I-1
tp1291
a(I-2
I-1
I-4
I-6
I2
I-5
I-2
I0
tp1292
a(I1
I2
I1
I-2
I-4
I-4
I0
I-1
tp1293
a(I0
I-2
I-2
I2
I21
I-4
I0
I0
tp1294
a(I-1
I-1
I-5
I7
I-15
I4
I1
I0
tp1295
a(I-3
I-2
I2
I-4
I-15
I2
I0
I-1
tp1296
a(I-2
I0
I-1
I-9
I-6
I-5
I-3
I0
tp1297
a(I2
I3
I2
I6
I22
I10
I1
I0
tp1298
a(I2
I0
I2
I1
I-3
I-19
I-1
I0
tp1299
a(I-1
I-1
I-2
I6
I5
I-4
I-2
I-1
tp1300
a(I-2
I-3
I-2
I0
I-10
I-2
I0
I-1
tp1301
a(I-4
I-6
I-7
I-2
I-7
I7
I-2
I-2
tp1302
a(I3
I5
I7
I6
I-8
I1
I-1
I-1
tp1303
a(I2
I2
I7
I7
I3
I1
I0
I1
tp1304
a(I-1
I-1
I8
I6
I-3
I5
I0
I0
tp1305
a(I1
I1
I2
I0
I-19
I-4
I-1
I-1
tp1306
a(I0
I-2
I-1
I6
I19
I6
I0
I-1
tp1307
a(I0
I-2
I1
I-1
I-13
I-7
I-2
I-2
tp1308
a(I-2
I-2
I-8
I3
I-3
I7
I1
I-1
tp1309
a(I-1
I0
I-3
I-1
I3
I-6
I0
I0
tp1310
a(I-1
I4
I4
I-9
I1
I16
I2
I0
tp1311
a(I1
I-2
I-3
I-3
I1
I-21
I-3
I-1
tp1312
a(I-3
I-1
I-3
I-5
I-1
I3
I1
I0
tp1313
a(I-3
I-1
I-1
I7
I5
I4
I-1
I-1
tp1314
a(I-1
I-3
I-1
I9
I15
I10
I0
I-1
tp1315
a(I-2
I1
I-3
I-11
I-21
I-23
I-3
I-1
tp1316
a(I-2
I-3
I-5
I-4
I-2
I0
I-1
I-2
tp1317
a(I-1
I-1
I-1
I5
I0
I6
I-1
I-1
tp1318
a(I-1
I-3
I-3
I4
I0
I1
I0
I-1
tp1319
a(I-3
I-4
I-2
I-13
I7
I-4
I-1
I0
tp1320
a(I0
I2
I0
I-9
I-9
I4
I-2
I-1
tp1321
a(I-2
I-2
I-3
I-2
I19
I4
I1
I1
tp1322
a(I-3
I-3
I-2
I3
I-20
I-9
I-3
I-2
tp1323
a(I-1
I0
I5
I7
I9
I3
I-2
I-1
tp1324
a(I-2
I-3
I-5
I3
I5
I-9
I-2
I-1
tp1325
a(I0
I0
I0
I1
I-3
I-2
I-1
I-2
tp1326
a(I0
I0
I1
I-6
I-2
I4
I1
I-1
tp1327
a(I-1
I0
I1
I4
I-2
I-4
I0
I1
tp1328
a(I3
I4
I5
I6
I3
I-7
I0
I1
tp1329
a(I0
I-1
I-4
I1
I-14
I5
I-1
I1
tp1330
a(I0
I-3
I-2
I4
I4
I-2
I0
I-2
tp1331
a(I0
I-1
I-5
I-5
I-3
I-1
I-1
I-1
tp1332
a(I-1
I-2
I2
I0
I0
I0
I0
I-1
tp1333
a(I-1
I-1
I1
I4
I12
I4
I0
I-2
tp1334
a(I-2
I-1
I1
I-3
I3
I0
I0
I-1
tp1335
a(I0
I0
I-2
I6
I-5
I0
I-1
I-2
tp1336
a(I-2
I-3
I-1
I2
I8
I-5
I-2
I-1
tp1337
a(I0
I0
I4
I8
I16
I3
I1
I-1
tp1338
a(I-1
I-3
I-1
I6
I-4
I7
I-2
I-1
tp1339
a(I-2
I-1
I0
I-2
I-8
I-10
I-3
I-1
tp1340
a(I-2
I-1
I0
I4
I2
I-1
I-1
I0
tp1341
a(I-2
I-1
I-6
I-7
I8
I-3
I-1
I-2
tp1342
a(I-2
I-4
I-2
I-3
I-8
I-1
I0
I0
tp1343
a(I-2
I-1
I-5
I-4
I2
I3
I-1
I-2
tp1344
a(I3
I5
I7
I9
I-12
I-6
I0
I-3
tp1345
a(I-1
I-1
I2
I3
I-2
I-5
I-1
I0
tp1346
a(I-1
I2
I3
I6
I12
I3
I1
I1
tp1347
a(I0
I-2
I-6
I-19
I-12
I-4
I-2
I-1
tp1348
a(I-1
I0
I-1
I6
I5
I-5
I-3
I-1
tp1349
a(I-1
I-1
I0
I3
I-8
I-4
I-3
I-2
tp1350
a(I-1
I2
I0
I-1
I-6
I-1
I-3
I-3
tp1351
a(I2
I0
I0
I-2
I4
I0
I1
I0
tp1352
a(I-1
I-2
I-1
I-5
I-1
I9
I2
I-1
tp1353
a(I0
I0
I1
I3
I7
I-1
I0
I0
tp1354
a(I-2
I-4
I-4
I-2
I-12
I-6
I-1
I0
tp1355
a(I0
I1
I8
I8
I4
I1
I-2
I-1
tp1356
a(I0
I1
I0
I2
I3
I5
I0
I-3
tp1357
a(I-1
I-1
I1
I-8
I-3
I-5
I0
I-3
tp1358
a(I-2
I-2
I-4
I-2
I0
I2
I1
I-1
tp1359
a(I-1
I-1
I-3
I0
I-3
I-3
I-1
I-1
tp1360
a(I2
I6
I7
I-16
I-2
I1
I-1
I0
tp1361
a(I0
I-1
I-2
I-1
I5
I-1
I0
I1
tp1362
a(I-2
I-1
I1
I7
I-15
I-1
I-2
I-1
tp1363
a(I-3
I-5
I-9
I-25
I-1
I3
I-1
I-1
tp1364
a(I-3
I-4
I-4
I2
I-3
I-8
I-2
I-1
tp1365
a(I-1
I0
I2
I-1
I-5
I5
I-1
I-2
tp1366
a(I1
I0
I-1
I3
I1
I-9
I-2
I1
tp1367
a(I-1
I0
I3
I9
I1
I-1
I-1
I0
tp1368
a(I0
I1
I-2
I0
I0
I0
I-2
I-1
tp1369
a(I-2
I-2
I-7
I-11
I-7
I-3
I-1
I-1
tp1370
a(I0
I-1
I3
I13
I6
I5
I-2
I-2
tp1371
a(I1
I0
I-1
I1
I2
I-3
I-1
I-1
tp1372
a(I2
I0
I-1
I-2
I2
I-5
I0
I-1
tp1373
a(I-1
I2
I2
I2
I-23
I-6
I-1
I-1
tp1374
a(I-2
I-1
I-2
I-1
I10
I0
I1
I-1
tp1375
a(I-1
I-4
I-2
I-1
I-5
I-3
I-1
I-2
tp1376
a(I-2
I2
I-1
I-5
I4
I8
I0
I-1
tp1377
a(I0
I3
I5
I-1
I-10
I-19
I-3
I-1
tp1378
a(I-1
I-3
I-1
I17
I-2
I3
I0
I0
tp1379
a(I-2
I-1
I-2
I-11
I-16
I-10
I-5
I-1
tp1380
a(I0
I0
I0
I0
I25
I5
I-1
I-1
tp1381
a(I0
I-2
I-5
I3
I-16
I-15
I1
I1
tp1382
a(I-2
I0
I-4
I-14
I1
I19
I-2
I-2
tp1383
a(I1
I2
I1
I16
I-1
I-6
I0
I-2
tp1384
a(I0
I0
I2
I7
I-11
I-9
I-2
I-1
tp1385
a(I-1
I-2
I-3
I-7
I1
I4
I2
I0
tp1386
a(I-1
I-2
I-4
I-3
I-2
I-3
I-2
I-2
tp1387
a(I-1
I-1
I-3
I-2
I6
I3
I1
I0
tp1388
a(I-1
I2
I6
I-1
I-2
I-4
I-2
I0
tp1389
a(I1
I2
I3
I7
I-2
I-3
I-2
I1
tp1390
a(I-1
I1
I-1
I-8
I6
I8
I4
I1
tp1391
a(I-1
I-3
I-5
I2
I-10
I-14
I-3
I-2
tp1392
a(I-1
I-2
I-1
I-13
I1
I3
I0
I-1
tp1393
a(I-2
I-1
I-2
I-10
I-5
I-6
I-5
I-1
tp1394
a(I2
I1
I3
I6
I6
I1
I1
I1
tp1395
a(I-2
I1
I-1
I-2
I6
I9
I-1
I-2
tp1396
a(I-2
I-4
I-8
I-17
I-5
I-2
I-1
I0
tp1397
a(I1
I2
I3
I0
I-4
I5
I0
I0
tp1398
a(I-1
I-2
I-2
I-2
I1
I-7
I0
I-2
tp1399
a(I-1
I-1
I8
I17
I-2
I-2
I-1
I-1
tp1400
a(I-1
I-2
I-2
I-10
I6
I3
I0
I-1
tp1401
a(I-1
I-1
I-1
I2
I10
I1
I0
I0
tp1402
a(I2
I0
I1
I3
I0
I-7
I0
I1
tp1403
a(I-1
I-2
I-6
I-14
I0
I15
I1
I1
tp1404
a(I-1
I-1
I2
I14
I-11
I-10
I-3
I-1
tp1405
a(I0
I0
I1
I3
I7
I4
I1
I0
tp1406
a(I0
I0
I-3
I-2
I-9
I3
I-1
I-1
tp1407
a(I-1
I-4
I-5
I3
I6
I-5
I-1
I-2
tp1408
a(I0
I-1
I-5
I-6
I-9
I2
I-1
I1
tp1409
a(I2
I-1
I-2
I-3
I-6
I-13
I-4
I-1
tp1410
a(I-1
I-1
I0
I1
I2
I4
I1
I1
tp1411
a(I0
I0
I0
I5
I7
I-3
I-2
I-1
tp1412
a(I-1
I-1
I0
I0
I-5
I5
I0
I-2
tp1413
a(I-1
I-1
I-3
I2
I6
I-3
I-1
I-2
tp1414
a(I-1
I-1
I-2
I-22
I-3
I-2
I-3
I-2
tp1415
a(I1
I2
I4
I-4
I-11
I-5
I0
I1
tp1416
a(I0
I0
I3
I9
I8
I-1
I0
I0
tp1417
a(I-1
I-2
I-5
I-4
I0
I0
I0
I2
tp1418
a(I-1
I-2
I-3
I5
I-8
I-2
I-1
I0
tp1419
a(I-1
I1
I6
I11
I5
I1
I0
I0
tp1420
a(I-2
I1
I1
I1
I14
I6
I1
I-1
tp1421
a(I0
I-3
I-3
I-1
I5
I0
I-1
I0
tp1422
a(I-2
I-3
I0
I3
I-25
I-5
I0
I0
tp1423
a(I-1
I-3
I-4
I-7
I3
I2
I0
I0
tp1424
a(I0
I-3
I-5
I-3
I-3
I5
I-2
I0
tp1425
a(I-3
I1
I2
I-1
I-4
I-19
I-5
I-2
tp1426
a(I1
I3
I2
I-1
I14
I1
I0
I-1
tp1427
a(I-2
I-2
I-3
I-1
I-14
I2
I-2
I-1
tp1428
a(I-3
I-2
I-2
I0
I-7
I-10
I-2
I1
tp1429
a(I1
I-3
I-3
I8
I4
I21
I2
I-1
tp1430
a(I-2
I-2
I-5
I-9
I1
I-11
I-1
I0
tp1431
a(I-1
I3
I7
I5
I3
I2
I-1
I-1
tp1432
a(I-2
I-3
I-3
I0
I6
I2
I-1
I-1
tp1433
a(I0
I-1
I0
I-1
I1
I-4
I-1
I0
tp1434
a(I0
I2
I-2
I0
I-11
I0
I1
I0
tp1435
a(I-1
I-3
I-1
I-8
I-6
I-6
I-1
I0
tp1436
a(I0
I-1
I3
I-1
I6
I0
I0
I0
tp1437
a(I-1
I-3
I-2
I1
I-7
I-3
I0
I0
tp1438
a(I0
I-2
I0
I-9
I-4
I4
I0
I-2
tp1439
a(I1
I4
I9
I16
I-6
I-9
I0
I-2
tp1440
a(I-2
I-1
I-4
I0
I10
I1
I1
I1
tp1441
a(I-2
I-2
I-3
I-11
I7
I1
I-1
I-2
tp1442
a(I-2
I-1
I-2
I4
I9
I3
I-1
I0
tp1443
a(I-1
I-4
I-7
I-14
I-11
I-3
I-1
I-2
tp1444
a(I0
I-1
I1
I-1
I-1
I2
I-1
I-3
tp1445
a(I-1
I-1
I-4
I3
I10
I-2
I0
I0
tp1446
a(I0
I-3
I-2
I1
I-6
I3
I-1
I-1
tp1447
a(I-2
I-2
I1
I-1
I4
I0
I2
I-1
tp1448
a(I-1
I-3
I-1
I1
I-4
I-4
I2
I0
tp1449
a(I0
I1
I2
I3
I6
I5
I-1
I0
tp1450
a(I0
I3
I4
I5
I-4
I-3
I-1
I-1
tp1451
a(I0
I0
I0
I1
I7
I4
I0
I-1
tp1452
a(I0
I-2
I-3
I-14
I-7
I-2
I-1
I-1
tp1453
a(I-4
I-5
I-4
I-2
I3
I-1
I-1
I-1
tp1454
a(I-1
I-2
I1
I5
I-3
I1
I-1
I-1
tp1455
a(I0
I0
I-1
I8
I-4
I-4
I-1
I0
tp1456
a(I-1
I0
I2
I7
I23
I8
I3
I-1
tp1457
a(I0
I0
I-1
I2
I-34
I-30
I-6
I-1
tp1458
a(I0
I-2
I-2
I3
I11
I22
I2
I-1
tp1459
a(I-2
I-2
I-2
I-8
I5
I1
I-1
I0
tp1460
a(I-1
I-1
I-4
I10
I-9
I1
I0
I-3
tp1461
a(I-1
I2
I1
I-26
I14
I8
I2
I1
tp1462
a(I-1
I-2
I-1
I6
I-33
I-14
I-2
I0
tp1463
a(I-1
I0
I1
I10
I8
I-12
I-6
I-2
tp1464
a(I-1
I-2
I-3
I-5
I2
I3
I-1
I-1
tp1465
a(I-1
I-4
I-3
I4
I14
I3
I0
I-1
tp1466
a(I0
I2
I3
I4
I7
I-2
I-1
I-2
tp1467
a(I0
I3
I1
I-3
I-8
I5
I2
I-1
tp1468
a(I-1
I-1
I1
I-5
I2
I-2
I-2
I-2
tp1469
a(I-1
I1
I1
I7
I-4
I-2
I-1
I-1
tp1470
a(I1
I0
I-2
I-6
I4
I-1
I-2
I-1
tp1471
a(I-3
I0
I-2
I11
I0
I3
I-2
I-1
tp1472
a(I-3
I-2
I-3
I-3
I5
I2
I1
I-1
tp1473
a(I-2
I-2
I-3
I-5
I0
I-1
I-1
I-1
tp1474
a(I1
I-1
I2
I5
I2
I7
I4
I2
tp1475
a(I1
I2
I3
I6
I3
I2
I-1
I0
tp1476
a(I-3
I0
I-1
I6
I-13
I1
I0
I-1
tp1477
a(I0
I-2
I-1
I-1
I-5
I-13
I-3
I0
tp1478
a(I0
I-1
I-2
I-19
I-23
I23
I5
I0
tp1479
a(I-3
I-1
I2
I19
I1
I-9
I-10
I-4
tp1480
a(I0
I4
I-3
I-19
I-6
I-33
I-13
I-4
tp1481
a(I-1
I-3
I-3
I-9
I27
I16
I4
I-1
tp1482
a(I-1
I-1
I-1
I2
I0
I-1
I-4
I-2
tp1483
a(I-2
I-2
I-4
I-13
I-25
I0
I0
I-2
tp1484
a(I1
I1
I9
I49
I7
I2
I2
I2
tp1485
a(I0
I2
I-3
I-15
I-30
I-17
I-4
I-1
tp1486
a(I1
I0
I-5
I-12
I-5
I2
I0
I0
tp1487
a(I-1
I0
I3
I-9
I-9
I0
I-2
I-1
tp1488
a(I-3
I-4
I-5
I-4
I-15
I-3
I-2
I-1
tp1489
a(I1
I-1
I1
I12
I-3
I15
I6
I1
tp1490
a(I1
I1
I1
I0
I31
I-7
I-4
I-1
tp1491
a(I-2
I-1
I-1
I12
I-4
I3
I1
I-1
tp1492
a(I2
I9
I-1
I8
I-16
I-43
I-16
I-3
tp1493
a(I3
I3
I5
I-18
I15
I6
I3
I1
tp1494
a(I-2
I0
I1
I8
I41
I7
I1
I-1
tp1495
a(I1
I-1
I-4
I-24
I-20
I1
I1
I1
tp1496
a(I-5
I-7
I-1
I8
I-26
I12
I4
I-1
tp1497
a(I-3
I-1
I-6
I-2
I23
I-14
I-9
I-6
tp1498
a(I-2
I0
I-4
I-7
I-16
I0
I1
I0
tp1499
a(I1
I3
I1
I-4
I7
I-1
I2
I2
tp1500
a(I-2
I-2
I0
I1
I13
I8
I2
I-1
tp1501
a(I-1
I-4
I-6
I-5
I-20
I0
I-1
I0
tp1502
a(I-1
I-4
I-1
I2
I2
I-1
I0
I-1
tp1503
a(I0
I3
I10
I28
I29
I-4
I-4
I-1
tp1504
a(I-3
I-5
I-7
I-16
I23
I-7
I-5
I-2
tp1505
a(I0
I1
I1
I-5
I-24
I-6
I-3
I-1
tp1506
a(I-1
I-1
I7
I31
I14
I10
I2
I0
tp1507
a(I0
I4
I2
I-7
I5
I-8
I-2
I1
tp1508
a(I0
I-5
I-8
I-25
I-41
I-4
I0
I-2
tp1509
a(I-1
I0
I-1
I19
I38
I0
I-3
I-1
tp1510
a(I-2
I-4
I-2
I-4
I9
I5
I-1
I-2
tp1511
a(I1
I-1
I-6
I-3
I-18
I-3
I1
I-2
tp1512
a(I-2
I2
I7
I9
I-1
I-4
I-1
I-1
tp1513
a(I0
I1
I-4
I-10
I-23
I-4
I-1
I1
tp1514
a(I0
I1
I5
I0
I-3
I3
I2
I1
tp1515
a(I-2
I-3
I-5
I-25
I-6
I-2
I-2
I-2
tp1516
a(I-3
I-3
I-5
I5
I5
I2
I2
I-2
tp1517
a(I-1
I-2
I-1
I12
I-6
I-1
I-1
I-2
tp1518
a(I3
I2
I5
I3
I19
I-1
I0
I0
tp1519
a(I-1
I-2
I-2
I1
I1
I-1
I-1
I-2
tp1520
a(I1
I-2
I-2
I2
I-9
I-6
I-3
I-2
tp1521
a(I-1
I0
I0
I4
I7
I3
I1
I-1
tp1522
a(I-1
I-1
I-2
I-9
I-20
I-3
I0
I1
tp1523
a(I-1
I-1
I-2
I7
I14
I-5
I-2
I-2
tp1524
a(I-1
I0
I0
I-8
I-9
I2
I1
I0
tp1525
a(I0
I-1
I1
I1
I-12
I1
I1
I0
tp1526
a(I-2
I-2
I-3
I-7
I-6
I3
I-1
I0
tp1527
a(I-1
I-3
I-4
I-2
I-4
I-3
I0
I-1
tp1528
a(I-1
I-2
I-4
I6
I14
I0
I-1
I-2
tp1529
a(I-1
I1
I1
I-6
I-7
I1
I-2
I-1
tp1530
a(I0
I1
I-6
I5
I12
I1
I0
I0
tp1531
a(I0
I2
I7
I-1
I8
I1
I-1
I-1
tp1532
a(I-1
I0
I-1
I0
I-18
I-3
I-2
I-1
tp1533
a(I-1
I-1
I-4
I-3
I5
I-4
I1
I-1
tp1534
a(I-1
I-1
I-2
I-3
I-16
I7
I3
I0
tp1535
a(I-1
I-1
I-4
I-3
I20
I8
I-1
I-2
tp1536
a(I1
I0
I5
I19
I9
I-4
I-2
I-2
tp1537
a(I0
I1
I-2
I-7
I-11
I3
I-1
I-2
tp1538
a(I2
I3
I7
I-3
I-19
I-6
I-2
I0
tp1539
a(I-1
I-1
I-6
I-3
I15
I-3
I-1
I-2
tp1540
a(I-2
I-3
I-5
I-1
I2
I1
I-1
I-1
tp1541
a(I0
I2
I1
I2
I8
I-2
I0
I1
tp1542
a(I0
I-1
I-3
I-5
I-6
I-4
I-1
I-2
tp1543
a(I0
I0
I2
I4
I0
I0
I-2
I0
tp1544
a(I-2
I-4
I-2
I3
I10
I-3
I-2
I-1
tp1545
a(I0
I0
I1
I-2
I-17
I2
I0
I-1
tp1546
a(I0
I-1
I-5
I0
I7
I-3
I1
I0
tp1547
a(I-2
I-1
I0
I-10
I4
I-2
I-1
I0
tp1548
a(I0
I1
I2
I2
I0
I-1
I-2
I-2
tp1549
a(I-1
I-1
I0
I4
I-7
I-6
I-1
I-1
tp1550
a(I-1
I0
I-2
I-5
I-21
I-2
I-2
I-1
tp1551
a(I-1
I-2
I1
I5
I7
I-5
I-2
I-2
tp1552
a(I-4
I-4
I-5
I-11
I-4
I0
I0
I0
tp1553
a(I-2
I-1
I-2
I1
I-7
I0
I-1
I0
tp1554
a(I-1
I0
I-1
I-1
I-1
I1
I1
I0
tp1555
a(I-1
I-1
I-1
I5
I8
I-10
I-2
I-1
tp1556
a(I0
I-1
I-4
I-13
I-17
I-1
I1
I0
tp1557
a(I0
I0
I-2
I2
I0
I-1
I-2
I0
tp1558
a(I-1
I0
I1
I-1
I1
I-4
I-2
I-3
tp1559
a(I1
I2
I3
I-3
I3
I1
I-1
I0
tp1560
a(I0
I-1
I0
I15
I15
I5
I0
I0
tp1561
a(I-1
I0
I3
I0
I-16
I-1
I0
I-1
tp1562
a(I0
I0
I-5
I-14
I-6
I-7
I0
I1
tp1563
a(I-1
I-2
I-2
I4
I-22
I2
I0
I0
tp1564
a(I-2
I-4
I-2
I-5
I-14
I-1
I0
I0
tp1565
a(I-3
I-1
I-1
I5
I5
I-3
I-3
I-3
tp1566
a(I0
I-1
I0
I-19
I-10
I-1
I-2
I-2
tp1567
a(I0
I2
I3
I2
I-4
I-3
I-1
I-1
tp1568
a(I0
I-2
I-1
I3
I11
I2
I-2
I1
tp1569
a(I-1
I-3
I-2
I-1
I-6
I-2
I-2
I0
tp1570
a(I0
I0
I-1
I5
I-3
I-2
I-2
I1
tp1571
a(I-1
I0
I-1
I-5
I1
I-2
I-1
I-1
tp1572
a(I-1
I-1
I-3
I3
I1
I1
I2
I-1
tp1573
a(I0
I-2
I-4
I-12
I-5
I3
I1
I0
tp1574
a(I1
I4
I7
I17
I5
I-1
I0
I-1
tp1575
a(I-2
I-3
I-4
I-17
I-11
I-5
I-4
I-2
tp1576
a(I-1
I-1
I-1
I-2
I5
I1
I-1
I-1
tp1577
a(I-1
I-2
I-5
I-1
I0
I2
I0
I-2
tp1578
a(I-3
I-4
I-2
I2
I-3
I2
I-1
I-2
tp1579
a(I-2
I-1
I-4
I-5
I18
I-3
I-2
I-2
tp1580
a(I2
I3
I1
I-9
I1
I-1
I0
I1
tp1581
a(I1
I1
I4
I18
I4
I0
I1
I0
tp1582
a(I0
I1
I-3
I0
I-5
I0
I1
I0
tp1583
a(I-1
I-2
I-4
I-2
I-9
I-4
I-1
I-2
tp1584
a(I-2
I-2
I-3
I-1
I-12
I-1
I0
I-1
tp1585
a(I-1
I-1
I-4
I-3
I14
I1
I-1
I0
tp1586
a(I1
I1
I1
I-19
I-10
I1
I-2
I0
tp1587
a(I0
I2
I5
I8
I1
I-2
I-1
I1
tp1588
a(I-2
I-1
I-2
I10
I3
I0
I-1
I-2
tp1589
a(I-1
I-2
I-4
I-4
I2
I0
I0
I-2
tp1590
a(I0
I-1
I-2
I-3
I5
I0
I-1
I0
tp1591
a(I0
I0
I0
I2
I-19
I-2
I0
I0
tp1592
a(I-1
I1
I4
I2
I12
I-5
I-3
I-1
tp1593
a(I-1
I1
I1
I-4
I4
I-5
I0
I1
tp1594
a(I-3
I-4
I-6
I-1
I-3
I-2
I-1
I-1
tp1595
a(I-1
I-2
I-6
I-8
I-3
I4
I-1
I-1
tp1596
a(I0
I2
I7
I13
I5
I-2
I-2
I-1
tp1597
a(I2
I3
I3
I3
I-8
I1
I-1
I0
tp1598
a(I1
I1
I4
I5
I22
I-2
I-1
I1
tp1599
a(I-1
I2
I2
I-2
I-14
I0
I-1
I-1
tp1600
a(I-2
I-4
I-1
I0
I-8
I2
I-2
I-2
tp1601
a(I-1
I-1
I-1
I-1
I11
I1
I-1
I-1
tp1602
a(I1
I0
I3
I11
I0
I1
I0
I0
tp1603
a(I1
I2
I0
I-2
I-8
I-3
I0
I2
tp1604
a(I3
I0
I-4
I2
I9
I-1
I0
I1
tp1605
a(I-1
I0
I4
I-10
I-17
I-3
I-1
I-2
tp1606
a(I0
I-3
I-6
I-1
I7
I0
I-1
I-1
tp1607
a(I-3
I-3
I-6
I-7
I-20
I-4
I-4
I-2
tp1608
a(I-2
I-3
I1
I-2
I-4
I-5
I-2
I-2
tp1609
a(I0
I1
I0
I8
I9
I2
I0
I-1
tp1610
a(I1
I2
I4
I4
I-6
I3
I2
I0
tp1611
a(I0
I-1
I1
I-4
I13
I-1
I1
I-1
tp1612
a(I-2
I-4
I-7
I0
I-9
I-1
I0
I-2
tp1613
a(I-1
I-1
I-4
I-5
I0
I0
I-3
I-2
tp1614
a(I1
I1
I-1
I-2
I0
I0
I0
I0
tp1615
a(I0
I-2
I-4
I-1
I6
I-2
I-2
I1
tp1616
a(I0
I-2
I1
I7
I4
I4
I0
I-1
tp1617
a(I-2
I0
I-1
I-7
I-16
I-2
I-1
I-1
tp1618
a(I-2
I-2
I-2
I-2
I0
I4
I0
I0
tp1619
a(I-1
I1
I-1
I5
I2
I-7
I-2
I-1
tp1620
a(I-2
I-2
I-3
I-2
I0
I-4
I-5
I-2
tp1621
a(I1
I2
I2
I6
I2
I1
I-1
I0
tp1622
a(I0
I0
I0
I-5
I-2
I2
I-1
I-2
tp1623
a(I-1
I-1
I1
I-2
I10
I2
I0
I1
tp1624
a(I-1
I2
I5
I14
I1
I-1
I-1
I1
tp1625
a(I-1
I-3
I-4
I-5
I5
I2
I0
I0
tp1626
a(I-1
I-3
I-3
I-3
I-14
I-4
I-1
I-2
tp1627
a(I-1
I-2
I-1
I-2
I15
I0
I0
I0
tp1628
a(I0
I1
I1
I2
I-4
I-2
I0
I-1
tp1629
a(I0
I2
I4
I20
I6
I0
I0
I-1
tp1630
a(I-2
I-2
I-6
I-16
I-22
I-4
I-3
I-1
tp1631
a(I1
I-2
I-3
I-3
I3
I0
I-1
I-1
tp1632
a(I-1
I-3
I0
I3
I6
I-4
I-4
I-2
tp1633
a(I-1
I-2
I-1
I-4
I-2
I-1
I0
I-1
tp1634
a(I0
I0
I3
I3
I7
I3
I1
I1
tp1635
a(I-1
I-1
I1
I12
I1
I0
I-1
I-1
tp1636
a(I-2
I0
I2
I4
I17
I-1
I-1
I-1
tp1637
a(I-4
I-3
I-4
I0
I-16
I0
I1
I-1
tp1638
a(I-2
I0
I1
I4
I4
I2
I1
I-1
tp1639
a(I-1
I-2
I-5
I-11
I-7
I0
I-1
I0
tp1640
a(I0
I2
I5
I2
I-6
I-2
I0
I1
tp1641
a(I-1
I-2
I0
I-8
I4
I-1
I1
I0
tp1642
a(I-1
I-1
I-2
I-2
I-11
I2
I-1
I-2
tp1643
a(I-1
I-2
I-2
I3
I2
I-2
I0
I0
tp1644
a(I1
I-1
I-5
I-19
I0
I0
I0
I-1
tp1645
a(I-2
I-1
I-2
I-2
I-2
I-2
I-2
I-1
tp1646
a(I-2
I-1
I-1
I6
I3
I0
I1
I-1
tp1647
a(I0
I3
I6
I4
I8
I0
I-1
I-1
tp1648
a(I-2
I-4
I-9
I-17
I-7
I-1
I-2
I1
tp1649
a(I-1
I-1
I-1
I5
I2
I2
I-1
I0
tp1650
a(I-1
I-2
I-1
I-6
I-3
I-5
I-3
I-3
tp1651
a(I1
I-1
I-1
I-6
I-5
I0
I1
I0
tp1652
a(I1
I-1
I2
I4
I5
I-6
I-1
I0
tp1653
a(I1
I-1
I-1
I-11
I-21
I-1
I1
I0
tp1654
a(I1
I1
I0
I4
I1
I-5
I-1
I-2
tp1655
a(I-3
I-2
I-2
I6
I15
I0
I-1
I-2
tp1656
a(I-3
I-1
I-4
I-10
I-4
I-1
I-1
I-1
tp1657
a(I2
I0
I0
I4
I-6
I0
I0
I-1
tp1658
a(I0
I1
I3
I8
I2
I2
I0
I1
tp1659
a(I1
I1
I1
I-2
I-1
I-2
I0
I1
tp1660
a(I-3
I-1
I-4
I-2
I4
I1
I0
I-1
tp1661
a(I-1
I0
I-2
I-1
I-4
I0
I0
I-2
tp1662
a.