(dp0
S'rest'
p1
(lp2
(I-36
I-56
I21
I-79
I-90
I-10
I-5
I-35
tp3
a(I-3
I11
I-39
I95
I42
I-113
I-13
I-7
tp4
a(I-2
I6
I-20
I38
I20
I-42
I-10
I-2
tp5
a(I10
I17
I3
I13
I15
I9
I7
I11
tp6
a(I8
I15
I-4
I-2
I17
I20
I-1
I11
tp7
a(I-2
I-6
I8
I-36
I-17
I38
I-1
I-2
tp8
a(I-8
I-10
I1
I-29
I-18
I18
I-4
I-6
tp9
a(I-7
I-9
I-6
I-24
I-11
I22
I-6
I-8
tp10
a(I6
I8
I-4
I10
I11
I1
I1
I5
tp11
a(I-3
I-4
I0
I-12
I-7
I0
I0
I-3
tp12
a(I4
I6
I-2
I11
I9
I3
I3
I3
tp13
a(I-4
I-6
I6
I-13
I-11
I10
I0
I-4
tp14
a(I3
I7
I-7
I20
I16
I-18
I0
I3
tp15
a(I3
I4
I4
I1
I4
I-4
I3
I6
tp16
a(I-2
I-5
I5
I-14
I-10
I10
I0
I-1
tp17
a(I-4
I-4
I2
I-1
I-5
I-1
I-1
I-2
tp18
a(I1
I3
I-11
I16
I10
I-22
I-4
I-2
tp19
a(I-5
I-3
I-4
I-7
I-4
I-1
I-6
I-3
tp20
a(I-2
I-4
I1
I-6
I-5
I8
I1
I-3
tp21
a(I0
I-3
I-1
I0
I-3
I-3
I-1
I-1
tp22
a(I5
I10
I-5
I22
I15
I-14
I2
I4
tp23
a(I-1
I-2
I0
I-6
I-6
I2
I0
I-1
tp24
a(I-2
I-1
I0
I-2
I-4
I2
I-1
I-3
tp25
a(I1
I1
I1
I3
I1
I-4
I2
I0
tp26
a(I-2
I-1
I-1
I-4
I-2
I-1
I-5
I-3
tp27
a(I-2
I-2
I-3
I-2
I-1
I1
I-4
I-4
tp28
a(I1
I1
I-1
I3
I4
I-3
I0
I-1
tp29
a(I-1
I-2
I0
I-2
I-1
I-1
I0
I-1
tp30
a(I1
I0
I-3
I3
I1
I1
I0
I1
tp31
a(I0
I-2
I-1
I-3
I-4
I1
I-1
I0
tp32
a(I0
I2
I-2
I4
I3
I-6
I-2
I0
tp33
a(I0
I1
I2
I0
I0
I-1
I0
I-1
tp34
a(I-1
I-3
I1
I-5
I-2
I2
I-2
I0
tp35
a(I-3
I-1
I-1
I-1
I-2
I-2
I-1
I-1
tp36
a(I1
I0
I-2
I6
I1
I-7
I-1
I-1
tp37
a(I-1
I-1
I-4
I-3
I-3
I-1
I-2
I-1
tp38
a(I1
I3
I-2
I3
I4
I-4
I-2
I0
tp39
a(I-1
I-2
I1
I0
I-2
I2
I-2
I-2
tp40
a(I0
I-1
I0
I-2
I-1
I1
I-1
I-2
tp41
a(I0
I-1
I0
I1
I1
I0
I1
I-1
tp42
a(I0
I-1
I-3
I2
I0
I-1
I-1
I0
tp43
a(I0
I0
I0
I-2
I-1
I-1
I0
I0
tp44
a(I-1
I-2
I-3
I-1
I-1
I1
I0
I-1
tp45
a(I-1
I-2
I-4
I0
I-1
I-4
I0
I-2
tp46
a(I-1
I0
I-2
I0
I0
I-1
I-1
I0
tp47
a(I-1
I-1
I-1
I-1
I-1
I-1
I-2
I-1
tp48
a(I0
I1
I0
I-1
I1
I-1
I-2
I-2
tp49
a(I-1
I0
I-3
I0
I-1
I0
I0
I-1
tp50
a(I0
I-1
I-1
I-2
I0
I1
I-1
I-1
tp51
a(I-1
I-1
I1
I0
I-2
I0
I-1
I-1
tp52
a(I-1
I1
I-1
I0
I0
I-4
I0
I-2
tp53
a(I-1
I0
I0
I-2
I-2
I1
I0
I0
tp54
a(I0
I-1
I1
I-1
I-1
I2
I0
I0
tp55
a(I-1
I-1
I-1
I-1
I-2
I-4
I-2
I-1
tp56
a(I0
I0
I-2
I0
I0
I-3
I1
I-2
tp57
a(I-1
I1
I-1
I-3
I-1
I0
I-1
I0
tp58
a(I-1
I0
I-1
I-1
I-1
I-1
I1
I-1
tp59
a(I-1
I-1
I0
I0
I-1
I0
I-2
I0
tp60
a(I-1
I-2
I-2
I1
I-1
I-2
I0
I-1
tp61
a(I0
I-2
I-1
I0
I0
I-1
I-1
I-2
tp62
a(I0
I0
I-1
I-1
I-1
I-2
I-3
I0
tp63
a(I1
I-2
I-1
I-1
I-1
I1
I-1
I-2
tp64
a(I-2
I-2
I1
I-1
I-1
I0
I-1
I-2
tp65
a(I-1
I-1
I0
I-2
I0
I0
I0
I-1
tp66
a(I-1
I-1
I-1
I1
I0
I-1
I-2
I-1
tp67
a(I-1
I0
I-1
I-1
I0
I-1
I1
I-1
tp68
a(I1
I-2
I1
I-1
I-1
I0
I0
I-1
tp69
a(I-1
I1
I-1
I-1
I0
I-2
I-1
I-1
tp70
a(I-1
I-1
I-1
I1
I0
I-3
I-1
I-2
tp71
a(I-1
I1
I0
I-1
I0
I-2
I-2
I0
tp72
a(I-2
I0
I-2
I-2
I-3
I1
I0
I1
tp73
a(I0
I0
I-2
I1
I-1
I-1
I-2
I-2
tp74
a(I0
I-1
I0
I-1
I2
I-1
I0
I-1
tp75
a(I0
I-1
I-1
I-2
I-1
I-3
I1
I-1
tp76
a(I0
I-1
I-1
I-2
I0
I-2
I-2
I0
tp77
a(I0
I0
I-1
I-1
I-1
I-1
I-1
I-1
tp78
a(I-1
I-1
I1
I-2
I-1
I0
I-2
I-2
tp79
a(I0
I-1
I-2
I1
I-1
I-3
I-2
I-2
tp80
a(I-2
I2
I0
I0
I-1
I-2
I0
I-1
tp81
a(I-1
I-2
I-2
I0
I-1
I2
I-1
I-1
tp82
a(I0
I-1
I0
I-2
I-2
I1
I0
I0
tp83
a(I1
I-1
I-1
I0
I-1
I-4
I0
I0
tp84
a(I0
I-2
I-1
I-1
I1
I-2
I0
I-1
tp85
a(I-1
I-1
I-1
I-3
I0
I0
I-1
I-1
tp86
a(I-1
I0
I0
I1
I-1
I-1
I-1
I0
tp87
a(I1
I-2
I-1
I-1
I-3
I0
I0
I0
tp88
a(I-1
I-2
I-1
I-2
I-3
I-1
I-1
I-2
tp89
a(I0
I-2
I0
I-2
I-1
I-2
I-1
I-1
tp90
a(I0
I-1
I-1
I0
I0
I-3
I-1
I-1
tp91
a(I-1
I-1
I1
I-2
I-1
I1
I-1
I-1
tp92
a(I-1
I-1
I-1
I-1
I0
I-1
I-2
I-1
tp93
a(I-1
I1
I-1
I0
I0
I-1
I-1
I-2
tp94
a(I0
I-1
I0
I0
I-1
I-2
I-2
I0
tp95
a(I-1
I-1
I-1
I-1
I-1
I0
I2
I-1
tp96
a(I-2
I0
I0
I-1
I-1
I-1
I1
I1
tp97
a(I1
I0
I-1
I-1
I0
I-2
I-1
I0
tp98
a(I0
I-1
I-1
I-3
I0
I1
I1
I0
tp99
a(I-3
I0
I-2
I0
I1
I0
I0
I-1
tp100
a(I0
I-1
I0
I-1
I-2
I-1
I-1
I0
tp101
a(I-1
I-1
I-1
I-1
I0
I0
I-1
I1
tp102
a(I-1
I-1
I0
I-2
I-1
I0
I-3
I-1
tp103
a(I-2
I-1
I1
I0
I-1
I-2
I-2
I-1
tp104
a(I-1
I-1
I-2
I-2
I0
I-3
I-2
I0
tp105
a(I-2
I0
I1
I-1
I-1
I0
I0
I-2
tp106
a(I-2
I-1
I-1
I-2
I0
I1
I0
I0
tp107
a(I0
I0
I-2
I-1
I0
I-2
I1
I0
tp108
a(I-1
I-1
I-1
I0
I2
I-2
I0
I0
tp109
a(I0
I-1
I0
I-2
I-2
I1
I-1
I-3
tp110
a(I0
I-2
I-1
I0
I-1
I0
I-1
I-1
tp111
a(I-1
I-2
I-1
I0
I-1
I-1
I0
I0
tp112
a(I-1
I-3
I0
I0
I-2
I0
I-2
I0
tp113
a(I0
I-1
I-1
I-1
I-1
I-2
I-2
I-2
tp114
a(I-1
I-1
I-1
I0
I-1
I-2
I-2
I-1
tp115
a(I-1
I-1
I-1
I-3
I0
I0
I-1
I-2
tp116
a(I-1
I0
I0
I-1
I-1
I0
I-1
I0
tp117
a(I-1
I-3
I-1
I-1
I1
I-2
I1
I1
tp118
a(I-2
I-1
I-2
I0
I-2
I-1
I-1
I0
tp119
a(I0
I0
I-1
I0
I-1
I1
I0
I0
tp120
a(I0
I-1
I0
I0
I-1
I0
I0
I-2
tp121
a(I0
I-1
I-1
I1
I-1
I-3
I-2
I0
tp122
a(I-1
I-1
I-2
I0
I-2
I1
I0
I0
tp123
a(I0
I0
I-2
I-1
I-1
I-3
I-2
I-2
tp124
a(I0
I-2
I-2
I-1
I-1
I0
I0
I0
tp125
a(I0
I-2
I-1
I-1
I-2
I-1
I0
I0
tp126
a(I-1
I2
I-1
I0
I-1
I0
I-2
I-2
tp127
a(I-2
I-1
I0
I0
I0
I-3
I-2
I0
tp128
a(I-2
I0
I-1
I0
I0
I-1
I-1
I-1
tp129
a(I-1
I2
I0
I0
I0
I2
I-1
I-1
tp130
a(I-1
I1
I0
I0
I-3
I-2
I0
I0
tp131
a(I-1
I-1
I-1
I1
I1
I-3
I0
I-1
tp132
a(I0
I-1
I-2
I0
I0
I-2
I-1
I-1
tp133
a(I-1
I-1
I-3
I-1
I-2
I-1
I0
I-1
tp134
a(I-1
I0
I-1
I0
I0
I-1
I-1
I0
tp135
a(I0
I-2
I0
I-1
I-1
I-1
I-2
I-1
tp136
a(I1
I-2
I-1
I-1
I0
I-1
I0
I0
tp137
a(I0
I-2
I-3
I1
I-1
I-3
I-2
I-1
tp138
a(I0
I-1
I-1
I0
I0
I1
I-1
I-2
tp139
a(I-2
I0
I-2
I0
I-2
I-2
I0
I0
tp140
a(I-1
I-4
I-1
I-1
I0
I-1
I-1
I0
tp141
a(I0
I0
I-1
I-3
I-1
I-2
I-2
I-1
tp142
a(I1
I-1
I-2
I0
I-1
I-3
I-1
I-1
tp143
a(I0
I-1
I-1
I-3
I0
I0
I-1
I-1
tp144
a(I0
I0
I-1
I0
I-3
I0
I-3
I-2
tp145
a(I0
I-1
I-1
I1
I-2
I0
I0
I-2
tp146
a(I0
I-1
I1
I-1
I-1
I0
I0
I-1
tp147
a(I-1
I0
I-1
I-1
I-1
I-3
I0
I-1
tp148
a(I1
I-2
I1
I0
I-1
I0
I-1
I0
tp149
a(I-1
I-2
I0
I-2
I-2
I0
I-1
I0
tp150
a(I0
I-1
I-2
I-1
I0
I-1
I0
I-1
tp151
a(I-1
I0
I-2
I0
I0
I-1
I-1
I-1
tp152
a(I-1
I-1
I0
I0
I0
I0
I0
I-1
tp153
a(I0
I-1
I-2
I-1
I0
I1
I-1
I-1
tp154
a(I0
I-1
I-1
I-1
I-3
I-1
I0
I-2
tp155
a(I-1
I-2
I-3
I0
I1
I-3
I1
I-2
tp156
a(I-1
I-1
I-1
I-1
I-2
I-2
I-2
I0
tp157
a(I-1
I-1
I0
I-2
I0
I1
I-3
I0
tp158
a(I-3
I-2
I-2
I-1
I0
I-1
I0
I0
tp159
a(I0
I-1
I-1
I-2
I-2
I-1
I-1
I-1
tp160
a(I-1
I-1
I0
I-2
I-3
I-1
I-1
I0
tp161
a(I0
I0
I-1
I1
I0
I-2
I-2
I-2
tp162
a(I-1
I-1
I-1
I-3
I0
I0
I0
I-2
tp163
a(I1
I0
I0
I-1
I0
I0
I0
I-2
tp164
a(I-2
I0
I-2
I-2
I0
I2
I-1
I0
tp165
a(I-3
I-1
I0
I0
I-1
I-5
I-2
I-1
tp166
a(I0
I0
I-1
I0
I-1
I-1
I0
I-2
tp167
a(I0
I0
I-1
I-2
I-1
I0
I1
I-1
tp168
a(I0
I-2
I-1
I-1
I0
I-1
I0
I0
tp169
a(I0
I-1
I-3
I-1
I-1
I-2
I0
I0
tp170
a(I-1
I-2
I-1
I-2
I0
I-2
I0
I1
tp171
a(I-2
I-1
I-1
I0
I0
I-2
I-1
I-1
tp172
a(I-27
I-46
I71
I-78
I-78
I56
I16
I-21
tp173
a(I-1
I8
I-28
I84
I37
I-103
I-9
I-5
tp174
a(I-2
I4
I-10
I31
I18
I-28
I-6
I-1
tp175
a(I7
I14
I-4
I13
I15
I-4
I1
I9
tp176
a(I5
I10
I-14
I4
I15
I5
I-5
I7
tp177
a(I-3
I-5
I10
I-32
I-14
I43
I0
I0
tp178
a(I-7
I-9
I2
I-27
I-18
I25
I-3
I-6
tp179
a(I-6
I-9
I1
I-21
I-13
I27
I-4
I-5
tp180
a(I5
I7
I-13
I12
I11
I-14
I-4
I3
tp181
a(I-1
I-3
I1
I-11
I-7
I7
I0
I-2
tp182
a(I4
I5
I-6
I7
I8
I-3
I0
I2
tp183
a(I-2
I-5
I6
I-14
I-9
I10
I2
I-3
tp184
a(I4
I7
I-13
I20
I15
I-26
I-2
I1
tp185
a(I4
I5
I0
I2
I4
I-7
I2
I2
tp186
a(I-2
I-5
I7
I-14
I-10
I17
I1
I-1
tp187
a(I-1
I-2
I3
I-1
I-5
I2
I1
I-2
tp188
a(I-2
I3
I-14
I17
I11
I-26
I-4
I-2
tp189
a(I-4
I-5
I-2
I-6
I-3
I5
I-4
I-2
tp190
a(I-1
I-3
I5
I-6
I-5
I11
I2
I0
tp191
a(I-1
I-3
I1
I0
I-2
I-4
I1
I-1
tp192
a(I4
I8
I-12
I20
I17
I-22
I-4
I2
tp193
a(I-1
I-2
I1
I-6
I-4
I7
I1
I-2
tp194
a(I0
I-2
I1
I-2
I-1
I4
I-1
I-2
tp195
a(I1
I1
I-2
I4
I2
I-5
I-1
I0
tp196
a(I-2
I-2
I0
I-4
I-3
I1
I-1
I-3
tp197
a(I-2
I-1
I-2
I-2
I0
I1
I-3
I-1
tp198
a(I0
I2
I-5
I4
I3
I-5
I-2
I0
tp199
a(I-1
I-1
I0
I-1
I-1
I1
I-1
I0
tp200
a(I1
I1
I-2
I1
I1
I-2
I0
I-1
tp201
a(I0
I0
I0
I-2
I-3
I1
I0
I-2
tp202
a(I-3
I0
I-3
I5
I2
I-7
I-1
I-1
tp203
a(I-1
I-1
I1
I-1
I0
I-1
I-1
I1
tp204
a(I-1
I-2
I1
I-4
I-2
I4
I-1
I-1
tp205
a(I-1
I0
I0
I0
I-3
I-2
I0
I-1
tp206
a(I0
I0
I-4
I2
I1
I-6
I-3
I-1
tp207
a(I-1
I0
I-1
I-4
I-3
I0
I-2
I-2
tp208
a(I0
I1
I-3
I5
I2
I-5
I0
I1
tp209
a(I-2
I-1
I-1
I-2
I-2
I1
I0
I-2
tp210
a(I0
I-1
I0
I-1
I-1
I0
I-1
I-1
tp211
a(I0
I1
I-1
I-1
I0
I-3
I-1
I-2
tp212
a(I2
I-1
I0
I1
I0
I-3
I-1
I-1
tp213
a(I-2
I-1
I-2
I-1
I0
I0
I0
I-1
tp214
a(I-2
I1
I-1
I-1
I-1
I0
I0
I0
tp215
a(I-1
I-1
I-1
I-1
I0
I-2
I0
I-2
tp216
a(I-1
I0
I-1
I-1
I1
I-1
I-1
I-1
tp217
a(I-1
I-1
I1
I-2
I-3
I0
I0
I0
tp218
a(I0
I-1
I-1
I0
I0
I0
I-1
I0
tp219
a(I-2
I-1
I-1
I0
I-1
I-3
I-2
I-1
tp220
a(I-2
I-1
I-1
I-2
I-1
I-1
I0
I0
tp221
a(I-1
I0
I0
I0
I-1
I-3
I-1
I1
tp222
a(I0
I-1
I-4
I0
I1
I-4
I-2
I-1
tp223
a(I1
I-1
I-1
I-1
I0
I0
I-1
I0
tp224
a(I-1
I-1
I0
I-1
I-2
I0
I-1
I-1
tp225
a(I0
I-1
I-1
I0
I-1
I-1
I-1
I-2
tp226
a(I-2
I0
I0
I2
I-1
I-1
I-1
I-1
tp227
a(I-1
I0
I0
I-1
I-2
I0
I-1
I-1
tp228
a(I-1
I-1
I-1
I0
I-1
I0
I-1
I0
tp229
a(I0
I-1
I-1
I0
I-1
I-4
I0
I-1
tp230
a(I0
I1
I-3
I-1
I0
I-3
I-2
I-1
tp231
a(I0
I-2
I-1
I-1
I-1
I1
I-1
I0
tp232
a(I0
I-2
I-2
I0
I-1
I-1
I-1
I0
tp233
a(I-1
I-1
I1
I-2
I-1
I0
I-3
I-1
tp234
a(I-1
I-1
I-2
I-1
I-1
I-2
I-1
I0
tp235
a(I-2
I-2
I0
I0
I0
I0
I-1
I-1
tp236
a(I-1
I0
I-2
I0
I-1
I-2
I-1
I0
tp237
a(I-1
I-1
I-1
I-1
I-2
I1
I-1
I0
tp238
a(I-1
I-1
I-1
I-2
I0
I0
I0
I-1
tp239
a(I-1
I-1
I-1
I-2
I-1
I-2
I-2
I-1
tp240
a(I-1
I-1
I-1
I-1
I0
I-1
I0
I-2
tp241
a(I-1
I-2
I-1
I0
I-1
I-2
I-2
I-1
tp242
a(I0
I-1
I-1
I0
I-1
I0
I0
I-1
tp243
a(I-1
I0
I-1
I0
I-1
I-2
I1
I-2
tp244
a(I-1
I-1
I1
I-2
I-1
I0
I0
I-1
tp245
a(I-1
I-2
I-3
I0
I0
I-3
I-1
I-1
tp246
a(I-1
I-2
I-1
I-1
I0
I0
I-2
I-1
tp247
a(I-1
I-1
I-2
I-1
I-2
I0
I0
I-1
tp248
a(I-1
I-2
I0
I-1
I-1
I-1
I-2
I-1
tp249
a(I-1
I-1
I1
I0
I-1
I-1
I-2
I-1
tp250
a(I-1
I0
I-3
I-1
I-2
I-1
I-1
I-2
tp251
a(I0
I0
I-1
I-1
I-1
I-1
I-1
I-1
tp252
a(I-2
I0
I0
I-1
I-2
I1
I-2
I0
tp253
a(I-1
I1
I-1
I0
I-1
I-1
I0
I-1
tp254
a(I0
I-1
I1
I-1
I-1
I-2
I0
I0
tp255
a(I-1
I-1
I-2
I-1
I0
I0
I0
I0
tp256
a(I0
I-1
I-1
I-1
I-1
I-2
I-2
I-1
tp257
a(I-2
I0
I0
I-1
I-1
I1
I-1
I0
tp258
a(I-1
I-1
I0
I0
I0
I0
I-1
I0
tp259
a(I-2
I-1
I-2
I0
I-1
I-2
I-1
I-1
tp260
a(I0
I0
I-1
I1
I0
I0
I0
I-1
tp261
a(I0
I-2
I-1
I-2
I-2
I0
I2
I-1
tp262
a(I-2
I0
I0
I-1
I0
I1
I1
I1
tp263
a(I-1
I0
I-1
I1
I-1
I-2
I-2
I-1
tp264
a(I-1
I-1
I-2
I-1
I0
I-1
I0
I-1
tp265
a(I1
I-1
I0
I0
I-2
I-2
I-1
I0
tp266
a(I0
I0
I-1
I-2
I-2
I-1
I-1
I-1
tp267
a(I-1
I0
I0
I0
I0
I-2
I-1
I-2
tp268
a(I0
I-1
I-3
I0
I-1
I0
I-1
I-3
tp269
a(I0
I-1
I-2
I0
I-1
I-2
I-1
I0
tp270
a(I-2
I0
I-1
I1
I-1
I-1
I-1
I-2
tp271
a(I-2
I-2
I-2
I-1
I0
I1
I0
I-1
tp272
a(I-1
I-1
I1
I-1
I0
I0
I-2
I-3
tp273
a(I-1
I1
I0
I-1
I-1
I-3
I-2
I-1
tp274
a(I-1
I-3
I1
I-1
I1
I-1
I0
I-1
tp275
a(I-1
I-2
I-2
I-1
I1
I1
I0
I0
tp276
a(I-2
I-1
I-1
I1
I-2
I0
I-2
I0
tp277
a(I-2
I-2
I-2
I2
I-1
I-2
I1
I-1
tp278
a(I0
I-2
I-1
I1
I-2
I-2
I0
I0
tp279
a(I-2
I0
I1
I-2
I1
I0
I-1
I-2
tp280
a(I-1
I-1
I-1
I-1
I-1
I-2
I-3
I-1
tp281
a(I0
I-1
I1
I0
I0
I-1
I-1
I0
tp282
a(I0
I-1
I0
I-3
I-1
I-1
I-1
I-1
tp283
a(I-1
I0
I-2
I-2
I1
I-2
I0
I-1
tp284
a(I-1
I-1
I-3
I-1
I-1
I-1
I0
I-1
tp285
a(I0
I-1
I-2
I0
I-1
I-1
I-1
I0
tp286
a(I0
I-2
I-1
I0
I0
I1
I0
I0
tp287
a(I0
I-1
I-1
I-1
I-1
I-3
I-1
I-1
tp288
a(I-1
I-1
I-1
I-1
I1
I-1
I-2
I0
tp289
a(I-2
I0
I0
I-2
I-1
I1
I-1
I-2
tp290
a(I0
I0
I-1
I0
I-1
I-1
I-2
I-1
tp291
a(I-1
I-2
I-1
I0
I-2
I-3
I-1
I-1
tp292
a(I0
I1
I-1
I0
I-3
I-1
I-2
I-1
tp293
a(I-1
I-1
I-2
I0
I0
I-2
I1
I0
tp294
a(I-1
I-1
I-1
I-1
I-1
I0
I-1
I-1
tp295
a(I-1
I-2
I-1
I0
I-1
I0
I-1
I-1
tp296
a(I-1
I-1
I1
I0
I1
I0
I0
I0
tp297
a(I-1
I0
I-2
I0
I1
I-2
I-2
I1
tp298
a(I-1
I-1
I-2
I-1
I-2
I0
I-2
I-1
tp299
a(I-1
I0
I0
I-2
I-2
I1
I-2
I-2
tp300
a(I-1
I-1
I-1
I-1
I-1
I-1
I-2
I-2
tp301
a(I0
I-2
I-1
I1
I0
I-1
I-1
I-1
tp302
a(I0
I-1
I0
I0
I1
I-2
I-1
I1
tp303
a(I0
I-1
I-1
I-2
I-2
I0
I0
I-2
tp304
a(I0
I-1
I-2
I0
I-1
I-2
I-1
I-1
tp305
a(I1
I-1
I-1
I-1
I-2
I0
I-1
I0
tp306
a(I0
I-1
I0
I-2
I-2
I-1
I-1
I0
tp307
a(I-2
I-2
I-1
I-1
I-2
I-4
I0
I-1
tp308
a(I-1
I-1
I-1
I0
I0
I0
I0
I-2
tp309
a(I-1
I0
I1
I-1
I0
I2
I-1
I0
tp310
a(I0
I-1
I-3
I0
I-1
I-2
I1
I-1
tp311
a(I-1
I0
I-2
I0
I-1
I-4
I-2
I0
tp312
a(I-2
I-1
I-2
I1
I1
I-1
I0
I0
tp313
a(I0
I-1
I-2
I-3
I-1
I-1
I0
I0
tp314
a(I-2
I0
I0
I-1
I-1
I1
I-1
I0
tp315
a(I-1
I-1
I-1
I0
I-1
I-3
I-1
I0
tp316
a(I-1
I-2
I1
I0
I0
I-1
I0
I-1
tp317
a(I0
I-1
I-1
I0
I0
I-4
I-2
I0
tp318
a(I-1
I0
I-1
I-2
I0
I0
I1
I0
tp319
a(I0
I-1
I0
I-2
I-2
I0
I-1
I-1
tp320
a(I-1
I-1
I-1
I0
I-1
I0
I0
I-2
tp321
a(I1
I-2
I1
I0
I-1
I-3
I0
I-3
tp322
a(I-1
I-1
I-1
I-1
I-2
I-2
I-1
I0
tp323
a(I0
I-1
I0
I0
I-1
I-1
I-1
I0
tp324
a(I0
I-1
I-1
I-2
I-1
I-2
I-1
I2
tp325
a(I-1
I0
I-1
I1
I0
I-3
I-2
I-3
tp326
a(I-1
I-1
I-2
I-1
I0
I0
I-1
I0
tp327
a(I-1
I-1
I-1
I-1
I0
I0
I-1
I-2
tp328
a(I-2
I-1
I0
I-1
I-1
I0
I1
I0
tp329
a(I1
I0
I0
I0
I-2
I0
I-2
I0
tp330
a(I0
I0
I-1
I-1
I-1
I-2
I0
I-1
tp331
a(I-2
I-1
I-1
I-2
I1
I-2
I-3
I0
tp332
a(I-1
I0
I0
I0
I0
I-2
I-1
I0
tp333
a(I0
I-1
I1
I1
I-1
I0
I-1
I-2
tp334
a(I1
I-1
I0
I-2
I-2
I0
I0
I0
tp335
a(I2
I-2
I-1
I1
I-2
I-3
I0
I-1
tp336
as.