(dp0
S'close'
p1
(lp2
(I17
I-1
I3
I11
I4
I1
I1
I-4
tp3
a(I-22
I4
I-5
I-5
I-11
I-2
I-10
I-4
tp4
a(I-1
I-2
I6
I-2
I-16
I12
I-6
I-8
tp5
a(I24
I-1
I0
I-13
I-16
I4
I11
I35
tp6
a(I-9
I-2
I2
I3
I-2
I-6
I-12
I-29
tp7
a(I-5
I5
I2
I8
I0
I1
I4
I19
tp8
a(I-15
I-5
I-1
I-7
I9
I12
I14
I-3
tp9
a(I8
I-5
I6
I2
I-14
I10
I7
I9
tp10
a(I-2
I-7
I-3
I-4
I-8
I2
I-15
I0
tp11
a(I-22
I0
I-4
I15
I0
I0
I0
I5
tp12
a(I19
I1
I0
I-8
I-27
I22
I-8
I22
tp13
a(I-37
I-2
I-2
I2
I-7
I6
I4
I-20
tp14
a(I12
I0
I2
I-13
I-41
I26
I-3
I14
tp15
a(I9
I-1
I0
I-15
I-7
I16
I9
I-8
tp16
a(I-10
I-5
I-2
I0
I-28
I-4
I3
I11
tp17
a(I-5
I2
I2
I4
I-4
I-2
I-26
I-14
tp18
a(I-3
I-4
I-2
I2
I-28
I21
I10
I-6
tp19
a(I13
I-8
I2
I9
I-12
I15
I-11
I-3
tp20
a(I-2
I2
I-3
I-12
I-12
I-1
I13
I-1
tp21
a(I-1
I3
I3
I21
I-8
I3
I1
I-4
tp22
a(I19
I-2
I-1
I-14
I-18
I9
I-2
I26
tp23
a(I4
I-8
I6
I-1
I-18
I17
I5
I0
tp24
a(I1
I-2
I2
I5
I13
I5
I0
I-4
tp25
a(I17
I3
I-4
I0
I-2
I-3
I5
I34
tp26
a(I5
I-4
I-6
I4
I6
I-6
I0
I0
tp27
a(I4
I4
I-7
I6
I-10
I-1
I3
I1
tp28
a(I-6
I-2
I-9
I-17
I2
I-5
I-10
I-37
tp29
a(I10
I1
I3
I-6
I0
I-8
I9
I20
tp30
a(I-7
I-2
I-5
I23
I27
I-21
I4
I-13
tp31
a(I-10
I3
I-8
I15
I2
I-6
I-6
I-4
tp32
a(I-4
I0
I0
I17
I5
I-4
I5
I8
tp33
a(I-2
I-3
I-7
I7
I8
I-14
I6
I-21
tp34
a(I7
I2
I-6
I3
I11
I-20
I-4
I7
tp35
a(I-24
I3
I-7
I10
I4
I-9
I-17
I-8
tp36
a(I1
I0
I-1
I0
I-3
I5
I-2
I1
tp37
a(I-3
I-4
I-7
I3
I-1
I3
I-9
I-10
tp38
a(I6
I3
I-2
I-6
I-11
I-10
I5
I0
tp39
a(I-32
I1
I-1
I16
I11
I-12
I-1
I0
tp40
a(I5
I-2
I-10
I12
I12
I-26
I-13
I-9
tp41
a(I-28
I10
I1
I14
I5
I-10
I-21
I-20
tp42
a(I18
I-2
I-1
I7
I-6
I12
I17
I9
tp43
a(I-19
I-5
I-6
I-9
I-2
I24
I0
I4
tp44
a(I11
I1
I-2
I-4
I17
I-5
I3
I-10
tp45
a(I25
I2
I-8
I1
I1
I-1
I-3
I17
tp46
a(I-10
I0
I1
I-15
I-16
I12
I-9
I-4
tp47
a(I12
I-5
I-3
I-4
I-20
I3
I16
I-1
tp48
a(I-8
I2
I-1
I16
I13
I-13
I-4
I-5
tp49
a(I10
I10
I-1
I2
I8
I-9
I7
I6
tp50
a(I-6
I0
I3
I-14
I14
I3
I-1
I-2
tp51
a(I3
I12
I1
I-12
I4
I-3
I5
I4
tp52
a(I-5
I-4
I-1
I-21
I-25
I20
I-6
I-4
tp53
a(I17
I-8
I2
I2
I-18
I19
I5
I-8
tp54
a(I-21
I-6
I-11
I14
I-2
I-4
I9
I-18
tp55
a(I-7
I13
I7
I-3
I3
I-1
I-6
I4
tp56
a(I3
I-2
I-4
I2
I-17
I14
I5
I7
tp57
a(I22
I-5
I3
I-15
I-10
I9
I-1
I19
tp58
a(I26
I-6
I-7
I12
I-18
I4
I0
I36
tp59
a(I-31
I0
I-3
I-2
I-1
I0
I3
I-11
tp60
a(I17
I1
I1
I-2
I-5
I15
I-7
I11
tp61
a(I6
I-3
I2
I-17
I-14
I14
I11
I11
tp62
a(I4
I-1
I3
I-11
I-5
I8
I7
I5
tp63
a(I-4
I-6
I0
I-5
I-10
I8
I1
I1
tp64
a(I-12
I1
I-2
I14
I-17
I-4
I-4
I-4
tp65
a(I-2
I-2
I-8
I2
I-2
I0
I-3
I4
tp66
a(I-14
I-11
I0
I-11
I-11
I28
I0
I-6
tp67
a(I11
I2
I4
I3
I-9
I-2
I10
I-14
tp68
a(I-17
I4
I1
I2
I28
I-14
I-10
I-20
tp69
a(I17
I5
I-4
I19
I-3
I2
I-11
I7
tp70
a(I-32
I-4
I4
I-1
I-32
I7
I-4
I-7
tp71
a(I-13
I-4
I-4
I-9
I-10
I7
I-9
I-1
tp72
a(I27
I-3
I-4
I-5
I8
I-8
I5
I0
tp73
a(I-19
I3
I-1
I2
I-2
I-1
I0
I-9
tp74
a(I-5
I-3
I-4
I14
I17
I-1
I4
I7
tp75
a(I-5
I3
I-3
I-7
I1
I2
I1
I-2
tp76
a(I10
I-3
I1
I3
I-3
I17
I-8
I-1
tp77
a(I16
I-7
I-2
I1
I-15
I12
I7
I0
tp78
a(I7
I1
I-9
I-4
I3
I-5
I-4
I-7
tp79
a(I-6
I3
I7
I-3
I-1
I-1
I0
I10
tp80
a(I27
I-1
I-3
I-13
I-13
I10
I-9
I26
tp81
a(I-1
I-1
I8
I-5
I-8
I12
I-1
I6
tp82
a(I-18
I-2
I-3
I13
I15
I-5
I6
I-31
tp83
a(I-5
I5
I-1
I4
I-6
I2
I-8
I9
tp84
a(I16
I6
I7
I-12
I-39
I23
I14
I-5
tp85
a(I1
I-5
I-4
I-5
I-6
I8
I1
I3
tp86
a(I-4
I1
I2
I3
I-10
I-3
I-5
I6
tp87
a(I12
I3
I-2
I-1
I-4
I5
I-15
I-1
tp88
a(I11
I-3
I4
I-6
I-3
I11
I16
I16
tp89
a(I-22
I-3
I-4
I11
I-8
I2
I-10
I10
tp90
a(I1
I4
I0
I-1
I3
I1
I-1
I6
tp91
a(I7
I3
I-3
I-11
I-7
I-2
I3
I-7
tp92
a(I4
I-6
I-1
I4
I-11
I5
I-6
I4
tp93
a(I28
I-6
I-5
I-2
I-8
I8
I14
I-2
tp94
a(I-16
I2
I-8
I9
I-4
I-2
I2
I14
tp95
a(I22
I8
I4
I-3
I-9
I4
I-11
I7
tp96
a(I-51
I-7
I-6
I-6
I3
I-6
I-8
I-28
tp97
a(I4
I-4
I1
I-11
I-7
I10
I-1
I-5
tp98
a(I13
I3
I8
I1
I-13
I18
I1
I-14
tp99
a(I-2
I-3
I3
I-3
I-9
I5
I8
I4
tp100
a(I18
I-2
I-1
I-4
I-12
I-19
I-1
I-1
tp101
a(I-14
I4
I-2
I-1
I-5
I3
I-17
I-5
tp102
a(I21
I-1
I1
I-4
I-19
I7
I6
I22
tp103
a(I2
I-1
I1
I1
I-10
I9
I14
I-7
tp104
a(I0
I3
I-4
I13
I13
I0
I-4
I-3
tp105
a(I5
I0
I0
I-8
I-5
I3
I-2
I1
tp106
a(I-20
I-2
I0
I-4
I-23
I14
I-9
I-27
tp107
a(I13
I-3
I-2
I0
I-5
I10
I-2
I4
tp108
a(I-7
I3
I3
I15
I8
I-14
I-1
I0
tp109
a(I-7
I-1
I-4
I-6
I-5
I1
I-5
I-9
tp110
a(I11
I2
I-4
I-12
I-5
I-7
I13
I17
tp111
a(I-20
I0
I2
I7
I-5
I3
I-13
I-15
tp112
a(I4
I-3
I0
I-8
I-29
I11
I-1
I-8
tp113
a(I-8
I-5
I-2
I-6
I-8
I3
I-1
I-21
tp114
a(I6
I2
I-4
I16
I14
I-2
I6
I-7
tp115
a(I-7
I4
I0
I-5
I-8
I7
I-6
I-1
tp116
a(I-13
I-5
I-2
I-12
I-3
I10
I-5
I-22
tp117
a(I-4
I-4
I-1
I-2
I-13
I2
I15
I-13
tp118
a(I-8
I2
I-2
I9
I-12
I-9
I-12
I-3
tp119
a(I-16
I3
I-1
I5
I-7
I-3
I0
I-3
tp120
a(I22
I-1
I3
I-3
I-24
I10
I1
I-10
tp121
a(I4
I-1
I2
I-18
I-7
I12
I-10
I23
tp122
a(I-2
I-7
I6
I0
I-14
I13
I0
I8
tp123
a(I-5
I-4
I-1
I-4
I-12
I9
I3
I2
tp124
a(I-6
I1
I-8
I6
I18
I-11
I-2
I-3
tp125
a(I14
I3
I-2
I-12
I-9
I3
I7
I18
tp126
a(I-35
I-5
I-1
I7
I3
I1
I-4
I-21
tp127
a(I10
I-4
I1
I-3
I-13
I6
I2
I19
tp128
a(I8
I2
I-1
I8
I7
I-6
I-2
I-10
tp129
a(I-25
I-3
I-3
I6
I-6
I7
I0
I-1
tp130
a(I19
I-3
I-1
I-9
I-23
I14
I-7
I11
tp131
a(I2
I-3
I4
I-9
I-5
I9
I8
I9
tp132
a(I-5
I5
I-4
I10
I-7
I-17
I-2
I-1
tp133
a(I-7
I-1
I-4
I8
I-1
I5
I-22
I-8
tp134
a(I-4
I-3
I-5
I13
I27
I-14
I-14
I-34
tp135
a(I-13
I5
I-4
I-11
I-4
I-2
I-18
I-8
tp136
a(I1
I-5
I-1
I-7
I-4
I19
I4
I0
tp137
a(I-4
I0
I4
I-4
I-10
I10
I3
I-7
tp138
a(I-3
I-2
I-9
I1
I18
I-9
I-8
I5
tp139
a(I-13
I1
I2
I7
I-2
I2
I12
I0
tp140
a(I6
I2
I1
I-8
I-11
I11
I8
I0
tp141
a(I1
I-6
I4
I-10
I-9
I9
I-1
I-1
tp142
a(I11
I3
I0
I3
I3
I-7
I-7
I16
tp143
a(I-23
I-1
I-3
I-6
I-6
I6
I8
I-21
tp144
a(I19
I-2
I0
I4
I-8
I8
I-13
I10
tp145
a(I-21
I-2
I-10
I-1
I-4
I8
I13
I-23
tp146
a(I-6
I-4
I-3
I-4
I-7
I13
I5
I7
tp147
a(I-3
I-7
I-2
I3
I-8
I6
I-11
I-22
tp148
a(I-10
I1
I-3
I1
I9
I-6
I5
I6
tp149
a(I8
I1
I-6
I-5
I-1
I4
I-6
I19
tp150
a(I3
I1
I7
I-12
I-12
I12
I6
I-1
tp151
a(I2
I-4
I2
I4
I-7
I11
I-9
I3
tp152
a(I-5
I3
I-5
I8
I-17
I3
I0
I-5
tp153
a(I19
I3
I3
I4
I-5
I1
I-8
I15
tp154
a(I-24
I-6
I-4
I5
I-21
I2
I5
I-4
tp155
a(I34
I0
I1
I0
I-8
I10
I20
I9
tp156
a(I-33
I-1
I-5
I-5
I30
I-23
I-26
I14
tp157
a(I13
I3
I5
I-3
I-2
I3
I-4
I3
tp158
a(I15
I3
I-3
I3
I-8
I17
I22
I5
tp159
a(I-14
I4
I4
I-5
I-3
I1
I1
I-12
tp160
a(I-4
I-2
I-2
I-13
I-24
I10
I-6
I0
tp161
a(I4
I-5
I1
I-4
I-11
I8
I11
I6
tp162
a(I6
I0
I1
I5
I3
I-13
I-7
I5
tp163
a(I9
I3
I0
I4
I-2
I1
I0
I4
tp164
a(I-8
I-6
I-7
I1
I-16
I14
I3
I-12
tp165
a(I8
I4
I4
I-9
I-10
I3
I20
I5
tp166
a(I-22
I-1
I-4
I16
I3
I-5
I-17
I-8
tp167
a(I17
I2
I0
I-6
I-10
I9
I0
I5
tp168
a(I-2
I-1
I2
I-3
I-31
I14
I-9
I-4
tp169
a(I-1
I-2
I-1
I-19
I-10
I8
I12
I3
tp170
a(I9
I-5
I-2
I-1
I-15
I10
I1
I-11
tp171
a(I11
I-5
I-5
I-5
I-14
I8
I-12
I5
tp172
a(I-7
I4
I-4
I5
I8
I-13
I13
I-11
tp173
a(I-8
I-5
I-4
I5
I-8
I-1
I-14
I15
tp174
a(I-3
I0
I5
I-7
I-8
I8
I-8
I-42
tp175
a(I-18
I-3
I6
I7
I-10
I8
I6
I4
tp176
a(I-16
I-2
I-9
I-4
I9
I-16
I-4
I7
tp177
a(I16
I4
I1
I-12
I-4
I7
I-1
I-15
tp178
a(I-9
I-6
I2
I-1
I-15
I7
I4
I16
tp179
a(I6
I-6
I-7
I0
I-3
I7
I-6
I-11
tp180
a(I-1
I9
I1
I-2
I4
I-7
I-2
I-1
tp181
a(I-3
I-3
I-3
I-11
I-10
I11
I2
I2
tp182
a(I-13
I12
I2
I9
I17
I-6
I-2
I-4
tp183
a(I-2
I2
I0
I-14
I-22
I6
I-1
I0
tp184
a(I20
I-2
I4
I-19
I-16
I21
I9
I13
tp185
a(I-4
I-6
I-5
I7
I-12
I6
I-1
I6
tp186
a(I6
I4
I-2
I6
I-16
I-9
I-17
I11
tp187
a(I-7
I2
I0
I4
I7
I8
I2
I-31
tp188
a(I12
I-5
I-1
I-6
I-6
I27
I14
I18
tp189
a(I-21
I-4
I8
I-13
I-10
I6
I-11
I-31
tp190
a(I-13
I0
I-7
I10
I11
I-10
I-2
I-17
tp191
a(I1
I3
I5
I-2
I-11
I11
I0
I7
tp192
a(I-15
I1
I3
I-2
I-20
I4
I7
I-1
tp193
a(I9
I-1
I-1
I0
I-6
I10
I-1
I-1
tp194
a(I4
I-5
I-1
I-3
I-4
I25
I-2
I-7
tp195
a(I-23
I-6
I-6
I2
I-9
I6
I1
I-6
tp196
a(I-3
I-1
I-10
I8
I22
I-14
I-15
I3
tp197
a(I6
I1
I4
I-20
I-6
I12
I7
I6
tp198
a(I-11
I-6
I2
I-1
I-8
I10
I8
I18
tp199
a(I-8
I0
I1
I4
I-13
I5
I-9
I-11
tp200
a(I-7
I4
I-5
I4
I11
I-7
I-11
I2
tp201
a(I-7
I0
I-1
I1
I-10
I7
I-3
I-7
tp202
a(I20
I-3
I2
I-3
I-18
I12
I3
I0
tp203
a(I-3
I-5
I4
I-5
I-13
I8
I5
I5
tp204
a(I-5
I-4
I-1
I16
I1
I-4
I3
I-9
tp205
a(I5
I5
I-2
I-9
I-10
I8
I-4
I10
tp206
a(I2
I3
I-1
I-3
I-7
I1
I-10
I-2
tp207
a(I-13
I-10
I-7
I6
I-12
I10
I2
I-15
tp208
a(I-2
I2
I3
I-8
I-14
I1
I-2
I-13
tp209
a(I6
I-3
I-7
I-9
I0
I11
I-8
I2
tp210
a(I-22
I-1
I-3
I12
I17
I-6
I6
I5
tp211
a(I-1
I4
I5
I-2
I-7
I2
I-2
I-2
tp212
a(I6
I-6
I-6
I-14
I-6
I11
I-1
I-4
tp213
a(I9
I-3
I1
I-1
I-11
I8
I20
I0
tp214
a(I-10
I3
I-7
I4
I5
I-10
I-8
I3
tp215
a(I5
I2
I3
I-8
I-8
I5
I-13
I18
tp216
a(I1
I-2
I-1
I7
I-6
I5
I14
I-13
tp217
a(I-9
I-1
I-1
I-1
I4
I5
I-11
I12
tp218
a(I20
I-3
I-3
I2
I-11
I20
I-5
I-6
tp219
a(I-8
I-5
I1
I-17
I-14
I6
I-6
I-16
tp220
a(I-8
I8
I7
I15
I-3
I-3
I-8
I-3
tp221
a(I-13
I0
I-1
I-6
I-11
I11
I-4
I-8
tp222
a(I11
I2
I4
I-5
I-17
I7
I16
I24
tp223
a(I14
I0
I1
I-4
I-3
I12
I6
I1
tp224
a(I-7
I-1
I-4
I2
I1
I-7
I-2
I-14
tp225
a(I-1
I-5
I2
I5
I-10
I20
I-12
I-15
tp226
a(I-4
I3
I-2
I-10
I-4
I17
I18
I8
tp227
a(I3
I-8
I-5
I-1
I-5
I12
I6
I3
tp228
a(I13
I10
I-1
I15
I-1
I-17
I-12
I-13
tp229
a(I-7
I1
I0
I-4
I-5
I5
I17
I-5
tp230
a(I4
I6
I-2
I-8
I-17
I-14
I6
I3
tp231
a(I-5
I3
I3
I-8
I-28
I8
I-6
I-6
tp232
a(I2
I-6
I2
I2
I-17
I8
I-5
I0
tp233
a(I5
I-6
I-2
I-4
I-13
I-2
I-11
I-18
tp234
a(I-3
I4
I-1
I14
I9
I-5
I1
I8
tp235
a(I-4
I-1
I0
I-21
I-10
I-6
I-2
I5
tp236
a(I4
I-5
I0
I0
I-18
I9
I3
I-7
tp237
a(I-1
I2
I-5
I11
I-9
I6
I-14
I11
tp238
a(I20
I3
I-7
I-7
I5
I-4
I18
I7
tp239
a(I0
I7
I8
I-6
I-13
I-1
I-11
I2
tp240
a(I6
I0
I1
I-10
I-20
I19
I2
I10
tp241
a(I-7
I-8
I-3
I-4
I-8
I7
I11
I-4
tp242
a(I-28
I-4
I0
I-5
I-10
I1
I-15
I-16
tp243
a(I-8
I-2
I-1
I-5
I-11
I7
I13
I7
tp244
a(I7
I5
I-5
I10
I5
I3
I-10
I-8
tp245
a(I3
I-2
I0
I-4
I-12
I16
I-7
I4
tp246
a(I11
I-7
I-2
I-1
I-10
I16
I10
I18
tp247
a(I-5
I0
I-1
I3
I-6
I-3
I-2
I-31
tp248
a(I6
I-1
I-7
I-3
I-2
I-3
I2
I7
tp249
a(I-13
I4
I3
I2
I-13
I7
I-22
I-8
tp250
a(I1
I0
I2
I-4
I-8
I6
I-5
I-7
tp251
a(I2
I-9
I0
I4
I-9
I8
I-3
I15
tp252
a(I-19
I2
I-3
I4
I-4
I0
I-7
I-6
tp253
a(I-5
I-3
I4
I1
I-12
I8
I-10
I-6
tp254
a(I-17
I6
I-5
I14
I4
I0
I-11
I16
tp255
a(I-9
I-5
I-2
I-10
I-23
I16
I17
I1
tp256
a(I1
I-2
I5
I-2
I-17
I5
I-3
I-9
tp257
a(I-18
I-4
I-6
I1
I-3
I-2
I5
I7
tp258
a(I9
I6
I0
I-1
I-5
I0
I-17
I-1
tp259
a(I-11
I-1
I-1
I0
I-16
I10
I13
I2
tp260
a(I13
I-6
I5
I-8
I-19
I15
I3
I5
tp261
a(I-17
I-4
I-2
I-1
I-1
I-3
I-22
I-12
tp262
a(I-4
I5
I-2
I2
I-6
I-6
I13
I14
tp263
a(I15
I2
I6
I2
I4
I15
I-1
I-4
tp264
a(I-10
I0
I12
I-7
I-14
I2
I-4
I6
tp265
a(I-8
I-7
I-7
I7
I4
I9
I-3
I-7
tp266
a(I1
I-5
I-1
I-9
I-17
I19
I17
I4
tp267
a(I-8
I5
I0
I13
I-13
I2
I-15
I-6
tp268
a(I17
I2
I-2
I5
I-6
I2
I-7
I-3
tp269
a(I3
I-4
I0
I-10
I-12
I6
I-1
I3
tp270
a(I28
I-2
I2
I-5
I-13
I18
I1
I0
tp271
a(I-32
I-8
I-5
I3
I-8
I3
I5
I12
tp272
a(I2
I3
I7
I17
I5
I-9
I-10
I-1
tp273
a(I7
I3
I-3
I-24
I-2
I4
I9
I-7
tp274
a(I1
I-6
I2
I5
I-11
I13
I-6
I-1
tp275
a(I33
I6
I0
I-24
I5
I7
I13
I1
tp276
a(I-23
I4
I-8
I17
I0
I-2
I-10
I15
tp277
a(I-8
I-5
I-1
I4
I-9
I10
I-4
I-7
tp278
a(I-9
I2
I-5
I-7
I-4
I4
I-6
I-9
tp279
a(I9
I-6
I-2
I2
I-29
I21
I4
I-14
tp280
a(I-25
I-4
I-6
I-19
I-9
I1
I-8
I-10
tp281
a(I40
I-3
I1
I2
I-7
I3
I5
I5
tp282
a(I-39
I5
I1
I2
I-1
I-3
I0
I-8
tp283
a(I8
I-3
I-1
I-7
I-27
I19
I-4
I0
tp284
a(I-18
I-5
I-1
I1
I-14
I12
I3
I4
tp285
a(I11
I2
I3
I-2
I5
I-6
I-17
I7
tp286
a(I15
I0
I-8
I6
I-1
I3
I24
I4
tp287
a(I2
I4
I7
I-9
I-6
I8
I1
I-10
tp288
a(I-1
I-3
I1
I-8
I-8
I14
I6
I6
tp289
a(I-20
I0
I0
I7
I9
I-3
I-4
I-27
tp290
a(I8
I-2
I-2
I-6
I-14
I11
I-9
I-4
tp291
a(I-8
I-6
I-2
I4
I8
I9
I19
I-14
tp292
a(I-1
I9
I4
I8
I-2
I-4
I-23
I-5
tp293
a(I-17
I-3
I-3
I-11
I-30
I10
I8
I2
tp294
a(I-9
I-6
I2
I8
I-8
I7
I12
I13
tp295
a(I20
I6
I-3
I2
I-5
I3
I3
I-3
tp296
a(I2
I3
I3
I-13
I-9
I-2
I-17
I-7
tp297
a(I-11
I-7
I-2
I-2
I-5
I22
I14
I15
tp298
a(I10
I0
I-2
I-13
I-15
I6
I-5
I-5
tp299
a(I2
I-5
I-2
I5
I0
I1
I6
I14
tp300
a(I0
I4
I-5
I3
I2
I0
I6
I-3
tp301
a(I-12
I-4
I1
I-5
I2
I7
I-19
I-16
tp302
a(I17
I5
I-6
I-9
I-7
I3
I-2
I7
tp303
a(I-22
I0
I3
I9
I-21
I8
I4
I6
tp304
a(I-7
I-6
I1
I-11
I-3
I-8
I4
I0
tp305
a(I7
I3
I-1
I6
I-1
I-2
I-11
I-4
tp306
a(I-9
I3
I0
I-3
I-7
I0
I-9
I-9
tp307
a(I20
I1
I-2
I-7
I-15
I23
I22
I16
tp308
a(I-12
I-10
I0
I-2
I-8
I19
I-4
I-23
tp309
a(I5
I0
I-2
I5
I-6
I-15
I-5
I8
tp310
a(I8
I2
I-8
I0
I-3
I2
I0
I-12
tp311
a(I-15
I1
I2
I-5
I-15
I17
I-5
I-11
tp312
a(I11
I-6
I-4
I-6
I-11
I17
I4
I5
tp313
a(I20
I1
I8
I0
I-3
I11
I-4
I7
tp314
a(I-2
I-5
I-3
I1
I-15
I19
I16
I-5
tp315
a(I2
I-5
I-6
I9
I-1
I-6
I-1
I-6
tp316
a(I0
I3
I-3
I-2
I2
I5
I-9
I0
tp317
a(I-6
I6
I10
I2
I-23
I21
I1
I-8
tp318
a(I-4
I-3
I2
I-2
I-8
I14
I8
I-3
tp319
a(I-10
I-3
I-6
I1
I15
I-14
I1
I8
tp320
a(I10
I1
I0
I8
I-11
I2
I-6
I4
tp321
a(I-7
I-3
I-2
I-1
I-20
I5
I2
I-14
tp322
a(I8
I-1
I2
I-2
I-15
I21
I3
I-4
tp323
a(I3
I0
I0
I-7
I-2
I-15
I-4
I6
tp324
a(I-12
I2
I-4
I7
I-4
I3
I-7
I-11
tp325
a(I23
I-1
I2
I-4
I-32
I8
I0
I1
tp326
a(I-18
I4
I-1
I4
I-6
I2
I-12
I7
tp327
a(I0
I-9
I-7
I-5
I-13
I3
I-4
I7
tp328
a(I-9
I3
I3
I-13
I-11
I7
I-4
I-1
tp329
a(I2
I0
I-4
I15
I29
I-13
I8
I-23
tp330
a(I12
I2
I-5
I13
I-7
I2
I-9
I1
tp331
a(I-2
I-2
I2
I-29
I-23
I14
I5
I-1
tp332
a(I9
I-8
I6
I-1
I-13
I5
I-12
I-11
tp333
a(I-1
I-3
I-10
I1
I19
I4
I2
I-1
tp334
a(I-7
I7
I2
I6
I6
I3
I-1
I-2
tp335
a(I-8
I-3
I0
I-7
I-22
I18
I-7
I3
tp336
a(I28
I-6
I-1
I-16
I-10
I14
I7
I6
tp337
a(I-6
I-3
I-5
I9
I-9
I-16
I-14
I-13
tp338
a(I7
I-2
I7
I-6
I-15
I11
I5
I9
tp339
a(I-1
I-2
I-6
I8
I7
I-2
I-2
I-13
tp340
a(I-13
I7
I-4
I-1
I-3
I1
I-8
I10
tp341
a(I30
I-3
I5
I-12
I-20
I11
I-13
I-12
tp342
a(I-27
I-4
I-7
I7
I-4
I7
I9
I-7
tp343
a(I15
I5
I-1
I-3
I-8
I-10
I1
I9
tp344
a(I-8
I3
I5
I0
I-2
I3
I-8
I0
tp345
a(I12
I0
I8
I-1
I-22
I8
I6
I-3
tp346
a(I3
I-6
I-1
I-4
I-11
I4
I-7
I-5
tp347
a(I-16
I1
I-1
I10
I7
I-9
I9
I7
tp348
a(I5
I6
I-2
I3
I-13
I3
I-16
I-10
tp349
a(I-5
I1
I7
I-18
I0
I0
I5
I3
tp350
a(I-2
I2
I3
I7
I2
I3
I3
I15
tp351
a(I-8
I-4
I-2
I-4
I-3
I10
I12
I-24
tp352
a(I-9
I-4
I-2
I9
I-9
I9
I11
I3
tp353
a(I-8
I-2
I-7
I0
I-11
I1
I-7
I-2
tp354
a(I4
I1
I2
I-12
I-5
I0
I15
I14
tp355
a(I-17
I-6
I-2
I3
I-8
I14
I-14
I10
tp356
a(I30
I4
I8
I-12
I-11
I5
I6
I5
tp357
a(I-30
I0
I-5
I14
I17
I-3
I-2
I-2
tp358
a(I-1
I4
I-7
I-3
I-3
I4
I-12
I-3
tp359
a(I8
I-5
I0
I-4
I-16
I9
I5
I12
tp360
a(I4
I-2
I4
I-11
I-7
I12
I-3
I-1
tp361
a(I20
I-1
I-3
I-1
I-5
I-5
I3
I13
tp362
a(I-8
I-6
I-1
I-5
I-11
I1
I7
I-5
tp363
a(I8
I0
I4
I1
I-5
I-1
I-3
I-1
tp364
a(I-4
I6
I-8
I-6
I-4
I5
I-4
I-1
tp365
a(I-10
I-7
I1
I10
I-26
I2
I-3
I2
tp366
a(I28
I0
I1
I-16
I-9
I11
I6
I17
tp367
a(I-31
I1
I-5
I13
I16
I-17
I-14
I-30
tp368
a(I13
I8
I5
I-3
I-5
I3
I2
I7
tp369
a(I3
I-2
I-2
I-3
I-14
I-1
I-11
I-1
tp370
a(I10
I-1
I-1
I-6
I-10
I7
I6
I9
tp371
a(I23
I0
I2
I6
I-2
I3
I3
I4
tp372
a(I-21
I2
I2
I3
I-8
I3
I4
I8
tp373
a(I-9
I-2
I2
I-10
I-19
I15
I0
I-22
tp374
a(I0
I4
I1
I-10
I-5
I1
I-6
I3
tp375
a(I6
I-1
I1
I-6
I-13
I18
I-3
I1
tp376
a(I-11
I-6
I-3
I10
I-7
I3
I-14
I-7
tp377
a(I11
I3
I-2
I5
I18
I1
I21
I14
tp378
a(I-7
I1
I5
I10
I-10
I3
I-1
I6
tp379
a(I30
I1
I0
I-11
I-22
I26
I5
I-5
tp380
a(I-4
I-3
I0
I-4
I-11
I4
I-15
I-10
tp381
a(I-16
I-2
I-5
I7
I17
I-10
I-7
I-7
tp382
a(I1
I0
I1
I3
I-2
I1
I-5
I8
tp383
a(I-8
I-2
I6
I-18
I-23
I16
I6
I-3
tp384
a(I-18
I-3
I-4
I11
I-7
I7
I0
I0
tp385
a(I5
I-2
I-8
I8
I14
I-4
I8
I-2
tp386
a(I15
I-5
I1
I-3
I-12
I11
I18
I-10
tp387
a(I-12
I3
I-2
I1
I-9
I-16
I-11
I-5
tp388
a(I18
I-4
I-6
I12
I-1
I5
I-1
I-8
tp389
a(I-17
I-2
I-1
I-4
I7
I5
I3
I-2
tp390
a(I-20
I1
I6
I-18
I-11
I11
I-8
I19
tp391
a(I23
I5
I-4
I16
I19
I-1
I0
I21
tp392
a(I-3
I0
I0
I-14
I-10
I3
I-11
I-32
tp393
a(I1
I-1
I-4
I-6
I-3
I12
I10
I8
tp394
a(I-4
I-10
I-1
I-1
I-10
I6
I-2
I0
tp395
a(I-4
I0
I-3
I7
I15
I-6
I4
I-8
tp396
a(I3
I3
I0
I-1
I-6
I4
I-20
I7
tp397
a(I-13
I-3
I2
I-8
I-13
I19
I6
I4
tp398
a(I-7
I-2
I-2
I-11
I-6
I1
I1
I0
tp399
a(I3
I1
I0
I-2
I-3
I1
I-8
I-5
tp400
a(I10
I-3
I4
I-10
I-8
I8
I14
I11
tp401
a(I0
I0
I-6
I-1
I9
I-24
I-30
I-10
tp402
a(I-4
I3
I-3
I1
I-1
I3
I17
I8
tp403
a(I11
I-2
I3
I1
I-11
I4
I0
I3
tp404
a(I-3
I-7
I-1
I-2
I-11
I10
I-3
I-1
tp405
a(I15
I0
I-2
I4
I16
I-10
I-3
I6
tp406
a(I4
I5
I-6
I5
I-1
I1
I-6
I-17
tp407
a(I-10
I0
I0
I-5
I-27
I13
I8
I15
tp408
a(I8
I-6
I-3
I-4
I-12
I4
I10
I-7
tp409
a(I-21
I-1
I-5
I9
I7
I4
I5
I-17
tp410
a(I-21
I-2
I2
I-2
I-7
I8
I0
I-8
tp411
a(I3
I0
I-7
I6
I9
I-13
I1
I-8
tp412
a(I-10
I0
I5
I-6
I-3
I5
I7
I12
tp413
a(I15
I1
I3
I-11
I-14
I13
I8
I-1
tp414
a(I-5
I-4
I-2
I0
I-8
I2
I-24
I-5
tp415
a(I21
I3
I1
I-5
I11
I1
I8
I3
tp416
a(I8
I6
I2
I4
I-6
I1
I-1
I-5
tp417
a(I-18
I-8
I-2
I1
I-17
I6
I-3
I-20
tp418
a(I23
I-5
I-2
I-8
I-9
I6
I4
I1
tp419
a(I-26
I4
I4
I1
I-15
I-10
I1
I-10
tp420
a(I26
I7
I3
I-5
I-5
I5
I0
I11
tp421
a(I-12
I-6
I-3
I1
I-5
I0
I0
I-8
tp422
a(I-19
I2
I2
I-8
I-4
I-4
I-6
I3
tp423
a(I10
I-2
I1
I-9
I-26
I17
I-5
I-1
tp424
a(I2
I-4
I1
I18
I-10
I2
I-4
I15
tp425
a(I-26
I3
I-6
I10
I13
I-4
I-2
I-10
tp426
a(I-5
I2
I1
I-9
I-7
I2
I-13
I7
tp427
a(I6
I-2
I1
I0
I-17
I16
I2
I0
tp428
a(I17
I-6
I-7
I-5
I-11
I8
I8
I1
tp429
a(I-6
I3
I3
I2
I-9
I-20
I-15
I-4
tp430
a(I-1
I3
I-2
I1
I-3
I-3
I4
I8
tp431
a(I17
I-5
I0
I-4
I-21
I20
I-5
I-3
tp432
a(I17
I-6
I-1
I-4
I-14
I8
I5
I-16
tp433
a(I-2
I7
I2
I12
I26
I-9
I-12
I-10
tp434
a(I14
I-1
I3
I-4
I-4
I8
I-5
I-1
tp435
a(I-15
I1
I-2
I3
I13
I-9
I5
I5
tp436
a(I15
I1
I-1
I-2
I-3
I2
I-4
I-8
tp437
a(I-10
I-2
I3
I-2
I-10
I18
I14
I22
tp438
a(I-17
I1
I-1
I7
I-15
I3
I-3
I-9
tp439
a(I-11
I-1
I-6
I1
I3
I-1
I-1
I0
tp440
a(I32
I7
I0
I-17
I-1
I1
I-10
I18
tp441
a(I-9
I-6
I0
I-4
I-19
I12
I6
I-3
tp442
a(I6
I1
I0
I-5
I-5
I10
I-7
I-10
tp443
a(I-6
I-4
I-8
I5
I9
I-15
I-4
I13
tp444
a(I-7
I6
I11
I-16
I-9
I7
I10
I-1
tp445
a(I8
I-7
I1
I0
I-5
I6
I7
I-3
tp446
a(I-19
I-8
I-6
I2
I-13
I6
I-13
I-15
tp447
a(I11
I6
I9
I5
I-21
I6
I7
I7
tp448
a(I-2
I-1
I6
I-11
I-7
I8
I9
I5
tp449
a(I-5
I0
I-2
I14
I10
I-17
I-4
I-9
tp450
a(I-14
I0
I2
I4
I-7
I2
I6
I6
tp451
a(I-9
I-5
I3
I-17
I-15
I18
I8
I-9
tp452
a(I5
I-4
I-5
I-3
I-15
I9
I8
I4
tp453
a(I26
I6
I0
I14
I3
I-2
I-3
I0
tp454
a(I-43
I4
I-6
I-13
I-24
I5
I-6
I1
tp455
a(I41
I0
I-3
I-8
I-4
I6
I2
I1
tp456
a(I-37
I-6
I-1
I-6
I-8
I7
I-3
I-10
tp457
a(I-2
I-1
I-10
I1
I12
I-10
I-7
I8
tp458
a(I7
I-3
I-2
I-5
I-10
I6
I0
I-5
tp459
a(I6
I1
I-4
I7
I7
I-5
I-7
I11
tp460
a(I-5
I2
I4
I-6
I-3
I8
I11
I-7
tp461
a(I-14
I0
I-2
I5
I-32
I11
I-7
I1
tp462
a(I36
I-4
I-4
I-12
I-10
I-1
I1
I-1
tp463
a(I-12
I5
I3
I4
I3
I-4
I-2
I-1
tp464
a(I10
I-3
I1
I0
I-6
I7
I-3
I-4
tp465
a(I-11
I-1
I-6
I-1
I-4
I9
I-5
I-19
tp466
a(I9
I-5
I-2
I2
I-7
I8
I4
I-2
tp467
a(I-22
I1
I-7
I0
I0
I-9
I0
I-2
tp468
a(I2
I5
I5
I4
I-4
I8
I0
I-27
tp469
a(I7
I-5
I1
I-11
I-33
I21
I-4
I11
tp470
a(I-2
I-1
I-3
I2
I-1
I3
I-7
I-3
tp471
a(I-3
I-8
I3
I-5
I5
I10
I6
I-4
tp472
a(I6
I-4
I1
I1
I-11
I10
I14
I-5
tp473
a(I6
I2
I2
I7
I-6
I9
I-14
I-7
tp474
a(I-35
I1
I0
I2
I-16
I4
I-1
I-7
tp475
a(I11
I-5
I3
I-12
I-6
I-7
I7
I3
tp476
a(I-9
I-5
I-4
I-9
I-9
I8
I-8
I0
tp477
a(I2
I3
I-1
I5
I14
I-4
I5
I2
tp478
a(I13
I-4
I-4
I-9
I-7
I8
I-16
I-6
tp479
a(I-23
I1
I-1
I-5
I-1
I14
I10
I2
tp480
a(I9
I-2
I0
I9
I-9
I7
I2
I15
tp481
a(I-10
I4
I-2
I0
I-4
I-10
I2
I-11
tp482
a(I-10
I-6
I-7
I6
I-3
I3
I3
I-2
tp483
a(I-24
I5
I-6
I11
I4
I-11
I-12
I-6
tp484
a(I20
I3
I1
I-2
I-11
I5
I6
I12
tp485
a(I-2
I-5
I-7
I-7
I-16
I7
I-11
I-3
tp486
a(I-4
I-1
I-1
I-1
I-9
I8
I-9
I-27
tp487
a(I1
I3
I-5
I7
I-4
I-15
I-3
I2
tp488
a(I7
I0
I0
I-15
I-12
I-4
I6
I2
tp489
a(I9
I-7
I-1
I-2
I2
I5
I-5
I1
tp490
a(I-4
I-2
I-2
I-1
I-10
I6
I-1
I-5
tp491
a(I-4
I-2
I1
I-11
I5
I-8
I-15
I9
tp492
a(I17
I3
I0
I3
I-10
I11
I5
I2
tp493
a(I-11
I-4
I4
I-8
I-13
I9
I4
I-9
tp494
a(I0
I-1
I-3
I-10
I-5
I8
I-2
I-2
tp495
a(I-3
I-2
I-1
I2
I-18
I21
I5
I16
tp496
a(I-16
I-2
I-3
I-3
I-12
I6
I3
I8
tp497
a(I7
I3
I1
I15
I4
I-4
I-13
I-2
tp498
a(I-5
I2
I3
I-14
I-18
I12
I-15
I-6
tp499
a(I4
I-4
I-2
I-8
I-17
I20
I16
I0
tp500
a(I6
I-8
I0
I-3
I-13
I4
I-9
I-11
tp501
a(I-31
I11
I-2
I13
I1
I-9
I13
I-11
tp502
a(I8
I-3
I1
I-7
I-16
I15
I-9
I5
tp503
a(I6
I1
I-1
I-6
I3
I7
I-4
I-8
tp504
a(I34
I-2
I0
I-10
I-8
I7
I8
I16
tp505
a(I3
I-3
I-6
I8
I7
I-7
I1
I2
tp506
a(I13
I-4
I-1
I-12
I-7
I3
I1
I3
tp507
a(I4
I8
I-4
I1
I-4
I-7
I-12
I-1
tp508
a(I-15
I-4
I-1
I-6
I-14
I10
I9
I7
tp509
a(I11
I0
I2
I0
I-11
I6
I-1
I6
tp510
a(I1
I-2
I3
I-10
I-1
I1
I-6
I11
tp511
a(I-18
I1
I-1
I23
I-5
I-5
I7
I3
tp512
a(I8
I1
I-7
I-13
I-5
I16
I11
I9
tp513
a(I-3
I-2
I10
I-4
I3
I11
I-1
I-9
tp514
a(I-6
I-8
I-3
I5
I2
I8
I11
I-5
tp515
a(I-7
I1
I-10
I-8
I6
I-6
I-10
I-4
tp516
a(I-1
I-5
I2
I3
I-5
I15
I0
I-7
tp517
a(I4
I-7
I-1
I-7
I-24
I17
I5
I14
tp518
a(I-4
I-2
I3
I15
I-12
I12
I6
I0
tp519
a(I7
I-6
I-3
I-16
I-18
I6
I3
I17
tp520
a(I-8
I-4
I0
I4
I-12
I4
I-5
I-20
tp521
a(I6
I4
I-8
I8
I-4
I-2
I3
I14
tp522
a(I8
I-1
I7
I-6
I-16
I11
I-6
I1
tp523
a(I-12
I-5
I-3
I-4
I-17
I10
I14
I-9
tp524
a(I-15
I-3
I-2
I6
I9
I-2
I-2
I4
tp525
a(I1
I7
I-2
I3
I-1
I3
I-12
I-5
tp526
a(I-19
I-1
I-1
I-15
I-29
I12
I4
I-23
tp527
a(I24
I-4
I-3
I5
I-14
I7
I-9
I0
tp528
a(I-9
I-5
I-2
I3
I7
I1
I-6
I-4
tp529
a(I3
I3
I-4
I6
I-4
I-2
I-9
I-15
tp530
a(I13
I-3
I-3
I4
I-17
I6
I3
I10
tp531
a(I3
I3
I1
I6
I-2
I-3
I2
I20
tp532
a(I-45
I-67
I-11
I-40
I4
I-11
I-26
I23
tp533
a(I70
I94
I9
I-31
I-6
I43
I10
I-52
tp534
a(I17
I26
I0
I41
I-2
I4
I65
I44
tp535
a(I35
I0
I2
I13
I10
I0
I7
I63
tp536
a(I40
I-10
I-5
I-19
I1
I14
I85
I-4
tp537
a(I31
I-24
I-1
I23
I4
I-53
I-106
I-45
tp538
a(I11
I4
I-7
I25
I-2
I16
I70
I72
tp539
a(I-1
I5
I29
I67
I8
I19
I-88
I-21
tp540
a(I-17
I0
I-17
I-28
I6
I17
I-12
I-22
tp541
a(I-30
I-11
I0
I-21
I-5
I-2
I0
I36
tp542
a(I25
I1
I3
I14
I-1
I-21
I-55
I11
tp543
a(I0
I-5
I-16
I-49
I2
I51
I82
I53
tp544
a(I-21
I-15
I-4
I-15
I-3
I-7
I-61
I31
tp545
a(I-3
I32
I-6
I-14
I-5
I37
I52
I8
tp546
a(I41
I9
I-8
I47
I-3
I-1
I-44
I-23
tp547
a(I106
I-1
I7
I7
I-8
I-5
I-8
I25
tp548
a(I-112
I-47
I-18
I43
I-5
I3
I23
I-105
tp549
a(I67
I21
I-10
I-54
I-4
I-32
I20
I62
tp550
a(I3
I-20
I6
I-23
I-3
I-8
I3
I74
tp551
a(I-13
I-8
I7
I45
I-1
I-26
I12
I-14
tp552
a(I46
I29
I-9
I6
I11
I-3
I66
I87
tp553
a(I48
I5
I4
I19
I3
I-23
I-56
I-85
tp554
a(I17
I-22
I-17
I-34
I0
I-2
I-40
I-26
tp555
a(I-70
I10
I-17
I28
I6
I-79
I90
I-28
tp556
a(I-76
I29
I-24
I-13
I20
I11
I-93
I-48
tp557
a(I17
I-21
I1
I-7
I16
I46
I65
I-11
tp558
a(I8
I13
I2
I8
I18
I-16
I-1
I25
tp559
a(I51
I-21
I-20
I-27
I1
I4
I-20
I-30
tp560
a(I-88
I-8
I16
I-11
I-17
I-16
I-3
I-26
tp561
a(I58
I6
I-3
I3
I-6
I17
I57
I-11
tp562
a(I-18
I-12
I-15
I17
I-13
I-1
I-72
I-25
tp563
a(I-20
I-12
I4
I-75
I-9
I62
I-33
I-109
tp564
a(I9
I13
I3
I-9
I18
I-36
I39
I127
tp565
a(I16
I15
I-4
I20
I8
I-17
I-9
I-42
tp566
a(I90
I30
I5
I8
I8
I-2
I-75
I-36
tp567
a(I-5
I-6
I-22
I-40
I16
I49
I27
I42
tp568
a(I-5
I-18
I-10
I-6
I-13
I-4
I-4
I-3
tp569
a(I-16
I13
I7
I-11
I-18
I9
I28
I27
tp570
a(I116
I0
I-3
I-23
I-9
I11
I-10
I-2
tp571
a(I0
I-10
I1
I44
I10
I-20
I-3
I64
tp572
a(I-119
I-18
I-15
I-6
I21
I3
I-28
I6
tp573
a(I-6
I32
I15
I-10
I18
I-28
I-43
I-15
tp574
a(I-14
I-27
I-9
I-8
I24
I24
I89
I11
tp575
a(I77
I24
I-2
I-2
I21
I-26
I-93
I-2
tp576
a(I-48
I-19
I-16
I-3
I9
I-12
I-17
I3
tp577
a(I59
I-3
I18
I-54
I-8
I76
I103
I63
tp578
a(I-17
I14
I-2
I21
I-3
I13
I-62
I-75
tp579
a(I-40
I-20
I3
I-14
I24
I54
I-3
I35
tp580
a(I-29
I-2
I-4
I15
I15
I-25
I6
I-34
tp581
a(I11
I-1
I5
I30
I8
I16
I12
I33
tp582
a(I44
I18
I17
I30
I1
I-8
I7
I3
tp583
a(I-110
I-4
I-8
I6
I2
I-27
I-53
I-7
tp584
a(I-3
I-23
I1
I1
I-1
I11
I8
I25
tp585
a(I23
I31
I-6
I-6
I-15
I0
I8
I-22
tp586
a(I-4
I24
I14
I-17
I9
I54
I-18
I-7
tp587
a(I39
I-1
I17
I84
I2
I-71
I52
I58
tp588
a(I-36
I-7
I-22
I33
I4
I8
I2
I-19
tp589
a(I-6
I4
I0
I-35
I2
I12
I-22
I10
tp590
a(I-46
I-9
I6
I-4
I3
I-6
I-39
I-8
tp591
a(I16
I-22
I-17
I-19
I-4
I21
I59
I-46
tp592
a(I80
I-2
I-10
I-17
I-8
I2
I38
I-2
tp593
a(I-49
I-15
I-22
I-30
I-1
I-29
I-58
I-20
tp594
a(I43
I-16
I4
I-32
I0
I42
I113
I-7
tp595
a(I8
I14
I10
I15
I-8
I-17
I-28
I-48
tp596
a(I42
I15
I9
I26
I-5
I0
I77
I-36
tp597
a(I8
I9
I-4
I-41
I7
I18
I10
I-23
tp598
a(I-2
I-18
I-18
I3
I-16
I6
I-65
I13
tp599
a(I-14
I0
I-7
I-10
I-10
I-45
I-15
I43
tp600
a(I-19
I3
I16
I-9
I0
I-8
I-9
I-21
tp601
a(I58
I8
I0
I-26
I-1
I2
I-29
I18
tp602
a(I26
I4
I2
I33
I7
I34
I57
I40
tp603
a(I44
I-27
I-23
I23
I5
I2
I39
I74
tp604
a(I34
I-13
I4
I-21
I5
I2
I-27
I26
tp605
a(I-19
I-10
I-4
I2
I3
I36
I9
I-41
tp606
a(I-26
I-11
I3
I11
I4
I7
I-5
I25
tp607
a(I-41
I25
I5
I-29
I-7
I33
I-1
I-99
tp608
a(I-88
I5
I4
I-9
I-4
I17
I93
I-7
tp609
a(I62
I6
I3
I-13
I-2
I-99
I-27
I-19
tp610
a(I42
I-6
I-25
I6
I-5
I-13
I-2
I25
tp611
a(I-39
I-31
I-2
I-8
I-1
I9
I2
I-49
tp612
a(I104
I29
I4
I18
I2
I39
I66
I53
tp613
a(I-84
I-4
I1
I-71
I-12
I-40
I-33
I-24
tp614
a(I-36
I22
I11
I-5
I8
I-2
I46
I7
tp615
a(I14
I-15
I-11
I-8
I0
I-15
I-61
I93
tp616
a(I39
I0
I18
I-2
I0
I-5
I-27
I-40
tp617
a(I-35
I4
I-9
I19
I4
I21
I37
I-10
tp618
a(I53
I7
I-10
I10
I2
I-4
I0
I7
tp619
a(I-37
I9
I17
I-43
I1
I-4
I-4
I9
tp620
a(I41
I-15
I-1
I-4
I6
I2
I31
I55
tp621
a(I-74
I1
I-12
I19
I-8
I-52
I-10
I-46
tp622
a(I71
I15
I2
I-28
I7
I27
I44
I50
tp623
a(I52
I-17
I11
I49
I5
I-6
I-46
I-126
tp624
a(I-70
I-13
I-11
I-58
I3
I-10
I-23
I49
tp625
a(I-100
I20
I0
I56
I4
I39
I36
I3
tp626
a(I29
I-9
I-6
I6
I-10
I2
I3
I51
tp627
a(I40
I0
I-4
I1
I2
I47
I19
I-5
tp628
a(I-79
I20
I-10
I-54
I2
I-2
I-17
I-80
tp629
a(I-38
I-23
I-7
I9
I6
I-46
I47
I44
tp630
a(I14
I31
I12
I-28
I2
I17
I37
I-3
tp631
a(I31
I-12
I9
I73
I2
I-20
I-24
I-6
tp632
a(I-26
I12
I-7
I-17
I5
I-15
I-22
I28
tp633
a(I30
I-3
I1
I1
I-5
I-13
I-56
I-7
tp634
a(I-65
I11
I-2
I-9
I-4
I26
I56
I49
tp635
a(I-34
I19
I-2
I14
I1
I-51
I-117
I-16
tp636
a(I55
I-25
I-4
I-3
I-1
I-10
I55
I43
tp637
a(I4
I20
I29
I61
I3
I12
I4
I-17
tp638
a(I106
I-6
I-17
I-9
I-8
I0
I65
I24
tp639
a(I40
I-11
I-9
I2
I-7
I-1
I-97
I-46
tp640
a(I-42
I-20
I-18
I-9
I-6
I-6
I18
I-50
tp641
a(I16
I32
I-4
I-22
I7
I25
I53
I32
tp642
a(I79
I2
I43
I34
I-6
I15
I-18
I-103
tp643
a(I-31
I8
I6
I-32
I5
I41
I81
I36
tp644
a(I41
I-25
I-14
I-42
I1
I-1
I-42
I20
tp645
a(I-9
I28
I15
I33
I7
I-7
I13
I27
tp646
a(I-42
I-22
I-13
I14
I-4
I10
I87
I-15
tp647
a(I73
I37
I11
I-39
I2
I-15
I-29
I-13
tp648
a(I-61
I-51
I-6
I36
I-8
I4
I24
I-88
tp649
a(I65
I12
I-16
I24
I-4
I31
I-44
I29
tp650
a(I-10
I9
I-9
I1
I10
I7
I-32
I11
tp651
a(I-71
I-42
I-20
I6
I-1
I18
I-50
I14
tp652
a(I-74
I-5
I-11
I22
I7
I-17
I-5
I-42
tp653
a(I21
I5
I-2
I-24
I-9
I16
I6
I78
tp654
a(I-52
I4
I40
I95
I0
I14
I-82
I-23
tp655
a(I-32
I-5
I-13
I22
I0
I-8
I-30
I26
tp656
a(I-51
I2
I5
I4
I-4
I-2
I49
I84
tp657
a(I-96
I-31
I-16
I-10
I10
I10
I6
I-34
tp658
a(I56
I1
I2
I3
I1
I6
I-46
I66
tp659
a(I-2
I-12
I-16
I1
I-7
I-79
I38
I-70
tp660
a(I7
I5
I25
I-40
I12
I16
I-58
I-56
tp661
a(I29
I30
I-1
I18
I0
I5
I84
I0
tp662
a(I-22
I-40
I-9
I-25
I2
I1
I25
I28
tp663
a(I24
I24
I4
I22
I-9
I14
I7
I-67
tp664
a(I-13
I12
I28
I6
I-3
I0
I-68
I-47
tp665
a(I48
I-12
I-2
I13
I1
I18
I21
I-6
tp666
a(I-14
I10
I5
I21
I-5
I-5
I-34
I32
tp667
a(I-36
I-11
I-12
I9
I-4
I23
I-67
I-38
tp668
a(I-10
I-19
I-13
I-19
I-6
I15
I-3
I-18
tp669
a(I58
I15
I-5
I-17
I-7
I-20
I23
I40
tp670
a(I17
I10
I-9
I5
I6
I9
I67
I-14
tp671
a(I-38
I-9
I10
I11
I5
I9
I-22
I-22
tp672
a(I69
I-3
I-26
I-13
I-1
I-3
I28
I29
tp673
a(I44
I-35
I-7
I-33
I5
I16
I-29
I71
tp674
a(I-3
I32
I-7
I-10
I-1
I21
I34
I86
tp675
a(I-13
I-15
I8
I51
I2
I-48
I-18
I27
tp676
a(I-20
I-19
I8
I-11
I-3
I-2
I15
I20
tp677
a(I-23
I0
I-13
I-25
I-4
I36
I86
I39
tp678
a(I-4
I2
I4
I-25
I3
I-3
I-25
I-9
tp679
a(I-26
I-2
I0
I50
I-3
I-4
I71
I16
tp680
a(I-22
I-3
I-1
I14
I6
I-10
I-86
I-58
tp681
a(I4
I1
I6
I-17
I-5
I-4
I-24
I-5
tp682
a(I21
I-11
I-4
I19
I-1
I6
I32
I-12
tp683
a(I-37
I18
I14
I-46
I-5
I-44
I-16
I-9
tp684
a(I28
I36
I6
I10
I4
I-1
I-21
I-37
tp685
a(I38
I-7
I-3
I-8
I1
I18
I-7
I39
tp686
a(I-121
I-31
I-22
I-6
I-5
I13
I-2
I-128
tp687
a(I-44
I7
I4
I21
I6
I18
I22
I88
tp688
a(I74
I-3
I-8
I-21
I-14
I-14
I22
I-23
tp689
a(I-112
I37
I33
I73
I-2
I-42
I54
I-23
tp690
a(I26
I-25
I-26
I-17
I3
I-2
I-60
I-22
tp691
a(I-12
I-5
I-10
I-53
I-5
I25
I-1
I-13
tp692
a(I35
I9
I-12
I-7
I-2
I-56
I-66
I10
tp693
a(I-17
I-23
I-19
I-34
I5
I-2
I-14
I-14
tp694
a(I27
I3
I-8
I-8
I0
I16
I127
I72
tp695
a(I-18
I0
I10
I-43
I17
I-22
I-3
I-1
tp696
a(I-10
I1
I4
I-7
I3
I22
I-45
I34
tp697
a(I114
I4
I-15
I-13
I-6
I26
I35
I-36
tp698
a(I-82
I-19
I-22
I25
I-2
I-15
I3
I-71
tp699
a(I2
I7
I8
I10
I3
I75
I-20
I19
tp700
a(I78
I2
I29
I-21
I1
I21
I97
I70
tp701
a(I-12
I-6
I3
I39
I2
I-33
I-50
I-83
tp702
a(I4
I15
I12
I7
I3
I10
I56
I54
tp703
a(I36
I-6
I-8
I-55
I-4
I25
I-20
I-13
tp704
a(I-12
I0
I8
I-32
I4
I5
I-77
I-15
tp705
a(I-51
I-14
I6
I-15
I-5
I39
I55
I-4
tp706
a(I18
I11
I1
I-5
I5
I-8
I-67
I-17
tp707
a(I-37
I0
I-6
I28
I2
I-44
I-29
I-36
tp708
a(I52
I-23
I-24
I-5
I-14
I-19
I-48
I16
tp709
a(I59
I10
I-5
I-11
I8
I59
I102
I59
tp710
a(I-66
I19
I33
I45
I-2
I22
I-82
I-22
tp711
a(I85
I17
I-1
I-20
I-14
I-6
I56
I40
tp712
a(I21
I-7
I-5
I30
I5
I-4
I58
I36
tp713
a(I82
I-14
I-9
I-6
I-7
I-18
I17
I98
tp714
a(I-38
I53
I27
I-3
I-1
I-16
I-10
I-80
tp715
a(I37
I-28
I-2
I-20
I5
I30
I105
I25
tp716
a(I34
I7
I-5
I-7
I-4
I-5
I7
I25
tp717
a(I-78
I23
I5
I23
I5
I4
I-58
I-32
tp718
a(I19
I-14
I-10
I-45
I6
I10
I-48
I15
tp719
a(I-36
I-9
I4
I124
I-4
I-16
I-22
I-28
tp720
a(I57
I-10
I-4
I1
I5
I44
I106
I42
tp721
a(I-18
I0
I3
I-22
I0
I-8
I-13
I35
tp722
a(I49
I0
I26
I-27
I0
I21
I-18
I67
tp723
a(I-24
I12
I6
I4
I5
I-31
I-49
I-2
tp724
a(I-53
I-15
I-12
I26
I-3
I-18
I-22
I-6
tp725
a(I124
I15
I6
I-46
I-3
I15
I57
I25
tp726
a(I-78
I-31
I-7
I64
I-1
I2
I-76
I-114
tp727
a(I61
I16
I8
I11
I-8
I16
I76
I-1
tp728
a(I-57
I3
I21
I-37
I-2
I-11
I-42
I16
tp729
a(I-8
I-15
I-1
I44
I6
I-51
I-16
I-12
tp730
a(I-49
I-26
I-35
I-52
I-7
I-11
I-73
I-19
tp731
a(I14
I5
I-13
I8
I-6
I26
I55
I-47
tp732
a(I2
I21
I9
I27
I-2
I-34
I12
I-49
tp733
a(I37
I16
I2
I-27
I7
I-6
I-14
I25
tp734
a(I1
I-55
I-14
I25
I-4
I-13
I-61
I-14
tp735
a(I-30
I16
I9
I34
I1
I14
I-79
I8
tp736
a(I-20
I-24
I-13
I30
I5
I20
I66
I113
tp737
a(I-76
I6
I-6
I21
I-10
I-16
I-58
I-38
tp738
a(I21
I18
I0
I2
I-7
I24
I78
I59
tp739
a(I-3
I-1
I-5
I-36
I4
I11
I-39
I-26
tp740
a(I18
I-18
I-6
I-22
I0
I12
I-3
I0
tp741
a(I-85
I9
I3
I27
I-6
I-14
I23
I-17
tp742
a(I-3
I9
I13
I26
I14
I-5
I-38
I38
tp743
a(I-16
I-22
I8
I-9
I-8
I-13
I-28
I-19
tp744
a(I87
I13
I18
I-18
I-4
I8
I-3
I72
tp745
a(I-7
I19
I-3
I2
I0
I52
I-21
I-4
tp746
a(I-4
I-46
I3
I-37
I10
I-17
I-11
I32
tp747
a(I99
I20
I6
I4
I-3
I-5
I-69
I-49
tp748
a(I-83
I-26
I-20
I-5
I2
I29
I80
I21
tp749
a(I-30
I22
I1
I-37
I-5
I-51
I-83
I27
tp750
a(I3
I9
I1
I29
I-7
I20
I23
I28
tp751
a(I-54
I-14
I-13
I-26
I1
I-3
I-58
I-24
tp752
a(I-26
I-2
I-17
I-15
I0
I67
I24
I-45
tp753
a(I10
I8
I1
I-55
I2
I31
I41
I17
tp754
a(I12
I-21
I-10
I18
I-6
I7
I3
I-19
tp755
a(I-4
I4
I-2
I49
I7
I11
I31
I46
tp756
a(I45
I33
I3
I6
I-4
I2
I13
I-21
tp757
a(I101
I-6
I2
I-21
I3
I-22
I-58
I6
tp758
a(I-27
I1
I-7
I-7
I1
I9
I-9
I-23
tp759
a(I12
I-45
I-4
I-21
I4
I49
I96
I9
tp760
a(I-17
I56
I9
I7
I-7
I-1
I-57
I-23
tp761
a(I11
I-15
I4
I29
I-4
I23
I31
I5
tp762
a(I-22
I10
I-12
I-22
I-2
I22
I-54
I-33
tp763
a(I-41
I4
I4
I5
I-1
I28
I97
I13
tp764
a(I-13
I-22
I-5
I-12
I0
I-47
I-60
I10
tp765
a(I-12
I-8
I-12
I1
I-8
I15
I111
I-22
tp766
a(I24
I-3
I-14
I28
I-2
I27
I10
I32
tp767
a(I26
I-9
I-11
I-40
I-3
I18
I-25
I-76
tp768
a(I-21
I-21
I-10
I-63
I6
I-19
I-45
I-47
tp769
a(I32
I14
I30
I96
I-2
I38
I-30
I26
tp770
a(I-111
I6
I-10
I45
I0
I10
I20
I-36
tp771
a(I-33
I13
I5
I-12
I6
I-4
I-88
I39
tp772
a(I4
I-21
I4
I-3
I3
I54
I77
I17
tp773
a(I105
I26
I29
I-6
I5
I25
I11
I35
tp774
a(I36
I-8
I-9
I-22
I-8
I10
I43
I16
tp775
a(I20
I-5
I8
I45
I6
I-13
I26
I-39
tp776
a(I60
I0
I-2
I-5
I0
I-14
I21
I81
tp777
a(I-62
I-19
I-9
I-33
I4
I-4
I-8
I-42
tp778
a(I-5
I-13
I-5
I74
I-8
I22
I-40
I-23
tp779
a(I-56
I7
I-16
I-60
I-10
I14
I3
I-29
tp780
a(I7
I12
I-7
I-20
I-3
I-33
I-40
I-6
tp781
a(I35
I-2
I8
I18
I0
I3
I21
I13
tp782
a(I-4
I29
I32
I-4
I1
I32
I58
I55
tp783
a(I-62
I-18
I-25
I9
I-7
I-11
I-45
I-40
tp784
a(I-70
I-22
I-10
I-60
I-24
I-7
I40
I-90
tp785
a(I32
I28
I5
I32
I-10
I14
I16
I52
tp786
a(I-6
I27
I8
I17
I-1
I-33
I-49
I-58
tp787
a(I-6
I-18
I7
I4
I1
I14
I38
I-29
tp788
a(I64
I22
I6
I22
I0
I5
I-39
I30
tp789
a(I24
I17
I2
I-23
I-5
I-2
I44
I-18
tp790
a(I-7
I-9
I-7
I-36
I5
I6
I-30
I7
tp791
a(I67
I9
I6
I-29
I9
I22
I-7
I-27
tp792
a(I-23
I8
I5
I72
I2
I35
I54
I-52
tp793
a(I5
I-10
I-37
I-37
I12
I11
I-20
I111
tp794
a(I29
I5
I26
I-47
I-3
I-3
I12
I55
tp795
a(I-53
I17
I9
I16
I3
I-6
I-22
I-16
tp796
a(I21
I-30
I-2
I10
I-6
I11
I-25
I-15
tp797
a(I81
I7
I3
I-25
I7
I19
I75
I57
tp798
a(I-25
I1
I-7
I-3
I5
I-55
I-65
I-86
tp799
a(I47
I4
I10
I14
I7
I4
I-84
I28
tp800
a(I3
I-24
I4
I20
I-2
I31
I63
I-89
tp801
a(I22
I38
I3
I9
I1
I8
I-30
I-24
tp802
a(I96
I-26
I-15
I-44
I-8
I25
I32
I9
tp803
a(I24
I27
I0
I8
I-5
I-13
I33
I65
tp804
a(I48
I-21
I-9
I-3
I4
I49
I67
I46
tp805
a(I-3
I-14
I-19
I6
I2
I-4
I-91
I-68
tp806
a(I-42
I28
I30
I-104
I-6
I-56
I-39
I-18
tp807
a(I-20
I-11
I-7
I-20
I-13
I13
I23
I0
tp808
a(I-7
I0
I16
I24
I5
I-8
I-12
I29
tp809
a(I-3
I11
I-9
I-6
I5
I1
I1
I-31
tp810
a(I-1
I-22
I-2
I-13
I1
I-3
I13
I40
tp811
a(I51
I7
I9
I25
I-2
I-15
I-37
I-27
tp812
a(I-31
I-42
I-14
I-12
I3
I-21
I-4
I-52
tp813
a(I-75
I61
I-1
I20
I-3
I8
I20
I13
tp814
a(I-14
I-68
I-21
I-60
I-2
I48
I-7
I-36
tp815
a(I30
I9
I-1
I-7
I-4
I-2
I73
I85
tp816
a(I-70
I-20
I-23
I-7
I6
I-27
I-22
I-31
tp817
a(I28
I14
I5
I13
I5
I10
I29
I16
tp818
a(I-18
I-18
I-3
I49
I-2
I-21
I4
I14
tp819
a(I29
I7
I8
I-70
I6
I-7
I-35
I-13
tp820
a(I16
I-4
I-13
I-32
I6
I83
I54
I62
tp821
a(I-116
I-4
I7
I12
I-6
I9
I-76
I-36
tp822
a(I51
I25
I10
I20
I7
I28
I31
I44
tp823
a(I35
I-15
I-11
I-41
I-1
I5
I18
I-18
tp824
a(I12
I3
I-23
I78
I-16
I16
I14
I-11
tp825
a(I60
I8
I14
I-36
I4
I11
I36
I-4
tp826
a(I-18
I-4
I-1
I5
I-2
I-4
I20
I-35
tp827
a(I29
I6
I3
I44
I9
I-12
I-32
I125
tp828
a(I41
I39
I11
I-17
I-5
I-5
I49
I55
tp829
a(I11
I-38
I-10
I4
I-4
I16
I6
I-4
tp830
a(I-19
I20
I2
I-26
I-9
I-42
I-62
I-8
tp831
a(I-36
I1
I28
I35
I-1
I2
I16
I-24
tp832
a(I-17
I-22
I12
I-8
I1
I-28
I33
I-8
tp833
a(I7
I14
I-9
I16
I-6
I16
I34
I16
tp834
a(I-36
I5
I1
I-67
I-6
I6
I-63
I25
tp835
a(I34
I-22
I-7
I-8
I10
I-17
I-44
I-5
tp836
a(I-5
I9
I0
I14
I0
I26
I55
I47
tp837
a(I19
I12
I9
I28
I-2
I-15
I-17
I33
tp838
a(I12
I-5
I8
I14
I13
I55
I-77
I50
tp839
a(I0
I-41
I-9
I-35
I0
I15
I5
I56
tp840
a(I-13
I-29
I-6
I-17
I6
I-6
I-39
I-29
tp841
a(I57
I0
I-2
I45
I7
I19
I2
I-5
tp842
a(I-78
I-9
I-20
I22
I-13
I-78
I-2
I22
tp843
a(I-110
I3
I28
I14
I8
I-4
I-81
I-99
tp844
a(I6
I-13
I-13
I17
I1
I2
I-16
I22
tp845
a(I14
I32
I-4
I-36
I-3
I14
I17
I-26
tp846
a(I78
I-22
I-18
I-34
I-9
I9
I29
I103
tp847
a(I-67
I5
I-7
I26
I0
I2
I-7
I-67
tp848
a(I-18
I-1
I-16
I-58
I-10
I-3
I18
I30
tp849
a(I12
I-7
I24
I-13
I2
I2
I-35
I-11
tp850
a(I12
I3
I-16
I-12
I-7
I-15
I34
I2
tp851
a(I-6
I-14
I-17
I-18
I6
I-4
I-16
I-31
tp852
a(I54
I-7
I-7
I-62
I-1
I17
I-71
I-27
tp853
a(I-62
I1
I6
I17
I6
I1
I7
I-63
tp854
a(I82
I41
I11
I12
I2
I-6
I-31
I-2
tp855
a(I98
I20
I1
I3
I-4
I3
I27
I108
tp856
a(I-42
I-29
I7
I26
I-5
I7
I18
I-121
tp857
a(I-12
I-5
I-12
I-17
I-1
I6
I-34
I-35
tp858
a(I-28
I-13
I23
I7
I0
I-6
I8
I25
tp859
a(I22
I37
I-3
I-14
I4
I-5
I-2
I-5
tp860
a(I39
I-8
I7
I-8
I-4
I10
I4
I43
tp861
a(I-21
I23
I5
I-14
I6
I13
I-16
I42
tp862
a(I-58
I1
I24
I-7
I6
I28
I37
I-11
tp863
a(I-16
I-41
I-13
I-8
I3
I6
I-24
I-40
tp864
a(I35
I0
I22
I-23
I5
I46
I73
I4
tp865
a(I-49
I-14
I-15
I-4
I-4
I-18
I-125
I-32
tp866
a(I-30
I-33
I-21
I-11
I2
I-7
I-1
I47
tp867
a(I80
I28
I-4
I-15
I5
I5
I52
I42
tp868
a(I-24
I4
I-6
I-5
I7
I14
I-27
I-12
tp869
a(I75
I-13
I5
I-5
I-3
I14
I38
I58
tp870
a(I-34
I1
I-3
I72
I7
I-10
I-6
I-68
tp871
a(I-42
I30
I20
I-21
I-2
I2
I2
I-28
tp872
a(I12
I-3
I-5
I12
I2
I4
I14
I25
tp873
a(I23
I-17
I-5
I-25
I0
I0
I-7
I-2
tp874
a(I-41
I-12
I-1
I104
I-1
I-47
I-114
I17
tp875
a(I-11
I0
I-20
I-75
I-3
I6
I39
I14
tp876
a(I4
I12
I20
I23
I-3
I17
I-15
I-14
tp877
a(I73
I7
I4
I9
I4
I-5
I-14
I14
tp878
a(I-84
I-31
I-11
I-9
I-8
I9
I-2
I-10
tp879
a(I3
I1
I-3
I12
I-8
I-15
I-51
I61
tp880
a(I65
I55
I2
I-48
I-4
I19
I111
I46
tp881
a(I10
I6
I-2
I12
I-2
I-6
I-23
I-22
tp882
a(I18
I-25
I-7
I-22
I2
I16
I-6
I-11
tp883
a(I56
I-19
I-9
I5
I-2
I16
I105
I63
tp884
a(I-100
I17
I-5
I-21
I3
I-48
I-99
I-95
tp885
a(I25
I-15
I-11
I-50
I-7
I4
I18
I50
tp886
a(I-4
I-4
I-27
I-70
I-1
I-43
I24
I38
tp887
a(I4
I10
I29
I6
I8
I16
I24
I-49
tp888
a(I-55
I14
I-8
I16
I3
I33
I-32
I-25
tp889
a(I-10
I-5
I20
I-18
I-3
I-10
I-68
I-4
tp890
a(I-4
I-26
I-18
I-2
I6
I9
I24
I-11
tp891
a(I-21
I14
I25
I25
I-3
I3
I-7
I18
tp892
a(I127
I23
I1
I8
I-4
I-7
I1
I-11
tp893
a(I-77
I-11
I2
I31
I6
I11
I45
I-13
tp894
a(I5
I1
I0
I-21
I-7
I-1
I-13
I9
tp895
a(I6
I-3
I11
I25
I-3
I-6
I-41
I7
tp896
a(I-57
I16
I21
I-40
I3
I-10
I-102
I-34
tp897
a(I9
I-9
I-22
I-8
I1
I-10
I27
I40
tp898
a(I-37
I-21
I16
I9
I-9
I-48
I-48
I-49
tp899
a(I-90
I-8
I-14
I22
I-6
I-1
I14
I46
tp900
a(I-40
I23
I7
I61
I1
I4
I40
I8
tp901
a(I-40
I18
I27
I10
I-7
I-11
I45
I32
tp902
a(I22
I-33
I17
I74
I5
I-13
I-11
I-12
tp903
a(I21
I10
I-3
I-16
I0
I16
I1
I8
tp904
a(I34
I-2
I-13
I6
I9
I-21
I-99
I11
tp905
a(I-2
I-13
I-15
I-54
I-5
I0
I58
I-41
tp906
a(I-44
I3
I-19
I-37
I-6
I33
I19
I22
tp907
a(I57
I-52
I22
I-4
I-4
I11
I28
I39
tp908
a(I68
I72
I-7
I20
I-6
I-47
I-59
I7
tp909
a(I-15
I-11
I-18
I-74
I4
I9
I49
I-13
tp910
a(I-33
I-7
I-1
I-52
I8
I1
I-3
I-14
tp911
a(I13
I0
I4
I-4
I-1
I-2
I-31
I-21
tp912
a(I-7
I-19
I-10
I33
I6
I-5
I17
I14
tp913
a(I19
I1
I-12
I-10
I3
I0
I-60
I-35
tp914
a(I-18
I9
I19
I-24
I-3
I-1
I37
I31
tp915
a(I38
I-3
I-12
I-15
I7
I2
I-70
I-6
tp916
a(I-27
I-36
I0
I70
I-1
I43
I55
I11
tp917
a(I-71
I32
I-17
I-20
I-1
I11
I-9
I-82
tp918
a(I30
I-28
I1
I25
I-2
I-41
I-76
I70
tp919
a(I-72
I10
I-13
I26
I3
I-15
I-43
I-4
tp920
a(I40
I3
I5
I-45
I5
I38
I-4
I7
tp921
a(I-8
I-1
I27
I119
I0
I5
I21
I23
tp922
a(I-44
I11
I-2
I11
I1
I10
I27
I-90
tp923
a(I52
I1
I-14
I6
I2
I-3
I-50
I11
tp924
a(I-36
I-9
I18
I17
I-2
I-5
I-60
I9
tp925
a(I67
I4
I-6
I4
I0
I-11
I50
I-9
tp926
a(I-20
I-1
I4
I-34
I-2
I35
I38
I-8
tp927
a(I43
I7
I-2
I-30
I-6
I11
I-13
I15
tp928
a(I-20
I-1
I-15
I14
I-3
I-12
I2
I-23
tp929
a(I3
I-7
I-3
I-1
I7
I9
I14
I74
tp930
a(I0
I7
I0
I-48
I-5
I-29
I-6
I-54
tp931
a(I69
I-2
I-15
I-5
I-1
I11
I19
I16
tp932
a(I-57
I40
I-10
I-7
I2
I-13
I39
I36
tp933
a(I4
I-28
I7
I11
I6
I-2
I-65
I-26
tp934
a(I72
I-1
I-15
I31
I4
I-16
I-65
I-34
tp935
a(I-62
I-3
I15
I3
I-4
I1
I-7
I-37
tp936
a(I-74
I-28
I-13
I-65
I-12
I-7
I82
I62
tp937
a(I-6
I-8
I-13
I-17
I-5
I2
I29
I-3
tp938
a(I61
I23
I3
I36
I3
I15
I-51
I-21
tp939
a(I-33
I-10
I-3
I-2
I-14
I-2
I17
I-20
tp940
a(I-6
I-21
I-5
I-4
I10
I27
I-30
I-2
tp941
a(I-28
I40
I-1
I27
I-4
I-56
I-70
I-30
tp942
a(I-60
I-26
I-3
I1
I-4
I-17
I71
I-13
tp943
a(I93
I9
I14
I-11
I-3
I12
I-30
I-48
tp944
a(I-59
I19
I-3
I-17
I-6
I-28
I-23
I20
tp945
a(I70
I-11
I-7
I-2
I2
I24
I26
I-28
tp946
a(I-99
I2
I-5
I13
I-12
I-54
I-34
I42
tp947
a(I27
I2
I14
I-77
I-2
I-20
I-46
I-69
tp948
a(I37
I10
I-17
I-21
I-4
I-20
I-18
I11
tp949
a(I-53
I0
I2
I0
I4
I4
I-28
I1
tp950
a(I-18
I-28
I-3
I-16
I2
I43
I59
I40
tp951
a(I-38
I21
I9
I20
I-3
I7
I35
I-30
tp952
a(I83
I6
I5
I-2
I4
I20
I-10
I43
tp953
a(I-66
I8
I-14
I-9
I-8
I6
I38
I-27
tp954
a(I108
I-21
I0
I4
I-6
I20
I-4
I1
tp955
a(I20
I18
I-5
I-34
I10
I13
I-85
I-1
tp956
a(I-65
I-31
I-4
I20
I0
I7
I119
I63
tp957
a(I-29
I46
I10
I14
I2
I8
I-7
I33
tp958
a(I29
I-34
I-10
I4
I-8
I18
I-15
I0
tp959
a(I-6
I16
I8
I-6
I-2
I13
I49
I80
tp960
a(I-85
I-14
I-3
I-6
I1
I-19
I-32
I-25
tp961
a(I62
I24
I24
I-23
I2
I12
I-28
I63
tp962
a(I-97
I-19
I-7
I31
I4
I10
I51
I-49
tp963
a(I11
I-27
I-1
I29
I-6
I5
I-12
I3
tp964
a(I14
I41
I-8
I-1
I-1
I5
I14
I22
tp965
a(I21
I-32
I-9
I1
I-4
I14
I2
I-58
tp966
a(I-57
I-2
I18
I-27
I7
I15
I-6
I4
tp967
a(I68
I4
I-5
I-3
I10
I13
I38
I2
tp968
a(I-47
I11
I23
I4
I5
I22
I-7
I37
tp969
a(I-58
I-42
I-14
I33
I-9
I-3
I26
I-66
tp970
a(I-10
I21
I-5
I-19
I-1
I6
I-39
I-56
tp971
a(I30
I6
I-7
I44
I-4
I-14
I38
I30
tp972
a(I3
I10
I13
I-63
I-12
I-36
I-13
I24
tp973
a(I33
I-1
I-13
I-4
I12
I3
I39
I36
tp974
a(I67
I-13
I-1
I-51
I4
I27
I-12
I-59
tp975
a(I31
I1
I-10
I-13
I-7
I-15
I-9
I32
tp976
a(I-7
I-1
I-12
I36
I-4
I27
I86
I52
tp977
a(I36
I17
I-3
I-47
I-3
I11
I-24
I-18
tp978
a(I31
I-19
I9
I2
I-6
I-43
I-18
I-1
tp979
a(I9
I16
I-7
I-19
I10
I8
I37
I17
tp980
a(I55
I-6
I18
I53
I0
I-40
I-81
I-24
tp981
a(I-106
I-4
I4
I18
I7
I-3
I43
I-3
tp982
a(I61
I14
I7
I28
I14
I16
I21
I-15
tp983
a(I-117
I-13
I2
I37
I-5
I13
I4
I-56
tp984
a(I-48
I6
I-10
I-17
I-8
I-3
I-16
I14
tp985
a(I16
I-9
I0
I-16
I2
I14
I51
I52
tp986
a(I10
I48
I22
I51
I-8
I14
I-2
I1
tp987
a(I-56
I-28
I-6
I-9
I-3
I-24
I11
I-29
tp988
a(I-21
I-14
I-5
I-6
I1
I15
I13
I-4
tp989
a(I-27
I-21
I11
I-22
I1
I7
I-5
I26
tp990
a(I10
I40
I-7
I24
I-4
I-1
I-2
I-4
tp991
a(I-1
I-27
I1
I4
I0
I13
I8
I19
tp992
a(I11
I17
I9
I37
I7
I12
I13
I-37
tp993
a(I-19
I-29
I-24
I-5
I-17
I-4
I16
I11
tp994
a(I-51
I-1
I-8
I33
I10
I5
I27
I14
tp995
a(I-25
I-6
I3
I-40
I2
I38
I-23
I-15
tp996
a(I-10
I-11
I4
I29
I-7
I-5
I-17
I-28
tp997
a(I-9
I23
I-2
I-66
I4
I3
I-41
I38
tp998
a(I-51
I-27
I-5
I-14
I-1
I32
I11
I-16
tp999
a(I6
I-16
I0
I22
I7
I1
I-33
I10
tp1000
a(I-38
I2
I-27
I-25
I3
I-36
I-4
I32
tp1001
a(I-18
I13
I11
I7
I1
I-4
I-15
I-59
tp1002
a(I-25
I-24
I-11
I-26
I0
I-25
I17
I53
tp1003
a(I57
I-1
I15
I35
I0
I9
I-8
I-5
tp1004
a(I33
I4
I-24
I2
I-4
I4
I-29
I58
tp1005
a(I-48
I-19
I0
I38
I10
I9
I8
I-69
tp1006
a(I-55
I13
I-6
I-17
I-3
I28
I16
I20
tp1007
a(I46
I17
I0
I-42
I4
I10
I-19
I32
tp1008
a(I21
I-23
I-18
I-13
I-5
I1
I27
I-18
tp1009
a(I-100
I8
I18
I-36
I6
I-13
I-44
I11
tp1010
a(I48
I20
I17
I0
I-4
I16
I65
I3
tp1011
a(I-36
I-7
I-16
I-18
I-2
I30
I21
I13
tp1012
a(I76
I-37
I-8
I-9
I6
I-17
I15
I43
tp1013
a(I-61
I37
I13
I1
I-4
I0
I0
I15
tp1014
a(I0
I0
I-5
I11
I-9
I-18
I-37
I23
tp1015
a(I-61
I-6
I-1
I-29
I-8
I1
I-30
I-42
tp1016
a(I77
I50
I17
I-23
I7
I27
I20
I43
tp1017
a(I-50
I-26
I-23
I32
I-3
I-2
I-32
I-72
tp1018
a(I8
I-2
I-9
I-24
I0
I16
I122
I-4
tp1019
a(I-37
I10
I9
I26
I-1
I6
I-61
I-35
tp1020
a(I32
I-19
I-9
I-30
I4
I-12
I-52
I-15
tp1021
a(I-22
I-3
I3
I6
I3
I-1
I-8
I-29
tp1022
a(I-17
I-4
I-8
I35
I0
I-10
I-13
I-16
tp1023
a(I22
I-14
I-13
I-54
I-6
I5
I-15
I-56
tp1024
a(I69
I34
I19
I-14
I2
I15
I39
I88
tp1025
a(I70
I-12
I-1
I60
I-2
I22
I-7
I-1
tp1026
a(I-5
I-6
I-13
I-35
I6
I-16
I-40
I3
tp1027
a(I17
I2
I4
I-22
I3
I16
I16
I-1
tp1028
a(I17
I19
I16
I34
I1
I-12
I-32
I18
tp1029
a(I88
I-3
I-18
I-43
I5
I13
I48
I19
tp1030
a(I-3
I-18
I2
I21
I2
I47
I6
I15
tp1031
a(I-18
I9
I1
I-30
I0
I-14
I-65
I-34
tp1032
a(I72
I-22
I20
I-17
I8
I34
I61
I102
tp1033
a(I-20
I4
I0
I-13
I-2
I2
I-128
I-89
tp1034
a(I20
I16
I8
I22
I1
I7
I78
I42
tp1035
a(I-17
I-4
I-7
I-33
I2
I-2
I-34
I-27
tp1036
a(I7
I-27
I-8
I10
I-1
I38
I64
I-13
tp1037
a(I85
I-1
I16
I-22
I4
I-2
I6
I58
tp1038
a(I-36
I-12
I-1
I-1
I-1
I13
I-46
I16
tp1039
a(I82
I22
I-9
I21
I-12
I-17
I20
I21
tp1040
a(I-70
I3
I-3
I-14
I-11
I-2
I-82
I-57
tp1041
a(I-24
I-28
I-23
I65
I4
I11
I63
I31
tp1042
a(I-29
I2
I-5
I-46
I1
I-24
I-56
I-61
tp1043
a(I69
I3
I14
I-20
I-2
I-25
I23
I67
tp1044
a(I11
I-16
I-28
I22
I-13
I-15
I17
I-1
tp1045
a(I-60
I-1
I2
I-28
I-10
I3
I-30
I-2
tp1046
a(I94
I15
I13
I-53
I6
I42
I7
I49
tp1047
a(I32
I17
I-7
I-13
I7
I9
I-14
I15
tp1048
a(I-89
I-18
I0
I4
I1
I3
I17
I-36
tp1049
a(I103
I18
I3
I-44
I5
I-6
I10
I58
tp1050
a(I-61
I-48
I-3
I31
I6
I5
I-5
I-2
tp1051
a(I39
I36
I-8
I-49
I-9
I-30
I-33
I23
tp1052
a(I-19
I-9
I-8
I30
I-7
I9
I-30
I-24
tp1053
a(I-63
I16
I23
I-49
I-1
I15
I28
I-39
tp1054
a(I38
I-2
I17
I55
I0
I-18
I-58
I7
tp1055
a(I-30
I-27
I-36
I10
I-7
I-2
I48
I-14
tp1056
a(I22
I0
I-9
I-33
I-1
I33
I42
I38
tp1057
a(I-28
I-29
I13
I15
I-2
I-16
I13
I39
tp1058
asS'rest'
p1059
(lp1060
(I0
I0
I0
I1
I-3
I0
I-2
I-4
tp1061
a(I-5
I2
I2
I4
I-2
I1
I-7
I0
tp1062
a(I1
I-3
I-1
I-7
I-19
I21
I4
I-2
tp1063
a(I3
I-6
I-3
I-4
I-12
I11
I2
I-2
tp1064
a(I-2
I1
I-3
I2
I0
I1
I1
I0
tp1065
a(I-8
I6
I5
I2
I-2
I2
I-7
I-2
tp1066
a(I1
I-3
I4
I-8
I-23
I16
I1
I0
tp1067
a(I2
I-6
I-3
I-2
I-13
I10
I2
I-1
tp1068
a(I1
I1
I3
I3
I-3
I-2
I-1
I-5
tp1069
a(I-6
I6
I-3
I3
I-4
I3
I-9
I-1
tp1070
a(I4
I-4
I3
I-5
I-23
I22
I4
I-2
tp1071
a(I3
I-3
I1
I-1
I-15
I12
I2
I1
tp1072
a(I1
I-3
I3
I-5
I-17
I18
I2
I-2
tp1073
a(I2
I-3
I-2
I-3
I-13
I9
I1
I0
tp1074
a(I1
I-1
I-3
I2
I1
I3
I-3
I-1
tp1075
a(I-8
I3
I-5
I-1
I-5
I4
I-7
I0
tp1076
a(I0
I-5
I1
I-2
I-39
I43
I2
I-3
tp1077
a(I3
I-5
I3
I-7
I-15
I18
I4
I-1
tp1078
a(I1
I-4
I0
I0
I-16
I20
I3
I1
tp1079
a(I-9
I6
I1
I11
I-7
I6
I-9
I-2
tp1080
a(I-1
I-4
I0
I1
I-29
I23
I3
I0
tp1081
a(I9
I-12
I5
I-12
I-24
I31
I8
I-3
tp1082
a(I1
I-7
I5
I-9
I-28
I33
I1
I-1
tp1083
a(I-10
I3
I-1
I3
I-15
I6
I-8
I-2
tp1084
a(I-3
I0
I1
I11
I-18
I-34
I-5
I-4
tp1085
a(I-7
I2
I4
I4
I-23
I20
I-4
I2
tp1086
a(I-2
I-6
I0
I-10
I-53
I36
I2
I3
tp1087
a(I3
I-7
I4
I-12
I-25
I19
I6
I2
tp1088
a(I3
I-5
I0
I2
I-5
I16
I1
I-3
tp1089
a(I-1
I-4
I-5
I12
I-7
I2
I-1
I0
tp1090
a(I6
I-8
I-1
I12
I-20
I31
I2
I-1
tp1091
a(I7
I-5
I-6
I25
I-10
I4
I4
I-4
tp1092
a(I0
I2
I-7
I37
I31
I-47
I-1
I-3
tp1093
a(I-6
I4
I-4
I25
I-5
I2
I-4
I-4
tp1094
a(I0
I1
I-6
I24
I7
I-29
I-4
I-3
tp1095
a(I-3
I0
I0
I15
I-14
I-12
I0
I-1
tp1096
a(I2
I-1
I4
I-9
I-30
I11
I5
I3
tp1097
a(I9
I-7
I3
I-6
I-17
I21
I8
I-1
tp1098
a(I5
I-5
I-3
I11
I17
I-13
I0
I0
tp1099
a(I-1
I0
I-4
I15
I1
I-5
I-1
I-1
tp1100
a(I6
I-3
I-6
I9
I8
I-1
I6
I-3
tp1101
a(I4
I-2
I-3
I31
I23
I-33
I1
I-3
tp1102
a(I-3
I8
I-7
I31
I65
I-82
I-4
I-1
tp1103
a(I-8
I10
I-7
I19
I1
I-9
I-12
I-1
tp1104
a(I-3
I1
I-4
I4
I22
I-41
I-2
I-2
tp1105
a(I1
I0
I-3
I-5
I-2
I-26
I2
I0
tp1106
a(I-3
I5
I-4
I-2
I20
I-43
I-6
I1
tp1107
a(I-7
I3
I2
I-15
I-2
I-5
I-6
I-1
tp1108
a(I-2
I-2
I-6
I9
I32
I5
I0
I2
tp1109
a(I-4
I4
I-5
I5
I10
I-13
I-6
I-4
tp1110
a(I6
I-4
I-3
I10
I1
I12
I3
I2
tp1111
a(I4
I-1
I-4
I14
I7
I-15
I0
I0
tp1112
a(I-2
I1
I-5
I14
I20
I-12
I-1
I-1
tp1113
a(I-4
I-1
I-1
I-4
I0
I-15
I-6
I-3
tp1114
a(I-2
I-2
I2
I-4
I-5
I-2
I1
I-1
tp1115
a(I2
I-3
I-5
I-4
I-19
I18
I6
I-1
tp1116
a(I0
I5
I-2
I11
I2
I-6
I-2
I1
tp1117
a(I-7
I3
I-1
I-2
I2
I4
I-8
I1
tp1118
a(I5
I-5
I1
I-9
I-19
I9
I4
I-1
tp1119
a(I2
I-6
I3
I-10
I-14
I17
I1
I1
tp1120
a(I2
I-3
I2
I1
I-13
I12
I2
I-1
tp1121
a(I0
I-3
I-1
I-2
I-15
I8
I3
I1
tp1122
a(I-4
I5
I-3
I5
I-4
I-4
I-4
I-3
tp1123
a(I-7
I5
I0
I1
I-3
I1
I-7
I0
tp1124
a(I6
I-3
I4
I0
I-13
I5
I3
I2
tp1125
a(I5
I-3
I3
I-3
I-13
I15
I5
I-1
tp1126
a(I-4
I1
I-1
I5
I-4
I5
I-5
I-3
tp1127
a(I-5
I5
I-2
I-3
I-2
I3
I-6
I1
tp1128
a(I-5
I1
I-4
I2
I1
I-5
I-3
I0
tp1129
a(I-8
I3
I-2
I-2
I-5
I4
I-5
I-1
tp1130
a(I1
I-3
I0
I2
I-13
I6
I2
I1
tp1131
a(I3
I-3
I0
I-3
I-11
I11
I5
I-1
tp1132
a(I-2
I2
I-2
I0
I-1
I-2
I-5
I0
tp1133
a(I-5
I5
I1
I-2
I-4
I2
I-3
I-2
tp1134
a(I1
I-3
I-4
I-3
I-10
I10
I3
I-1
tp1135
a(I2
I-5
I-2
I-3
I-11
I9
I2
I0
tp1136
a(I-2
I1
I0
I7
I1
I-10
I-3
I0
tp1137
a(I-8
I-1
I-6
I-1
I-6
I4
I-6
I1
tp1138
a(I3
I-1
I1
I-5
I-13
I19
I1
I-4
tp1139
a(I4
I-4
I-2
I-3
I-11
I10
I0
I-2
tp1140
a(I1
I-5
I-1
I-5
I-15
I18
I3
I-1
tp1141
a(I5
I-3
I-1
I-3
I-10
I9
I0
I-2
tp1142
a(I-3
I2
I-1
I4
I6
I-9
I-4
I1
tp1143
a(I-6
I3
I0
I-6
I-6
I4
I-6
I2
tp1144
a(I2
I-6
I-4
I-4
I-15
I15
I3
I1
tp1145
a(I3
I-4
I1
I-4
I-11
I10
I2
I-1
tp1146
a(I-4
I4
I-3
I7
I6
I-10
I-5
I-4
tp1147
a(I-5
I2
I-1
I-2
I-5
I4
I-5
I-2
tp1148
a(I1
I-3
I1
I-6
I-17
I16
I1
I0
tp1149
a(I3
I-3
I2
I-2
I-11
I9
I4
I-2
tp1150
a(I-1
I2
I-3
I7
I10
I-10
I-5
I0
tp1151
a(I-5
I2
I-3
I-1
I-7
I3
I-5
I0
tp1152
a(I-3
I1
I-2
I6
I9
I-16
I-6
I-3
tp1153
a(I-7
I1
I-2
I-3
I-6
I4
I-5
I-3
tp1154
a(I5
I-4
I0
I-7
I-15
I12
I4
I0
tp1155
a(I3
I-2
I-3
I-1
I-10
I9
I4
I-1
tp1156
a(I-4
I4
I-1
I7
I7
I-14
I-4
I-1
tp1157
a(I-4
I1
I3
I-3
I-6
I3
I-5
I0
tp1158
a(I1
I-4
I3
I-6
I-14
I17
I1
I-2
tp1159
a(I4
I-4
I-1
I-3
I-8
I9
I0
I-4
tp1160
a(I-5
I2
I-4
I7
I6
I-15
I-6
I-3
tp1161
a(I-6
I1
I-2
I-1
I-7
I5
I-3
I-1
tp1162
a(I3
I-4
I0
I-3
I-17
I11
I4
I-1
tp1163
a(I4
I-2
I-1
I-4
I-9
I8
I2
I-1
tp1164
a(I3
I-3
I-4
I-3
I-17
I14
I2
I1
tp1165
a(I2
I-2
I-2
I-3
I-9
I8
I4
I2
tp1166
a(I-4
I5
I-6
I5
I12
I-11
I-6
I-2
tp1167
a(I-1
I-1
I1
I-1
I-6
I4
I-3
I0
tp1168
a(I3
I-6
I-1
I-4
I-12
I9
I2
I-3
tp1169
a(I4
I-4
I-3
I-1
I-9
I8
I3
I4
tp1170
a(I-2
I4
I1
I1
I8
I-9
I-6
I-3
tp1171
a(I-5
I1
I0
I1
I-7
I6
I-3
I2
tp1172
a(I3
I-4
I-2
I0
I-15
I11
I2
I0
tp1173
a(I5
I-3
I1
I-4
I-11
I9
I3
I-1
tp1174
a(I-5
I4
I0
I1
I7
I-9
I-5
I-4
tp1175
a(I-2
I0
I-1
I0
I-7
I5
I-5
I-2
tp1176
a(I-5
I0
I-5
I1
I8
I-8
I-3
I-1
tp1177
a(I-3
I2
I-1
I-3
I-6
I3
I-3
I-1
tp1178
a(I1
I-2
I0
I-4
I-12
I11
I3
I2
tp1179
a(I3
I-4
I0
I-5
I-11
I10
I4
I-4
tp1180
a(I-4
I2
I-3
I5
I4
I-4
I-4
I2
tp1181
a(I-5
I-1
I-1
I-3
I-4
I3
I-1
I1
tp1182
a(I4
I1
I3
I-6
I-12
I14
I2
I-3
tp1183
a(I1
I-2
I-2
I-4
I-10
I9
I2
I1
tp1184
a(I-6
I4
I0
I2
I4
I-7
I-7
I-1
tp1185
a(I-3
I2
I0
I-1
I-5
I2
I-2
I-2
tp1186
a(I4
I-3
I1
I-4
I-14
I11
I3
I2
tp1187
a(I4
I-3
I0
I-1
I-11
I9
I2
I0
tp1188
a(I2
I-2
I4
I-4
I-12
I13
I2
I2
tp1189
a(I2
I-5
I2
I-3
I-10
I10
I4
I-1
tp1190
a(I-1
I3
I-1
I5
I2
I-5
I-1
I1
tp1191
a(I-3
I-1
I0
I-5
I-6
I3
I-4
I0
tp1192
a(I3
I-5
I2
I-3
I-15
I15
I5
I-3
tp1193
a(I3
I-6
I-2
I-4
I-10
I9
I2
I-1
tp1194
a(I-7
I4
I-3
I2
I4
I-5
I-7
I1
tp1195
a(I-3
I0
I1
I-6
I-7
I5
I-3
I0
tp1196
a(I1
I-3
I-2
I-5
I-12
I8
I2
I-1
tp1197
a(I3
I-2
I2
I1
I-11
I10
I3
I-2
tp1198
a(I-7
I3
I-1
I5
I3
I-10
I-5
I-4
tp1199
a(I-1
I-2
I-1
I-5
I-7
I6
I-1
I0
tp1200
a(I-3
I3
I0
I8
I9
I-12
I-7
I-2
tp1201
a(I-4
I1
I1
I-6
I-10
I12
I-4
I-2
tp1202
a(I2
I-6
I2
I-2
I-16
I14
I5
I-2
tp1203
a(I2
I1
I0
I0
I-13
I9
I0
I-1
tp1204
a(I-5
I3
I-3
I6
I4
I-7
I-4
I-2
tp1205
a(I-4
I3
I-1
I-7
I-14
I14
I-3
I0
tp1206
a(I4
I-4
I-2
I-6
I-14
I20
I2
I-3
tp1207
a(I3
I-4
I0
I-2
I-9
I11
I1
I1
tp1208
a(I-2
I4
I-5
I4
I7
I-9
I-5
I1
tp1209
a(I-4
I2
I2
I-4
I-11
I10
I-1
I0
tp1210
a(I3
I-4
I-2
I-6
I-16
I18
I4
I2
tp1211
a(I0
I-4
I-2
I2
I-10
I10
I3
I-2
tp1212
a(I3
I-1
I3
I-5
I-17
I14
I2
I-2
tp1213
a(I2
I-4
I-1
I2
I-7
I7
I0
I-2
tp1214
a(I-5
I3
I-2
I5
I4
I-4
I-7
I2
tp1215
a(I-4
I0
I-4
I-3
I-15
I14
I-2
I2
tp1216
a(I3
I-5
I1
I-4
I-15
I11
I4
I-1
tp1217
a(I1
I0
I-3
I1
I-6
I8
I2
I-3
tp1218
a(I-4
I1
I1
I5
I3
I-2
I-4
I-1
tp1219
a(I-3
I0
I2
I-6
I-14
I14
I0
I-2
tp1220
a(I1
I-3
I2
I-4
I-15
I12
I3
I0
tp1221
a(I4
I-2
I0
I-3
I-8
I10
I4
I-2
tp1222
a(I-6
I2
I-6
I5
I2
I-2
I-8
I-1
tp1223
a(I-1
I-2
I2
I-6
I-17
I8
I-1
I-3
tp1224
a(I-5
I4
I-2
I4
I2
I-2
I-6
I2
tp1225
a(I-2
I0
I-2
I-4
I-13
I8
I-1
I0
tp1226
a(I5
I-1
I0
I-3
I-14
I15
I2
I-1
tp1227
a(I4
I-4
I1
I-3
I-11
I9
I1
I-1
tp1228
a(I-5
I3
I-7
I6
I-2
I-1
I-6
I-2
tp1229
a(I1
I-4
I3
I-3
I-9
I6
I-1
I0
tp1230
a(I2
I-2
I1
I-4
I-14
I13
I3
I2
tp1231
a(I2
I-1
I-4
I-1
I-8
I8
I2
I-1
tp1232
a(I-5
I2
I0
I3
I-2
I-2
I-8
I-1
tp1233
a(I-1
I0
I-1
I-3
I-8
I5
I-3
I-2
tp1234
a(I4
I-3
I-2
I-2
I-14
I16
I1
I0
tp1235
a(I-1
I-3
I0
I-6
I-9
I9
I2
I0
tp1236
a(I4
I-5
I0
I0
I-14
I8
I4
I-3
tp1237
a(I1
I-2
I3
I0
I-7
I8
I-1
I1
tp1238
a(I-6
I2
I-1
I3
I-2
I-3
I-6
I-3
tp1239
a(I-2
I1
I0
I-2
I-8
I3
I-2
I1
tp1240
a(I1
I-6
I2
I-4
I-16
I11
I3
I0
tp1241
a(I2
I-3
I-1
I2
I-8
I9
I3
I-3
tp1242
a(I-8
I4
I3
I1
I-1
I-5
I-6
I-4
tp1243
a(I-1
I-3
I-4
I-2
I-8
I6
I-2
I3
tp1244
a(I1
I-2
I0
I-6
I-11
I11
I4
I-1
tp1245
a(I3
I-4
I-2
I-2
I-9
I8
I0
I0
tp1246
a(I-4
I3
I-3
I2
I0
I-2
I-7
I-1
tp1247
a(I-2
I0
I4
I-9
I-12
I8
I0
I-5
tp1248
a(I4
I-2
I-1
I-1
I-13
I12
I4
I2
tp1249
a(I0
I-4
I-1
I2
I-10
I8
I1
I-3
tp1250
a(I-5
I3
I-1
I3
I2
I-5
I-6
I1
tp1251
a(I-2
I-2
I-1
I-6
I-17
I13
I-1
I3
tp1252
a(I2
I-2
I2
I-1
I-10
I9
I3
I0
tp1253
a(I3
I-3
I4
I2
I-11
I7
I3
I0
tp1254
a(I-5
I2
I-2
I4
I2
I-4
I-5
I-3
tp1255
a(I-4
I-1
I1
I-6
I-12
I16
I0
I-3
tp1256
a(I1
I-6
I0
I-7
I-7
I11
I-1
I0
tp1257
a(I6
I-5
I-3
I3
I-10
I8
I-1
I-3
tp1258
a(I-7
I5
I-5
I5
I2
I-6
I-6
I-3
tp1259
a(I-1
I-4
I-4
I-5
I-16
I15
I0
I0
tp1260
a(I-3
I2
I-7
I4
I3
I1
I-6
I2
tp1261
a(I-1
I-2
I2
I-9
I-18
I20
I1
I-2
tp1262
a(I1
I-4
I1
I-3
I-14
I14
I0
I-1
tp1263
a(I2
I0
I-2
I2
I-6
I7
I3
I0
tp1264
a(I-5
I6
I0
I5
I0
I-2
I-5
I2
tp1265
a(I-2
I-2
I1
I-5
I-21
I22
I-1
I1
tp1266
a(I3
I-5
I2
I-4
I-17
I15
I3
I-1
tp1267
a(I2
I-1
I0
I1
I-4
I9
I2
I0
tp1268
a(I-7
I5
I-2
I7
I0
I0
I-5
I-1
tp1269
a(I-1
I-5
I4
I-9
I-21
I20
I0
I0
tp1270
a(I4
I-3
I-1
I-4
I-15
I15
I4
I-2
tp1271
a(I1
I-3
I0
I-2
I-8
I7
I1
I0
tp1272
a(I3
I-3
I-2
I-5
I-13
I17
I3
I-1
tp1273
a(I4
I-1
I0
I2
I-4
I5
I3
I-2
tp1274
a(I-8
I2
I2
I3
I-3
I4
I-8
I-3
tp1275
a(I1
I-1
I1
I-4
I-19
I18
I0
I-1
tp1276
a(I4
I-3
I1
I-4
I-19
I12
I4
I0
tp1277
a(I0
I0
I-1
I0
I-6
I7
I0
I2
tp1278
a(I-7
I4
I-3
I5
I-5
I4
I-5
I-1
tp1279
a(I-1
I1
I1
I-7
I-20
I12
I0
I0
tp1280
a(I4
I-3
I0
I-4
I-15
I18
I3
I-3
tp1281
a(I0
I-3
I-2
I3
I-6
I2
I-1
I1
tp1282
a(I-6
I2
I-2
I3
I-5
I5
I-6
I-2
tp1283
a(I0
I-3
I1
I-6
I-20
I15
I-1
I1
tp1284
a(I-6
I4
I-2
I5
I-3
I6
I-9
I-1
tp1285
a(I-1
I-4
I-2
I-6
I-18
I14
I3
I0
tp1286
a(I2
I-1
I-1
I-5
I-13
I12
I2
I-2
tp1287
a(I1
I-4
I-2
I5
I0
I-2
I0
I0
tp1288
a(I-6
I4
I0
I5
I-7
I2
I-7
I1
tp1289
a(I1
I-1
I2
I-3
I-19
I16
I3
I-1
tp1290
a(I2
I-2
I-2
I-5
I-15
I16
I4
I1
tp1291
a(I0
I-2
I0
I2
I0
I-2
I0
I-3
tp1292
a(I-7
I4
I-6
I1
I-2
I3
I-8
I0
tp1293
a(I-1
I-5
I3
I-7
I-16
I17
I-1
I-1
tp1294
a(I3
I-6
I-1
I-3
I-13
I14
I2
I-1
tp1295
a(I3
I-1
I-3
I5
I1
I5
I0
I-3
tp1296
a(I3
I-4
I2
I-6
I-12
I13
I4
I-1
tp1297
a(I1
I-1
I3
I3
I0
I0
I0
I-2
tp1298
a(I-6
I4
I-3
I8
I-5
I2
I-9
I0
tp1299
a(I1
I-4
I1
I-6
I-20
I13
I-1
I1
tp1300
a(I2
I-4
I0
I-4
I-13
I10
I3
I-1
tp1301
a(I2
I1
I-4
I0
I-3
I-4
I1
I0
tp1302
a(I-6
I5
I-1
I2
I-2
I0
I-7
I-2
tp1303
a(I1
I-5
I-1
I-6
I-18
I15
I3
I0
tp1304
a(I3
I-2
I-2
I-2
I-13
I10
I3
I-1
tp1305
a(I1
I1
I-1
I2
I-2
I2
I0
I-2
tp1306
a(I-5
I4
I-3
I6
I-2
I3
I-6
I-1
tp1307
a(I0
I-4
I0
I-4
I-15
I19
I3
I-2
tp1308
a(I-8
I3
I-1
I5
I-2
I1
I-5
I-1
tp1309
a(I4
I-3
I2
I-6
I-20
I14
I1
I0
tp1310
a(I3
I-5
I-1
I-4
I-10
I10
I3
I-1
tp1311
a(I-1
I2
I0
I1
I-4
I2
I1
I-1
tp1312
a(I-6
I5
I-6
I1
I-2
I1
I-6
I-3
tp1313
a(I2
I-3
I2
I-5
I-18
I18
I0
I0
tp1314
a(I4
I-6
I1
I-3
I-14
I10
I2
I-2
tp1315
a(I0
I-2
I-3
I1
I0
I-3
I-2
I0
tp1316
a(I-7
I3
I-2
I4
I-3
I3
I-8
I-2
tp1317
a(I0
I-2
I-1
I-5
I-14
I14
I3
I-2
tp1318
a(I5
I-4
I-1
I-4
I-14
I12
I0
I2
tp1319
a(I-1
I-2
I-2
I5
I-2
I2
I-1
I-2
tp1320
a(I5
I-1
I0
I-5
I-14
I14
I4
I3
tp1321
a(I-1
I-4
I-2
I2
I0
I1
I0
I-2
tp1322
a(I-7
I3
I-3
I2
I-4
I4
I-7
I-1
tp1323
a(I1
I-1
I1
I-5
I-14
I13
I2
I1
tp1324
a(I1
I-1
I0
I-1
I-15
I15
I4
I-2
tp1325
a(I1
I1
I-2
I1
I-2
I0
I0
I-1
tp1326
a(I-6
I4
I2
I3
I-6
I3
I-6
I0
tp1327
a(I0
I-1
I-2
I-7
I-17
I10
I2
I-1
tp1328
a(I2
I-4
I-1
I-2
I-12
I13
I4
I-1
tp1329
a(I0
I0
I-2
I5
I1
I-4
I-3
I-1
tp1330
a(I-7
I0
I1
I4
I-5
I5
I-6
I-2
tp1331
a(I1
I-1
I1
I-4
I-18
I16
I0
I0
tp1332
a(I-8
I5
I1
I2
I-6
I5
I-8
I-2
tp1333
a(I1
I-2
I4
I-7
I-17
I24
I2
I0
tp1334
a(I4
I-4
I2
I-2
I-15
I13
I2
I-1
tp1335
a(I0
I3
I3
I5
I2
I-5
I1
I-2
tp1336
a(I-5
I4
I-3
I1
I-5
I5
I-5
I1
tp1337
a(I0
I-7
I1
I-5
I-21
I19
I2
I2
tp1338
a(I0
I-6
I-2
I-3
I-13
I11
I1
I-1
tp1339
a(I1
I3
I0
I6
I5
I-7
I-2
I1
tp1340
a(I-7
I5
I-2
I-1
I-6
I5
I-6
I-2
tp1341
a(I2
I-4
I1
I-5
I-20
I15
I1
I-1
tp1342
a(I5
I-4
I-4
I-4
I-13
I11
I3
I-1
tp1343
a(I-1
I-2
I-2
I4
I5
I-6
I-2
I0
tp1344
a(I-1
I-4
I0
I-5
I-12
I12
I6
I0
tp1345
a(I-2
I1
I-1
I4
I2
I-9
I-1
I-4
tp1346
a(I-7
I4
I-5
I4
I-6
I4
I-7
I4
tp1347
a(I4
I-2
I1
I-7
I-20
I20
I3
I0
tp1348
a(I2
I-4
I3
I-2
I-13
I9
I3
I-1
tp1349
a(I-2
I-1
I-4
I3
I9
I-9
I-2
I0
tp1350
a(I-3
I4
I0
I4
I-4
I3
I-5
I-2
tp1351
a(I3
I-4
I4
I-4
I-18
I15
I4
I0
tp1352
a(I3
I1
I0
I-2
I-10
I10
I5
I-2
tp1353
a(I-1
I2
I-1
I6
I6
I-6
I-2
I0
tp1354
a(I-8
I2
I3
I0
I-6
I3
I-6
I-1
tp1355
a(I3
I-3
I0
I-8
I-13
I18
I2
I-2
tp1356
a(I-7
I1
I-3
I-3
I-4
I3
I-4
I-1
tp1357
a(I-2
I-2
I-4
I-4
I-18
I17
I2
I-5
tp1358
a(I0
I-3
I0
I-9
I-9
I7
I4
I1
tp1359
a(I-2
I1
I-4
I7
I7
I-12
I-2
I0
tp1360
a(I-4
I4
I-6
I6
I-4
I2
I-4
I0
tp1361
a(I2
I-5
I-2
I-6
I-19
I14
I1
I-1
tp1362
a(I4
I-4
I-1
I-5
I-11
I11
I1
I-1
tp1363
a(I-2
I1
I-2
I5
I7
I-14
I-3
I-2
tp1364
a(I-8
I5
I3
I-1
I-3
I3
I-7
I-1
tp1365
a(I1
I-3
I0
I-5
I-15
I13
I4
I0
tp1366
a(I2
I-4
I0
I-3
I-10
I10
I5
I-2
tp1367
a(I-2
I-1
I0
I7
I10
I-8
I-4
I0
tp1368
a(I7
I-7
I2
I-5
I-11
I9
I0
I-2
tp1369
a(I-1
I3
I-4
I-2
I2
I-1
I0
I-1
tp1370
a(I-6
I4
I-2
I-3
I-4
I5
I-6
I-1
tp1371
a(I1
I-2
I2
I0
I-17
I11
I3
I2
tp1372
a(I2
I-3
I0
I-3
I-12
I9
I3
I-1
tp1373
a(I0
I2
I0
I4
I3
I-8
I-3
I-1
tp1374
a(I-5
I0
I-3
I0
I-5
I5
I-2
I-2
tp1375
a(I3
I-2
I1
I-1
I-15
I10
I0
I0
tp1376
a(I3
I-2
I3
I-2
I-10
I9
I4
I-2
tp1377
a(I-2
I1
I-4
I3
I8
I-6
I-4
I-7
tp1378
a(I-6
I2
I-2
I-4
I-6
I4
I-7
I-1
tp1379
a(I1
I-3
I-5
I-3
I-10
I11
I4
I-4
tp1380
a(I-7
I3
I-1
I-3
I-5
I5
I-7
I-2
tp1381
a(I2
I-1
I2
I-2
I-9
I10
I1
I-1
tp1382
a(I4
I-3
I-2
I-3
I-10
I9
I0
I-1
tp1383
a(I-4
I0
I-2
I1
I5
I-11
I-2
I-2
tp1384
a(I-6
I2
I-2
I-2
I-7
I4
I-4
I-3
tp1385
a(I3
I-4
I0
I-3
I-12
I11
I3
I-1
tp1386
a(I2
I-4
I0
I-7
I-10
I9
I3
I1
tp1387
a(I-2
I2
I0
I5
I3
I-7
I-5
I0
tp1388
a(I-5
I3
I-1
I-2
I-6
I4
I-1
I0
tp1389
a(I3
I-1
I-5
I-5
I-14
I11
I0
I-2
tp1390
a(I6
I-4
I1
I1
I-10
I9
I3
I-1
tp1391
a(I-3
I1
I-1
I7
I1
I-6
I-3
I1
tp1392
a(I4
I-2
I-1
I-5
I-11
I8
I2
I-3
tp1393
a(I-4
I2
I-4
I4
I3
I-5
I-3
I0
tp1394
a(I-4
I3
I5
I-1
I-6
I4
I-4
I0
tp1395
a(I1
I-2
I-1
I-8
I-17
I17
I3
I1
tp1396
a(I0
I-2
I0
I0
I-10
I8
I1
I-2
tp1397
a(I-3
I4
I-2
I3
I4
I-12
I-3
I-3
tp1398
a(I-6
I0
I1
I-6
I-6
I4
I-5
I-1
tp1399
a(I2
I-4
I-1
I-7
I-15
I15
I4
I1
tp1400
a(I2
I-1
I0
I0
I-11
I9
I1
I0
tp1401
a(I-5
I0
I-4
I8
I9
I-15
I-7
I1
tp1402
a(I-7
I4
I0
I-1
I-6
I2
I-5
I-2
tp1403
a(I1
I-2
I0
I-3
I-17
I17
I0
I-2
tp1404
a(I-3
I2
I-2
I-2
I-7
I5
I-4
I1
tp1405
a(I0
I-5
I2
I-6
I-17
I15
I0
I-1
tp1406
a(I1
I-4
I6
I1
I-11
I8
I3
I-3
tp1407
a(I-3
I2
I-4
I8
I8
I-14
I-3
I-2
tp1408
a(I-4
I2
I3
I-3
I-7
I5
I-4
I-2
tp1409
a(I3
I-2
I0
I-5
I-17
I11
I2
I1
tp1410
a(I3
I-3
I-1
I-2
I-10
I9
I6
I1
tp1411
a(I-3
I2
I0
I8
I8
I-13
I-3
I-2
tp1412
a(I-5
I0
I-4
I-3
I-8
I5
I-3
I0
tp1413
a(I3
I-2
I3
I-4
I-16
I13
I3
I-2
tp1414
a(I2
I-2
I-2
I-4
I-9
I7
I-1
I0
tp1415
a(I-4
I5
I-1
I8
I8
I-12
I-5
I-2
tp1416
a(I3
I-5
I1
I-5
I-8
I9
I3
I-2
tp1417
a(I-4
I4
I-1
I8
I9
I-10
I-6
I-2
tp1418
a(I-5
I4
I3
I-1
I-8
I4
I-5
I-1
tp1419
a(I4
I-3
I-3
I-5
I-15
I12
I4
I0
tp1420
a(I2
I-6
I-3
I-1
I-10
I9
I1
I0
tp1421
a(I-4
I0
I1
I5
I7
I-12
I-3
I0
tp1422
a(I-3
I1
I-1
I-4
I-6
I5
I-5
I2
tp1423
a(I1
I-3
I-2
I-1
I-13
I14
I2
I2
tp1424
a(I4
I-2
I2
I-3
I-11
I9
I2
I-1
tp1425
a(I-4
I5
I-1
I3
I5
I-8
I-5
I2
tp1426
a(I-2
I0
I1
I-3
I-9
I5
I-4
I-2
tp1427
a(I3
I-5
I1
I-2
I-15
I11
I4
I-1
tp1428
a(I-6
I-1
I3
I-2
I-6
I2
I0
I1
tp1429
a(I3
I-2
I-2
I0
I-15
I15
I1
I-2
tp1430
a(I2
I-3
I0
I-5
I-10
I9
I5
I-1
tp1431
a(I-2
I3
I-1
I1
I3
I-4
I-4
I0
tp1432
a(I-7
I1
I-2
I1
I-7
I3
I-9
I-2
tp1433
a(I3
I-2
I-1
I0
I-12
I10
I3
I0
tp1434
a(I5
I-6
I-2
I-4
I-10
I10
I3
I-1
tp1435
a(I-5
I3
I-2
I3
I7
I-3
I-4
I-2
tp1436
a(I-5
I5
I-1
I-2
I-5
I2
I-4
I0
tp1437
a(I0
I-3
I0
I-2
I-13
I11
I3
I0
tp1438
a(I3
I-5
I3
I-2
I-12
I10
I0
I-1
tp1439
a(I-4
I1
I-1
I1
I5
I-7
I-4
I0
tp1440
a(I2
I-3
I-4
I1
I-11
I10
I2
I-1
tp1441
a(I-5
I1
I-4
I1
I4
I-10
I-4
I-3
tp1442
a(I-5
I1
I-3
I-3
I-5
I5
I-3
I-2
tp1443
a(I4
I-4
I5
I-2
I-14
I13
I2
I-1
tp1444
a(I4
I0
I-2
I-1
I-13
I10
I3
I-1
tp1445
a(I-5
I1
I-5
I6
I6
I-2
I-6
I2
tp1446
a(I-2
I0
I-3
I-5
I-5
I3
I-3
I0
tp1447
a(I3
I-3
I2
I-4
I-12
I13
I4
I-1
tp1448
a(I1
I-6
I-2
I-2
I-10
I7
I4
I1
tp1449
a(I-4
I5
I-2
I4
I4
I-6
I-4
I-5
tp1450
a(I-1
I2
I0
I-7
I-6
I7
I-2
I3
tp1451
a(I2
I-3
I1
I-3
I-13
I9
I0
I-3
tp1452
a(I-4
I-2
I4
I-4
I-11
I7
I-2
I-1
tp1453
a(I3
I0
I0
I-10
I-12
I12
I5
I0
tp1454
a(I1
I-3
I0
I0
I-11
I9
I1
I0
tp1455
a(I-6
I3
I1
I10
I5
I-9
I-6
I-1
tp1456
a(I-4
I0
I-2
I-9
I-10
I14
I-3
I1
tp1457
a(I1
I-3
I2
I-1
I-14
I15
I2
I0
tp1458
a(I4
I-1
I3
I-2
I-6
I9
I2
I-1
tp1459
a(I-4
I3
I0
I7
I9
I-12
I-6
I-3
tp1460
a(I-2
I-2
I-1
I-9
I-15
I10
I-1
I-1
tp1461
a(I3
I-1
I-3
I-4
I-14
I13
I3
I-1
tp1462
a(I3
I-2
I-4
I1
I-8
I10
I3
I-2
tp1463
a(I-4
I4
I-3
I6
I6
I-9
I-6
I-2
tp1464
a(I3
I-2
I0
I1
I-6
I8
I1
I-2
tp1465
a(I-7
I3
I-5
I4
I5
I-7
I-5
I2
tp1466
a(I-3
I-1
I2
I-7
I-15
I14
I-1
I-1
tp1467
a(I5
I-5
I-1
I-6
I-15
I18
I2
I1
tp1468
a(I2
I-1
I-1
I-6
I-9
I10
I0
I-4
tp1469
a(I-5
I3
I-2
I7
I0
I-3
I-6
I0
tp1470
a(I-1
I0
I2
I-4
I-14
I11
I1
I0
tp1471
a(I1
I-4
I-2
I-4
I-16
I12
I3
I1
tp1472
a(I3
I-3
I0
I-1
I-10
I8
I1
I2
tp1473
a(I-4
I2
I0
I3
I1
I0
I-5
I-1
tp1474
a(I-3
I-2
I-1
I0
I-13
I12
I-3
I-2
tp1475
a(I3
I-5
I0
I-4
I-15
I13
I2
I-1
tp1476
a(I-3
I-2
I-1
I-2
I-13
I10
I-2
I3
tp1477
a(I3
I-4
I3
I-2
I-16
I14
I1
I1
tp1478
a(I-1
I-4
I-1
I-2
I-11
I9
I2
I-2
tp1479
a(I-5
I3
I-2
I3
I0
I-1
I-4
I-2
tp1480
a(I-1
I0
I-3
I-2
I-14
I6
I-1
I0
tp1481
a(I4
I-1
I-3
I-1
I-10
I13
I2
I-1
tp1482
a(I3
I-3
I0
I-3
I-10
I6
I3
I-1
tp1483
a(I-5
I6
I-4
I6
I0
I-1
I-8
I-1
tp1484
a(I-3
I-1
I0
I-7
I-10
I4
I-3
I-3
tp1485
a(I3
I-6
I-1
I-6
I-12
I14
I4
I0
tp1486
a(I2
I-2
I-3
I1
I-9
I8
I1
I-2
tp1487
a(I-7
I4
I-2
I1
I-1
I2
I-4
I-3
tp1488
a(I1
I-3
I2
I0
I-10
I8
I1
I0
tp1489
a(I-6
I2
I1
I4
I0
I-4
I-6
I-2
tp1490
a(I0
I0
I3
I-2
I-11
I8
I0
I1
tp1491
a(I3
I-3
I3
I-5
I-14
I9
I3
I-2
tp1492
a(I4
I-1
I-3
I-6
I-11
I10
I-1
I1
tp1493
a(I-5
I6
I0
I4
I-4
I-4
I-5
I1
tp1494
a(I-1
I-2
I-1
I0
I-6
I4
I-1
I-1
tp1495
a(I3
I-4
I1
I-3
I-11
I13
I2
I-1
tp1496
a(I3
I-2
I-3
I0
I-9
I9
I2
I-2
tp1497
a(I-6
I2
I0
I3
I0
I-3
I-3
I-1
tp1498
a(I-3
I0
I0
I-4
I-7
I6
I0
I0
tp1499
a(I2
I-3
I1
I-2
I-11
I11
I3
I-1
tp1500
a(I-3
I-1
I-1
I-6
I-12
I10
I0
I2
tp1501
a(I0
I-2
I-1
I1
I-14
I9
I3
I1
tp1502
a(I1
I-2
I2
I2
I-11
I8
I0
I-1
tp1503
a(I-4
I2
I-3
I4
I2
I-5
I-6
I-4
tp1504
a(I-1
I-4
I3
I-6
I-20
I18
I0
I0
tp1505
a(I2
I-1
I-4
I-6
I-10
I10
I3
I-3
tp1506
a(I1
I-4
I2
I5
I-3
I8
I4
I-1
tp1507
a(I-6
I4
I-5
I7
I4
I-2
I-5
I3
tp1508
a(I-2
I-4
I2
I-9
I-16
I16
I-2
I-2
tp1509
a(I2
I-2
I-3
I-4
I-14
I13
I2
I1
tp1510
a(I3
I-3
I1
I-4
I-9
I8
I1
I-2
tp1511
a(I-6
I3
I2
I9
I4
I-2
I-6
I-1
tp1512
a(I0
I-1
I-6
I4
I-10
I5
I1
I0
tp1513
a(I-3
I4
I-4
I5
I1
I-1
I-7
I-1
tp1514
a(I-2
I-1
I-3
I-6
I-22
I19
I1
I-2
tp1515
a(I5
I-5
I2
I-7
I-15
I14
I3
I-1
tp1516
a(I1
I2
I-2
I-1
I-7
I8
I4
I-1
tp1517
a(I-5
I2
I-2
I5
I-1
I2
I-5
I0
tp1518
a(I0
I-2
I-2
I-8
I-18
I15
I0
I0
tp1519
a(I3
I-5
I1
I-7
I-14
I16
I2
I-2
tp1520
a(I-1
I-2
I1
I-1
I-8
I6
I-4
I-1
tp1521
a(I-5
I4
I-2
I4
I-1
I4
I-5
I0
tp1522
a(I-2
I-2
I3
I-9
I-20
I19
I1
I0
tp1523
a(I3
I-3
I3
I-3
I-15
I14
I5
I-1
tp1524
a(I-2
I-2
I-1
I-9
I-18
I14
I0
I-2
tp1525
a(I2
I-3
I-1
I-4
I-18
I15
I0
I1
tp1526
a(I2
I-2
I-2
I2
I-3
I4
I0
I0
tp1527
a(I-4
I5
I-1
I2
I-4
I1
I-6
I-1
tp1528
a(I3
I-4
I2
I-8
I-22
I17
I3
I-5
tp1529
a(I-1
I-1
I0
I-3
I-16
I14
I4
I-1
tp1530
a(I2
I0
I-4
I4
I-3
I4
I2
I1
tp1531
a(I-7
I4
I-4
I6
I-4
I4
I-6
I-2
tp1532
a(I-1
I-4
I-1
I-4
I-19
I15
I2
I3
tp1533
a(I4
I-2
I-2
I-5
I-16
I15
I1
I-1
tp1534
a(I3
I-1
I-2
I2
I-2
I-1
I3
I-1
tp1535
a(I-7
I3
I-3
I3
I-6
I4
I-9
I0
tp1536
a(I-1
I-4
I-5
I5
I1
I-1
I1
I-1
tp1537
a(I-6
I6
I2
I5
I-5
I4
I-7
I1
tp1538
a(I0
I-2
I3
I-8
I-19
I15
I0
I0
tp1539
a(I3
I-3
I-3
I-1
I-15
I15
I4
I-2
tp1540
a(I1
I-1
I-1
I3
I-3
I3
I0
I0
tp1541
a(I-7
I3
I1
I4
I-4
I1
I-7
I-2
tp1542
a(I0
I0
I-1
I-5
I-17
I11
I1
I1
tp1543
a(I4
I-5
I1
I-4
I-13
I11
I3
I3
tp1544
a(I2
I0
I2
I1
I-1
I-1
I0
I1
tp1545
a(I-7
I4
I-2
I8
I-5
I1
I-5
I-3
tp1546
a(I1
I0
I2
I-8
I-19
I12
I2
I-1
tp1547
a(I3
I-3
I0
I-5
I-13
I9
I4
I0
tp1548
a(I0
I-4
I0
I-2
I-15
I14
I-1
I1
tp1549
a(I4
I-2
I5
I-2
I-12
I11
I4
I1
tp1550
a(I-1
I1
I-1
I3
I-1
I1
I-2
I0
tp1551
a(I-6
I3
I-3
I4
I-2
I1
I-6
I-2
tp1552
a(I1
I-1
I1
I-6
I-20
I17
I0
I2
tp1553
a(I2
I-2
I3
I-5
I-13
I13
I2
I-4
tp1554
a(I3
I1
I-1
I3
I-2
I2
I-1
I-3
tp1555
a(I-9
I2
I-4
I6
I0
I1
I-6
I-1
tp1556
a(I-1
I-2
I-3
I-8
I-16
I15
I1
I-1
tp1557
a(I3
I-3
I-2
I-3
I-12
I13
I5
I-3
tp1558
a(I0
I-1
I2
I-1
I1
I-1
I0
I0
tp1559
a(I-5
I3
I-1
I2
I-1
I1
I-4
I-2
tp1560
a(I0
I0
I-3
I4
I-3
I1
I-1
I0
tp1561
a(I-6
I1
I-3
I4
I-2
I3
I-8
I3
tp1562
a(I-1
I-1
I4
I-7
I-16
I18
I2
I-2
tp1563
a(I2
I-6
I0
I-5
I-12
I11
I4
I-1
tp1564
a(I0
I1
I-3
I1
I-3
I2
I1
I-1
tp1565
a(I-5
I6
I1
I-1
I-4
I4
I-7
I1
tp1566
a(I-1
I-5
I-2
I-3
I-20
I16
I2
I-1
tp1567
a(I4
I-4
I-4
I-4
I-12
I14
I3
I-1
tp1568
a(I0
I1
I1
I0
I-1
I0
I0
I-3
tp1569
a(I-5
I4
I-2
I4
I-3
I4
I-5
I-2
tp1570
a(I2
I-3
I-3
I-1
I-15
I17
I4
I0
tp1571
a(I4
I-4
I3
I-3
I-14
I15
I1
I1
tp1572
a(I4
I-2
I-1
I-4
I-16
I15
I2
I-1
tp1573
a(I2
I-3
I-2
I-1
I-13
I13
I4
I-3
tp1574
a(I-1
I-1
I0
I2
I-4
I1
I-3
I0
tp1575
a(I-7
I3
I-3
I2
I-5
I5
I-8
I1
tp1576
a(I2
I-2
I-1
I-5
I-19
I15
I1
I-3
tp1577
a(I2
I-1
I0
I0
I-15
I14
I5
I-2
tp1578
a(I-3
I-2
I1
I4
I1
I-2
I2
I-2
tp1579
a(I-8
I5
I1
I3
I-5
I5
I-8
I0
tp1580
a(I0
I-3
I4
I-2
I-19
I15
I2
I-1
tp1581
a(I1
I-1
I-1
I-8
I-14
I13
I4
I0
tp1582
a(I-2
I-4
I-4
I3
I3
I-6
I-3
I-5
tp1583
a(I-8
I3
I-5
I5
I-5
I4
I-7
I0
tp1584
a(I0
I1
I-1
I7
I2
I-8
I-1
I-2
tp1585
a(I-7
I-1
I0
I-1
I-7
I4
I-6
I-2
tp1586
a(I3
I-6
I-1
I-4
I-12
I9
I1
I0
tp1587
a(I-1
I1
I2
I4
I1
I-3
I-3
I1
tp1588
a(I-4
I3
I-1
I1
I-3
I-1
I-8
I-1
tp1589
a(I0
I-4
I1
I-11
I-16
I13
I3
I-1
tp1590
a(I1
I-5
I1
I-1
I-13
I6
I3
I-2
tp1591
a(I1
I0
I-1
I1
I-1
I2
I-1
I0
tp1592
a(I-4
I1
I-4
I6
I-4
I1
I-6
I1
tp1593
a(I0
I-1
I2
I-11
I-17
I12
I0
I0
tp1594
a(I3
I-6
I0
I-1
I-11
I9
I4
I1
tp1595
a(I-2
I0
I-1
I1
I1
I-4
I-3
I-4
tp1596
a(I-7
I2
I-3
I4
I-4
I2
I-6
I-1
tp1597
a(I1
I-3
I-1
I-9
I-18
I17
I1
I-1
tp1598
a(I-4
I5
I-3
I4
I-4
I3
I-6
I-3
tp1599
a(I1
I-5
I-2
I-4
I-18
I14
I5
I-1
tp1600
a(I3
I-5
I3
I-3
I-13
I15
I3
I-3
tp1601
a(I1
I-3
I-1
I2
I-2
I4
I1
I-1
tp1602
a(I-6
I6
I-2
I6
I-5
I5
I-8
I-1
tp1603
a(I1
I-1
I-7
I-8
I-1
I11
I1
I2
tp1604
a(I1
I2
I-2
I-9
I1
I-1
I0
I-2
tp1605
a(I1
I1
I-4
I-2
I20
I-7
I-1
I-1
tp1606
a(I-6
I7
I-6
I0
I-1
I0
I-10
I-2
tp1607
a(I-1
I-1
I-5
I1
I13
I-13
I-3
I-2
tp1608
a(I3
I-6
I-4
I-8
I2
I0
I7
I-1
tp1609
a(I3
I-2
I-3
I-9
I5
I17
I4
I-1
tp1610
a(I2
I-4
I3
I-24
I-12
I21
I7
I-1
tp1611
a(I-1
I-2
I-2
I-8
I0
I13
I-1
I-1
tp1612
a(I-4
I0
I-4
I-13
I1
I1
I-4
I0
tp1613
a(I2
I-6
I2
I-20
I-26
I43
I3
I0
tp1614
a(I3
I-4
I1
I-9
I-8
I16
I4
I1
tp1615
a(I0
I-1
I-7
I8
I23
I-21
I0
I-3
tp1616
a(I-5
I6
I-3
I5
I2
I-1
I-9
I-1
tp1617
a(I-4
I3
I0
I2
I0
I-10
I-5
I-2
tp1618
a(I0
I2
I-2
I-3
I-3
I-2
I0
I-1
tp1619
a(I-2
I4
I0
I7
I18
I-27
I-5
I-3
tp1620
a(I-6
I8
I2
I-4
I3
I3
I-7
I-2
tp1621
a(I0
I-4
I1
I-24
I-28
I33
I2
I0
tp1622
a(I-5
I2
I-5
I-2
I0
I7
I-5
I1
tp1623
a(I0
I-2
I1
I-4
I-20
I24
I1
I-1
tp1624
a(I1
I-2
I0
I3
I3
I-4
I-1
I0
tp1625
a(I-2
I5
I0
I11
I17
I-33
I-9
I-5
tp1626
a(I-7
I10
I-3
I5
I1
I4
I-10
I-1
tp1627
a(I-3
I-2
I4
I-16
I-22
I18
I0
I0
tp1628
a(I-2
I-6
I0
I-21
I-17
I23
I0
I0
tp1629
a(I-3
I-3
I-1
I-12
I-13
I25
I-3
I1
tp1630
a(I-5
I-1
I0
I-15
I-7
I19
I-4
I-1
tp1631
a(I3
I-6
I2
I-20
I-35
I54
I6
I-2
tp1632
a(I1
I-4
I-2
I-2
I-3
I12
I6
I0
tp1633
a(I-3
I0
I-2
I17
I3
I-6
I-5
I-3
tp1634
a(I1
I-5
I9
I-9
I-20
I24
I2
I-1
tp1635
a(I-1
I0
I-1
I-3
I-15
I24
I-2
I-3
tp1636
a(I-4
I-2
I3
I-14
I-16
I16
I-2
I-2
tp1637
a(I4
I-7
I4
I-16
I-27
I30
I7
I0
tp1638
a(I6
I-3
I1
I-12
I-20
I29
I7
I2
tp1639
a(I0
I-3
I-5
I-2
I-7
I5
I-2
I0
tp1640
a(I-7
I5
I-1
I1
I-4
I8
I-4
I-1
tp1641
a(I1
I-1
I-2
I2
I-8
I-14
I3
I1
tp1642
a(I3
I-2
I-1
I-1
I-9
I8
I2
I-1
tp1643
a(I-1
I2
I0
I4
I6
I-6
I-2
I-1
tp1644
a(I-4
I4
I-7
I6
I-12
I12
I-7
I-1
tp1645
a(I0
I-4
I2
I-12
I-11
I6
I1
I-1
tp1646
a(I-6
I2
I-4
I-1
I-6
I6
I-3
I0
tp1647
a(I0
I-1
I-3
I-1
I-9
I-3
I3
I-1
tp1648
a(I2
I-5
I-1
I-3
I-12
I12
I3
I-2
tp1649
a(I-2
I3
I-2
I10
I4
I-4
I-5
I-1
tp1650
a(I-4
I5
I2
I-1
I-1
I0
I-4
I1
tp1651
a(I2
I-1
I0
I1
I-10
I9
I2
I-2
tp1652
a(I0
I-2
I0
I-7
I-17
I16
I1
I0
tp1653
a(I-3
I1
I-3
I7
I7
I-9
I-1
I-1
tp1654
a(I-2
I5
I1
I0
I-8
I5
I-6
I0
tp1655
a(I3
I-4
I0
I-5
I-7
I6
I3
I-1
tp1656
a(I1
I-6
I-2
I-4
I-11
I9
I3
I-1
tp1657
a(I-4
I1
I-2
I8
I11
I-8
I-4
I-2
tp1658
a(I3
I-2
I2
I-4
I-9
I8
I2
I-4
tp1659
a(I-3
I2
I-4
I2
I3
I-6
I-2
I0
tp1660
a(I-4
I0
I0
I-3
I-7
I6
I-2
I-2
tp1661
a(I1
I-3
I1
I-3
I-11
I6
I2
I-1
tp1662
a(I1
I-3
I2
I-4
I-12
I10
I4
I-1
tp1663
a(I-3
I2
I-4
I8
I3
I-7
I-1
I-1
tp1664
a(I-3
I1
I-1
I-4
I-5
I7
I-5
I2
tp1665
a(I-1
I-3
I-2
I-5
I-11
I7
I2
I0
tp1666
a(I3
I-3
I0
I1
I-10
I9
I1
I0
tp1667
a(I-1
I0
I0
I3
I4
I-7
I-5
I0
tp1668
a(I-3
I0
I-1
I-4
I-5
I3
I-4
I0
tp1669
a(I1
I-3
I0
I-3
I-12
I10
I3
I0
tp1670
a(I-4
I3
I-1
I-3
I-6
I4
I-6
I0
tp1671
a(I1
I-3
I2
I-2
I-14
I10
I0
I-1
tp1672
a(I1
I-1
I-1
I-2
I-9
I9
I4
I0
tp1673
a(I-3
I0
I-2
I5
I5
I-9
I-6
I-1
tp1674
a(I-4
I0
I-2
I-2
I-5
I3
I-5
I-2
tp1675
a(I2
I-1
I0
I-7
I-15
I18
I2
I-2
tp1676
a(I1
I-4
I-1
I-1
I-10
I7
I3
I-2
tp1677
a(I-2
I4
I-1
I7
I7
I-8
I-3
I1
tp1678
a(I-4
I3
I1
I-4
I-5
I4
I-3
I-1
tp1679
a(I2
I-3
I5
I-9
I-8
I13
I1
I2
tp1680
a(I2
I-6
I-2
I-1
I-8
I9
I1
I-1
tp1681
a(I-1
I0
I-4
I7
I7
I-14
I-6
I-4
tp1682
a(I0
I-4
I3
I-1
I-10
I8
I1
I-1
tp1683
a(I-3
I3
I0
I5
I7
I-11
I-4
I-2
tp1684
a(I-3
I1
I2
I-3
I-4
I4
I-3
I-1
tp1685
a(I-2
I-2
I-1
I-8
I-16
I14
I1
I-1
tp1686
a(I2
I-3
I2
I-2
I-8
I9
I3
I0
tp1687
a(I-4
I2
I-8
I6
I9
I-12
I0
I-3
tp1688
a(I-3
I2
I4
I-8
I-5
I3
I-4
I3
tp1689
a(I1
I-3
I2
I-7
I-15
I14
I2
I-1
tp1690
a(I2
I-3
I-2
I-4
I-11
I8
I1
I-2
tp1691
a(I-1
I2
I0
I9
I9
I-10
I-5
I2
tp1692
a(I-4
I1
I-2
I-5
I-5
I4
I-5
I0
tp1693
a(I3
I-4
I3
I-6
I-17
I17
I3
I1
tp1694
a(I-3
I-2
I-2
I-5
I-5
I5
I-2
I-2
tp1695
a(I2
I-1
I2
I-8
I-15
I16
I1
I0
tp1696
a(I3
I-1
I-3
I-3
I-8
I9
I0
I-3
tp1697
a(I-3
I1
I-3
I5
I10
I-7
I-3
I-2
tp1698
a(I-2
I3
I1
I-2
I-5
I3
I-2
I1
tp1699
a(I0
I-4
I-2
I-6
I-15
I12
I4
I-3
tp1700
a(I2
I-4
I-1
I-6
I-11
I9
I3
I0
tp1701
a(I-4
I2
I-4
I7
I9
I-8
I-4
I-1
tp1702
a(I-4
I5
I2
I0
I-4
I3
I-5
I0
tp1703
a(I2
I-3
I-1
I-3
I-15
I8
I2
I-3
tp1704
a(I3
I-3
I0
I-2
I-8
I9
I3
I1
tp1705
a(I-2
I0
I0
I7
I5
I-8
I-5
I-2
tp1706
a(I2
I-2
I2
I-8
I-11
I9
I1
I1
tp1707
a(I-2
I0
I-4
I8
I10
I-9
I-5
I-2
tp1708
a(I-4
I0
I-2
I-2
I-8
I3
I-3
I-2
tp1709
a(I2
I-1
I-2
I-6
I-11
I7
I0
I1
tp1710
a(I3
I-4
I-1
I-1
I-9
I8
I1
I-2
tp1711
a(I-5
I2
I-4
I5
I0
I-7
I-3
I1
tp1712
a(I-3
I1
I-1
I-1
I-4
I3
I-6
I-1
tp1713
a(I2
I-6
I-2
I-1
I-12
I9
I3
I-2
tp1714
a(I1
I-2
I3
I-5
I-10
I8
I6
I-2
tp1715
a(I0
I4
I-2
I2
I7
I-8
I-3
I0
tp1716
a(I-4
I-1
I-1
I-5
I-5
I2
I-1
I5
tp1717
a(I1
I-2
I-1
I-1
I-13
I7
I1
I-1
tp1718
a(I-4
I3
I1
I-3
I-4
I2
I-5
I-1
tp1719
a(I1
I-3
I3
I0
I-10
I13
I0
I-3
tp1720
a(I2
I-2
I1
I-3
I-10
I8
I2
I1
tp1721
a(I-4
I2
I1
I4
I1
I-4
I-6
I-2
tp1722
a(I-2
I2
I0
I-1
I-5
I4
I0
I-2
tp1723
a(I0
I-2
I-1
I-10
I-15
I14
I4
I0
tp1724
a(I3
I-4
I6
I-4
I-10
I8
I1
I-1
tp1725
a(I-2
I0
I-2
I6
I2
I-4
I-4
I1
tp1726
a(I-4
I0
I0
I-6
I-4
I3
I-2
I2
tp1727
a(I3
I-3
I1
I-3
I-12
I13
I2
I1
tp1728
a(I1
I-4
I0
I-3
I-11
I9
I1
I-1
tp1729
a(I-5
I4
I-2
I5
I4
I-9
I-6
I-2
tp1730
a(I2
I-3
I-3
I-3
I-9
I9
I1
I-1
tp1731
a(I-3
I3
I-4
I8
I2
I-8
I-5
I-1
tp1732
a(I-2
I2
I0
I-4
I-7
I4
I-2
I0
tp1733
a(I3
I-6
I2
I-4
I-15
I14
I1
I0
tp1734
a(I3
I-3
I0
I2
I-11
I8
I2
I0
tp1735
a(I-3
I2
I-3
I3
I4
I-12
I-6
I-1
tp1736
a(I-4
I2
I0
I-10
I-8
I17
I-2
I-2
tp1737
a(I2
I-1
I-2
I-6
I-16
I12
I3
I2
tp1738
a(I0
I-5
I-1
I-1
I-11
I9
I2
I-1
tp1739
a(I-2
I6
I0
I8
I8
I-7
I-5
I0
tp1740
a(I-1
I-2
I2
I-7
I-8
I9
I-3
I-1
tp1741
a(I2
I-6
I1
I-5
I-15
I10
I1
I-1
tp1742
a(I-1
I0
I-1
I-9
I-10
I9
I-2
I-1
tp1743
a(I-1
I-1
I-2
I-7
I-15
I13
I4
I-2
tp1744
a(I2
I-1
I1
I0
I-5
I8
I1
I0
tp1745
a(I-4
I2
I-2
I4
I7
I-6
I-5
I-2
tp1746
a(I-1
I2
I-1
I-8
I-12
I11
I-2
I0
tp1747
a(I0
I-5
I0
I-9
I-15
I11
I2
I-2
tp1748
a(I0
I-2
I-3
I1
I-11
I7
I1
I0
tp1749
a(I-5
I2
I-3
I8
I4
I-5
I-3
I-1
tp1750
a(I-1
I-2
I3
I-8
I-11
I11
I-3
I-1
tp1751
a(I1
I-3
I-1
I-7
I-13
I15
I3
I-2
tp1752
a(I2
I0
I0
I-3
I-10
I8
I2
I-2
tp1753
a(I-4
I0
I-7
I7
I3
I-2
I-3
I-1
tp1754
a(I1
I-4
I0
I-3
I-10
I7
I2
I-1
tp1755
a(I-5
I5
I1
I6
I5
I-4
I-5
I-1
tp1756
a(I-3
I0
I3
I-3
I-12
I7
I2
I2
tp1757
a(I2
I-1
I2
I-5
I-11
I15
I2
I0
tp1758
a(I2
I-4
I-3
I-1
I-10
I7
I1
I-2
tp1759
a(I-2
I3
I0
I5
I-2
I-3
I-7
I-1
tp1760
a(I0
I1
I-2
I-5
I-17
I4
I-3
I0
tp1761
a(I1
I-4
I2
I-5
I-13
I12
I4
I-1
tp1762
a(I1
I-4
I-3
I-7
I-9
I8
I3
I3
tp1763
a(I-4
I4
I-2
I8
I1
I1
I-7
I-1
tp1764
a(I1
I1
I4
I-4
I-9
I3
I-4
I0
tp1765
a(I0
I-3
I0
I-4
I-12
I15
I1
I0
tp1766
a(I-3
I-2
I0
I0
I-12
I6
I-3
I1
tp1767
a(I-1
I-5
I0
I-6
I-16
I11
I0
I-1
tp1768
a(I0
I-1
I1
I1
I-9
I8
I3
I-4
tp1769
a(I-4
I3
I0
I3
I-1
I1
I-4
I0
tp1770
a(I-3
I2
I-1
I-1
I-6
I5
I0
I-1
tp1771
a(I3
I-3
I0
I-1
I-15
I9
I2
I2
tp1772
a(I3
I-3
I-1
I1
I-7
I7
I3
I-3
tp1773
a(I-4
I1
I-1
I6
I-1
I0
I-5
I-2
tp1774
a(I-3
I-2
I-4
I-5
I-8
I3
I-1
I-1
tp1775
a(I0
I-3
I-3
I-5
I-11
I10
I1
I-1
tp1776
a(I2
I-2
I-2
I-4
I-7
I7
I3
I-4
tp1777
a(I-5
I2
I-1
I3
I1
I-7
I-5
I-2
tp1778
a(I1
I-4
I2
I1
I-9
I8
I0
I1
tp1779
a(I-3
I5
I-2
I-1
I-2
I-5
I-4
I-1
tp1780
a(I-2
I-5
I-1
I-5
I-8
I7
I-2
I0
tp1781
a(I2
I-2
I-1
I-8
I-14
I9
I2
I0
tp1782
a(I-1
I-4
I-2
I2
I-8
I8
I3
I1
tp1783
a(I-5
I3
I0
I4
I0
I-3
I-3
I0
tp1784
a(I-1
I-1
I2
I-7
I-16
I9
I-1
I-2
tp1785
a(I3
I-2
I2
I-2
I-12
I11
I3
I-1
tp1786
a(I2
I-1
I1
I-2
I-9
I7
I0
I2
tp1787
a(I-5
I4
I0
I2
I2
I-5
I-5
I0
tp1788
a(I-2
I1
I1
I-5
I-10
I12
I-1
I-1
tp1789
a(I3
I-4
I1
I0
I-11
I9
I3
I-3
tp1790
a(I-2
I-1
I0
I-10
I-14
I12
I0
I-1
tp1791
a(I2
I-2
I4
I-11
I-11
I13
I1
I-1
tp1792
a(I2
I-2
I0
I0
I-8
I6
I2
I-2
tp1793
a(I-4
I2
I-7
I8
I1
I-7
I-8
I0
tp1794
a(I-2
I2
I3
I-10
I-10
I18
I1
I0
tp1795
a(I2
I-4
I0
I-6
I-17
I10
I1
I-2
tp1796
a(I1
I-1
I-2
I0
I-8
I6
I1
I-1
tp1797
a(I-4
I3
I-3
I8
I5
I-5
I-6
I-2
tp1798
a(I0
I-2
I3
I-7
I-17
I16
I0
I2
tp1799
a(I0
I0
I-1
I-1
I-13
I9
I3
I-2
tp1800
a(I1
I-4
I-2
I-1
I-6
I6
I0
I-1
tp1801
a(I-6
I3
I-7
I9
I1
I-3
I-6
I3
tp1802
a(I1
I1
I-3
I4
I-10
I5
I-1
I-1
tp1803
a(I-4
I3
I-2
I4
I1
I-2
I-6
I-1
tp1804
a(I-1
I0
I0
I-15
I-21
I19
I1
I-1
tp1805
a(I-1
I-4
I1
I-6
I-14
I17
I2
I-3
tp1806
a(I0
I-2
I-3
I2
I-4
I4
I1
I-2
tp1807
a(I-3
I4
I0
I6
I-1
I0
I-3
I1
tp1808
a(I-3
I0
I3
I-12
I-17
I12
I-3
I-1
tp1809
a(I4
I0
I2
I-5
I-14
I13
I3
I-1
tp1810
a(I3
I-3
I-2
I0
I-3
I5
I1
I-3
tp1811
a(I-3
I0
I-4
I8
I-1
I-1
I-9
I-1
tp1812
a(I-2
I-5
I1
I-7
I-17
I15
I0
I1
tp1813
a(I2
I-4
I-5
I-9
I-13
I17
I3
I1
tp1814
a(I-1
I-2
I-2
I-6
I-16
I16
I2
I0
tp1815
a(I-1
I-5
I-1
I-6
I-12
I14
I2
I-2
tp1816
a(I0
I-1
I-1
I3
I-5
I1
I1
I-2
tp1817
a(I-3
I1
I-6
I6
I-3
I1
I-5
I-1
tp1818
a(I-1
I-2
I4
I-6
I-16
I12
I1
I2
tp1819
a(I2
I-3
I0
I-6
I-14
I16
I3
I1
tp1820
a(I0
I-1
I-3
I-2
I1
I-2
I-2
I-1
tp1821
a(I-5
I5
I-2
I8
I-5
I1
I-6
I0
tp1822
a(I1
I0
I3
I-5
I-19
I13
I3
I-2
tp1823
a(I1
I-4
I2
I-3
I-12
I13
I3
I1
tp1824
a(I-1
I-3
I-2
I1
I-3
I-1
I-2
I-2
tp1825
a(I-4
I1
I-3
I9
I-2
I3
I-6
I-3
tp1826
a(I2
I-1
I-3
I3
I-3
I1
I0
I-1
tp1827
a(I-6
I4
I-1
I3
I-5
I2
I-6
I-2
tp1828
a(I2
I-2
I-1
I-6
I-14
I16
I3
I0
tp1829
a(I3
I-2
I4
I-7
I-15
I10
I2
I-2
tp1830
a(I1
I-1
I-1
I6
I3
I2
I1
I1
tp1831
a(I-4
I2
I-1
I5
I-4
I2
I-5
I2
tp1832
a(I-1
I-2
I0
I-7
I-16
I14
I2
I0
tp1833
a(I0
I-4
I0
I-10
I-12
I12
I1
I-5
tp1834
a(I2
I0
I-3
I-1
I-1
I3
I0
I-1
tp1835
a(I-5
I4
I-3
I2
I-3
I-2
I-6
I0
tp1836
a(I1
I-3
I1
I-6
I-20
I14
I0
I1
tp1837
a(I3
I-6
I-1
I-4
I-13
I9
I4
I-2
tp1838
a(I-1
I-2
I2
I-8
I-20
I14
I0
I-2
tp1839
a(I-1
I-1
I3
I-2
I-11
I10
I1
I1
tp1840
a(I-1
I1
I-3
I1
I-2
I3
I0
I0
tp1841
a(I-4
I6
I-3
I4
I0
I-1
I-6
I0
tp1842
a(I1
I-1
I0
I-8
I-18
I11
I0
I0
tp1843
a(I3
I-3
I-1
I-2
I-13
I12
I3
I2
tp1844
a(I-1
I-4
I-1
I3
I-4
I-1
I-2
I-4
tp1845
a(I-6
I0
I0
I5
I-1
I-2
I-4
I-2
tp1846
a(I-1
I0
I0
I-9
I-15
I15
I-1
I-1
tp1847
a(I3
I-6
I-3
I-5
I-12
I13
I3
I-1
tp1848
a(I0
I2
I-1
I5
I-1
I-2
I-1
I1
tp1849
a(I-3
I5
I-2
I2
I-2
I-1
I-8
I1
tp1850
a(I-1
I-2
I-2
I2
I-1
I1
I0
I0
tp1851
a(I-5
I1
I-3
I6
I0
I0
I-6
I-2
tp1852
a(I-1
I-3
I5
I-6
I-15
I11
I3
I1
tp1853
a(I3
I-3
I0
I-1
I-15
I10
I4
I-1
tp1854
a(I0
I-2
I-5
I2
I0
I-3
I1
I-4
tp1855
a(I-4
I4
I-1
I1
I-3
I4
I-5
I-1
tp1856
a(I2
I-2
I-4
I-5
I-13
I14
I0
I1
tp1857
a(I2
I-4
I-1
I-7
I-14
I15
I1
I2
tp1858
a(I1
I0
I1
I4
I0
I1
I-2
I-1
tp1859
a(I-5
I4
I-2
I4
I-3
I3
I-5
I-2
tp1860
a(I2
I-2
I0
I-4
I-18
I13
I4
I-2
tp1861
a(I2
I-3
I3
I-6
I-14
I12
I2
I-1
tp1862
a(I0
I0
I-7
I5
I1
I-8
I-2
I-1
tp1863
a(I-5
I6
I0
I2
I-5
I3
I-6
I0
tp1864
a(I0
I-1
I-1
I6
I2
I-2
I-3
I-1
tp1865
a(I-5
I5
I0
I3
I-5
I3
I-6
I2
tp1866
a(I-1
I-4
I-1
I-7
I-20
I18
I1
I-1
tp1867
a(I2
I-3
I1
I-4
I-12
I14
I4
I-3
tp1868
a(I-1
I0
I-1
I0
I3
I-8
I-2
I0
tp1869
a(I-5
I4
I-3
I1
I-5
I3
I-8
I0
tp1870
a(I0
I-2
I2
I-2
I-16
I15
I2
I0
tp1871
a(I0
I-6
I0
I-4
I-12
I10
I3
I-1
tp1872
a(I-1
I-1
I-1
I8
I7
I-7
I2
I-5
tp1873
a(I-4
I2
I0
I1
I-5
I4
I-5
I-1
tp1874
a(I0
I-1
I0
I-8
I-16
I11
I3
I-1
tp1875
a(I2
I-4
I3
I-6
I-13
I8
I3
I-3
tp1876
a(I0
I-2
I-2
I-6
I-16
I15
I2
I0
tp1877
a(I2
I-2
I2
I-3
I-11
I9
I4
I2
tp1878
a(I-1
I-1
I-2
I5
I2
I-8
I-2
I-1
tp1879
a(I-5
I3
I-1
I3
I-5
I3
I-5
I-1
tp1880
a(I2
I-2
I2
I-10
I-21
I13
I3
I1
tp1881
a(I3
I-4
I0
I-4
I-12
I10
I4
I1
tp1882
a(I0
I0
I-3
I6
I6
I-10
I-5
I-1
tp1883
a(I-4
I3
I-3
I3
I-5
I1
I-5
I-1
tp1884
a(I1
I-2
I0
I-6
I-18
I17
I2
I-1
tp1885
a(I3
I0
I-3
I-3
I-11
I7
I2
I1
tp1886
a(I-1
I2
I-4
I6
I3
I-11
I-3
I-2
tp1887
a(I-4
I2
I-1
I0
I-3
I1
I-4
I-1
tp1888
a(I-1
I0
I-1
I4
I2
I-8
I-2
I-1
tp1889
a(I-4
I4
I-1
I2
I-4
I2
I-7
I-2
tp1890
a(I0
I-4
I0
I-5
I-21
I13
I1
I-3
tp1891
a(I2
I-5
I0
I-6
I-11
I8
I3
I1
tp1892
a(I-2
I-2
I-8
I6
I10
I-11
I1
I-3
tp1893
a(I-2
I3
I-1
I-2
I-4
I1
I-8
I0
tp1894
a(I1
I-4
I0
I-8
I-14
I13
I5
I1
tp1895
a(I1
I0
I0
I-5
I-11
I7
I1
I-1
tp1896
a(I-3
I2
I-4
I8
I3
I-8
I-4
I2
tp1897
a(I-7
I1
I-3
I4
I-3
I2
I-7
I-2
tp1898
a(I2
I-2
I2
I-6
I-11
I11
I1
I-2
tp1899
a(I4
I-4
I2
I-1
I-8
I7
I1
I-1
tp1900
a(I2
I-2
I1
I-5
I-19
I7
I1
I0
tp1901
a(I2
I-3
I2
I-1
I-10
I9
I2
I-3
tp1902
a(I0
I1
I-1
I2
I1
I-7
I-2
I0
tp1903
a(I-5
I3
I-1
I2
I-6
I5
I-3
I1
tp1904
a(I0
I-3
I1
I-4
I-12
I4
I2
I-2
tp1905
a(I3
I-3
I3
I-3
I-10
I8
I1
I0
tp1906
a(I-3
I0
I-4
I7
I5
I-3
I-1
I-3
tp1907
a(I-3
I3
I3
I-5
I-4
I2
I-4
I0
tp1908
a(I1
I-1
I-2
I-1
I-9
I8
I3
I0
tp1909
a(I3
I-7
I-2
I-6
I-10
I8
I1
I-4
tp1910
a(I-2
I2
I-3
I4
I4
I-5
I-2
I-4
tp1911
a(I-5
I2
I1
I0
I-4
I4
I-4
I0
tp1912
a(I1
I-2
I2
I-7
I-13
I10
I1
I-2
tp1913
a(I1
I-1
I1
I-1
I-10
I9
I3
I-2
tp1914
a(I-2
I0
I-1
I7
I6
I-8
I-2
I2
tp1915
a(I-4
I3
I-2
I-2
I-5
I4
I-6
I2
tp1916
a(I0
I-2
I0
I-2
I-16
I10
I2
I-2
tp1917
a(I0
I-4
I-3
I0
I-8
I8
I3
I-2
tp1918
a(I-1
I1
I-2
I0
I7
I-10
I-7
I1
tp1919
a(I-3
I2
I0
I-1
I-5
I4
I-3
I-3
tp1920
a(I1
I-3
I-2
I0
I-10
I18
I1
I0
tp1921
a(I3
I-2
I1
I-7
I-9
I9
I4
I1
tp1922
a(I0
I-3
I2
I-7
I-11
I12
I2
I-2
tp1923
a(I3
I2
I2
I-4
I-10
I8
I4
I-1
tp1924
a(I-2
I0
I-2
I5
I4
I-10
I-3
I-2
tp1925
a(I-4
I4
I0
I-5
I-5
I2
I-4
I-1
tp1926
a(I1
I-3
I-1
I-7
I-13
I15
I1
I-1
tp1927
a(I0
I-4
I-4
I-1
I-9
I9
I3
I0
tp1928
a(I-2
I1
I0
I4
I10
I-11
I-3
I-4
tp1929
a(I-3
I0
I-3
I-5
I-5
I3
I-6
I-2
tp1930
a(I-1
I-2
I1
I-6
I-15
I12
I0
I2
tp1931
a(I2
I-2
I-1
I-4
I-8
I8
I4
I0
tp1932
a(I-3
I4
I-3
I8
I4
I-11
I-4
I-2
tp1933
a(I-3
I0
I1
I-2
I-5
I3
I-6
I-1
tp1934
a(I-1
I4
I-3
I5
I7
I-7
I-4
I0
tp1935
a(I-4
I1
I-3
I1
I-4
I4
I-5
I2
tp1936
a(I1
I-4
I0
I-7
I-12
I18
I3
I1
tp1937
a(I2
I0
I0
I-3
I-8
I9
I2
I-2
tp1938
a(I-1
I1
I-5
I10
I7
I-12
I-3
I-1
tp1939
a(I-3
I1
I1
I-8
I-6
I5
I-2
I1
tp1940
a(I1
I-2
I-1
I-7
I-22
I15
I2
I-3
tp1941
a(I0
I-4
I-1
I-3
I-10
I8
I2
I0
tp1942
a(I-3
I1
I0
I7
I7
I-10
I-3
I1
tp1943
a(I-5
I1
I2
I-4
I-7
I3
I-2
I-2
tp1944
a(I1
I-4
I0
I-5
I-16
I15
I2
I0
tp1945
a(I3
I-5
I-3
I-5
I-9
I9
I2
I-1
tp1946
a(I0
I-4
I0
I-5
I-13
I9
I2
I-1
tp1947
a(I1
I-2
I3
I-3
I-9
I8
I3
I-1
tp1948
a(I-3
I2
I-5
I4
I10
I-12
I-3
I-3
tp1949
a(I-3
I0
I0
I-1
I-7
I4
I-4
I-2
tp1950
a(I2
I-4
I2
I0
I-9
I8
I1
I-2
tp1951
a(I1
I-6
I-2
I-5
I-10
I8
I4
I-2
tp1952
a(I-6
I3
I-3
I9
I2
I-7
I-4
I-2
tp1953
a(I-3
I4
I1
I-3
I-5
I4
I-3
I-1
tp1954
a(I1
I-2
I-1
I-6
I-16
I8
I3
I1
tp1955
a(I2
I-3
I0
I-7
I-8
I8
I2
I2
tp1956
a(I-2
I1
I-1
I3
I8
I-7
I-4
I0
tp1957
a(I-4
I2
I-2
I2
I-5
I3
I-3
I-2
tp1958
a(I-4
I1
I-2
I6
I8
I-8
I-4
I0
tp1959
a(I-4
I1
I0
I-5
I-5
I1
I-4
I1
tp1960
a(I0
I-3
I1
I-3
I-10
I11
I3
I-2
tp1961
a(I0
I-7
I-2
I-2
I-10
I8
I1
I-1
tp1962
a(I-2
I3
I-2
I3
I3
I-8
I-3
I-1
tp1963
a(I-3
I2
I-2
I-6
I-2
I1
I-1
I1
tp1964
a(I1
I-2
I-3
I-2
I-13
I10
I1
I-3
tp1965
a(I1
I-2
I0
I-7
I-9
I9
I-1
I-2
tp1966
a(I0
I4
I-3
I1
I6
I-2
I-3
I0
tp1967
a(I-4
I2
I1
I-3
I-5
I3
I-3
I3
tp1968
a(I1
I-1
I2
I-5
I-12
I11
I2
I0
tp1969
a(I1
I-4
I1
I-3
I-9
I8
I5
I-1
tp1970
a(I1
I-3
I-2
I-5
I-8
I9
I0
I0
tp1971
a(I2
I-4
I1
I-4
I-9
I7
I3
I-1
tp1972
a(I-3
I1
I0
I2
I8
I-5
I-4
I-1
tp1973
a(I-1
I0
I0
I-2
I-5
I5
I-2
I0
tp1974
a(I2
I-4
I2
I-4
I-13
I11
I2
I-3
tp1975
a(I2
I-5
I0
I-2
I-11
I7
I3
I1
tp1976
a(I-4
I4
I-2
I6
I8
I-4
I-4
I-4
tp1977
a(I-3
I0
I-5
I-8
I-4
I5
I-2
I-3
tp1978
a(I2
I0
I1
I-6
I-15
I10
I3
I-1
tp1979
a(I4
I-3
I-2
I-3
I-10
I7
I2
I0
tp1980
a(I-3
I2
I-4
I13
I1
I-8
I-5
I-2
tp1981
a(I-2
I-2
I1
I-3
I-4
I8
I-2
I2
tp1982
a(I-3
I1
I-2
I3
I7
I-6
I-6
I-1
tp1983
a(I0
I4
I3
I-5
I-6
I5
I-1
I2
tp1984
a(I1
I-3
I1
I-3
I-15
I15
I2
I-1
tp1985
a(I0
I-1
I0
I0
I-8
I8
I1
I-2
tp1986
a(I-4
I1
I-2
I6
I3
I-9
I-4
I1
tp1987
a(I-2
I-1
I1
I-10
I-8
I5
I-3
I-3
tp1988
a(I2
I-3
I2
I-7
I-14
I14
I4
I0
tp1989
a(I1
I-3
I-3
I-1
I-9
I9
I1
I-1
tp1990
a(I-4
I1
I-4
I5
I3
I-6
I-5
I0
tp1991
a(I-2
I1
I2
I-8
I-8
I14
I-3
I2
tp1992
a(I0
I-3
I2
I-4
I-12
I11
I-1
I-1
tp1993
a(I2
I-4
I-1
I0
I-10
I8
I0
I0
tp1994
a(I1
I-1
I-1
I-8
I-14
I15
I1
I-1
tp1995
a(I2
I-5
I-3
I0
I-10
I9
I3
I0
tp1996
a(I-2
I5
I2
I3
I3
I-8
I-8
I3
tp1997
a(I-1
I-1
I-2
I-6
I-12
I10
I-3
I-2
tp1998
a(I3
I-2
I3
I-4
I-14
I15
I3
I0
tp1999
a(I2
I-4
I-1
I-2
I-8
I8
I1
I-2
tp2000
a(I-3
I1
I-5
I8
I5
I-8
I-3
I0
tp2001
a(I-3
I-1
I3
I-4
I-12
I10
I-2
I-1
tp2002
a(I1
I-3
I-1
I-7
I-14
I14
I4
I1
tp2003
a(I1
I-1
I-1
I0
I-9
I7
I1
I0
tp2004
a(I-3
I2
I-3
I8
I4
I-6
I-5
I-3
tp2005
a(I-2
I2
I2
I-6
I-15
I10
I-2
I0
tp2006
a(I-5
I2
I-7
I7
I3
I-2
I-4
I-6
tp2007
a(I-1
I-2
I-4
I-3
I-9
I10
I-3
I0
tp2008
a(I2
I-3
I2
I-5
I-14
I13
I2
I1
tp2009
a(I1
I-3
I-1
I-4
I-8
I7
I1
I-2
tp2010
a(I-2
I2
I-3
I3
I3
I-4
I-7
I1
tp2011
a(I-4
I1
I2
I-3
I-11
I9
I1
I1
tp2012
a(I0
I-1
I-2
I-6
I-18
I13
I2
I-2
tp2013
a(I0
I-2
I1
I-2
I-8
I6
I1
I-3
tp2014
a(I-6
I2
I-4
I6
I-2
I-1
I-4
I-1
tp2015
a(I-3
I1
I-2
I-3
I-12
I3
I-1
I0
tp2016
a(I1
I-2
I-2
I-4
I-14
I12
I3
I0
tp2017
a(I2
I-1
I2
I0
I-7
I8
I2
I0
tp2018
a(I1
I-5
I-1
I-3
I-12
I13
I2
I0
tp2019
a(I2
I-1
I3
I-5
I-9
I8
I2
I-1
tp2020
a(I-4
I2
I-1
I4
I3
I-2
I-4
I1
tp2021
a(I-2
I-2
I-1
I-5
I-7
I7
I-2
I-1
tp2022
a(I1
I-4
I0
I-3
I-11
I10
I1
I-3
tp2023
a(I0
I-4
I-4
I-1
I-10
I8
I1
I-3
tp2024
a(I-3
I4
I-2
I6
I0
I-3
I-7
I-2
tp2025
a(I-3
I-1
I-2
I-7
I-15
I5
I0
I1
tp2026
a(I2
I-2
I-2
I-5
I-14
I9
I0
I-4
tp2027
a(I2
I-3
I2
I0
I-9
I9
I2
I1
tp2028
a(I-4
I3
I-3
I4
I-1
I-4
I-5
I-1
tp2029
a(I-1
I1
I2
I-2
I-7
I8
I-2
I0
tp2030
a(I-3
I2
I-2
I1
I1
I-7
I-4
I-3
tp2031
a(I0
I-3
I3
I-8
I-11
I9
I-1
I0
tp2032
a(I0
I-3
I-1
I-4
I-11
I8
I3
I-1
tp2033
a(I1
I-2
I0
I-2
I-7
I7
I3
I0
tp2034
a(I-4
I0
I-2
I3
I1
I-3
I-4
I-2
tp2035
a(I-2
I0
I-1
I-4
I-9
I9
I-2
I1
tp2036
a(I1
I-1
I1
I-4
I-13
I12
I4
I-1
tp2037
a(I0
I-2
I0
I0
I-9
I6
I0
I-3
tp2038
a(I-4
I2
I-3
I3
I-1
I-6
I-6
I-2
tp2039
a(I0
I-2
I1
I-6
I-12
I11
I1
I0
tp2040
a(I2
I-3
I-1
I-4
I-12
I8
I2
I-1
tp2041
a(I1
I-2
I-5
I2
I-8
I8
I2
I0
tp2042
a(I1
I-4
I1
I-8
I-15
I13
I3
I2
tp2043
a(I0
I-2
I-3
I0
I-9
I7
I1
I-2
tp2044
a(I-2
I4
I-3
I4
I4
I-7
I-6
I1
tp2045
a(I1
I-3
I1
I-8
I-18
I18
I1
I-1
tp2046
a(I4
I0
I-1
I-3
I-13
I11
I3
I0
tp2047
a(I1
I-3
I1
I-3
I-4
I7
I1
I1
tp2048
a(I-5
I-2
I-6
I10
I3
I-4
I-4
I-3
tp2049
a(I0
I-2
I3
I-7
I-12
I17
I0
I0
tp2050
a(I3
I-5
I0
I-4
I-16
I14
I2
I-1
tp2051
a(I2
I-2
I-3
I3
I-5
I7
I-2
I-2
tp2052
a(I-4
I3
I-3
I7
I3
I-1
I-7
I-1
tp2053
a(I-3
I2
I0
I-9
I-15
I13
I-1
I-2
tp2054
a(I-5
I5
I-4
I8
I3
I1
I-3
I1
tp2055
a(I-2
I-3
I0
I-8
I-13
I19
I0
I0
tp2056
a(I1
I-3
I2
I-8
I-16
I15
I0
I-1
tp2057
a(I1
I-1
I-2
I1
I-9
I3
I-1
I-1
tp2058
a(I-5
I2
I-3
I7
I1
I-2
I-6
I2
tp2059
a(I-2
I0
I-1
I-10
I-15
I11
I-2
I-2
tp2060
a(I2
I-3
I-1
I-4
I-14
I12
I3
I0
tp2061
a(I3
I-1
I0
I2
I-3
I5
I-1
I-1
tp2062
a(I-3
I4
I-3
I5
I-1
I1
I-6
I-2
tp2063
a(I-1
I-2
I-1
I-7
I-16
I12
I-1
I1
tp2064
a(I2
I-5
I3
I-3
I-19
I15
I3
I-1
tp2065
a(I-3
I-1
I-1
I1
I-6
I1
I2
I-2
tp2066
a(I-3
I3
I3
I7
I2
I2
I-5
I1
tp2067
a(I-1
I-2
I1
I-9
I-17
I12
I1
I0
tp2068
a(I1
I-4
I-1
I-7
I-14
I15
I3
I-2
tp2069
a(I0
I-2
I-2
I0
I-1
I0
I1
I-2
tp2070
a(I-6
I5
I-4
I2
I-3
I3
I-5
I0
tp2071
a(I-1
I-4
I0
I-3
I-16
I9
I1
I-1
tp2072
a(I0
I-1
I5
I-7
I-18
I16
I2
I1
tp2073
a(I2
I-1
I-2
I3
I0
I2
I2
I-3
tp2074
a(I-3
I1
I-2
I4
I-4
I1
I-6
I0
tp2075
a(I1
I-1
I2
I-5
I-19
I14
I2
I-1
tp2076
a(I2
I-3
I0
I-4
I-14
I14
I2
I-2
tp2077
a(I2
I0
I-4
I6
I-3
I-1
I-1
I1
tp2078
a(I1
I-5
I4
I-8
I-14
I14
I4
I0
tp2079
a(I-1
I-3
I-2
I-1
I1
I1
I0
I0
tp2080
a(I-2
I3
I-2
I7
I-3
I3
I-7
I0
tp2081
a(I1
I-1
I-1
I-11
I-17
I13
I-3
I1
tp2082
a(I1
I-4
I-2
I-8
I-13
I12
I5
I1
tp2083
a(I1
I-2
I0
I3
I-6
I2
I0
I0
tp2084
a(I-5
I1
I-1
I4
I-4
I0
I-6
I0
tp2085
a(I-3
I-1
I0
I-8
I-15
I13
I2
I1
tp2086
a(I1
I-6
I1
I-3
I-12
I14
I3
I-1
tp2087
a(I2
I1
I-2
I1
I-2
I5
I2
I0
tp2088
a(I-3
I5
I-3
I10
I-4
I1
I-5
I0
tp2089
a(I0
I-2
I2
I-8
I-17
I14
I-1
I-1
tp2090
a(I-5
I1
I-3
I3
I-3
I0
I-6
I0
tp2091
a(I0
I-1
I-1
I-8
I-12
I15
I3
I0
tp2092
a(I0
I0
I-1
I-5
I-13
I7
I2
I1
tp2093
a(I0
I-1
I1
I2
I-8
I1
I-4
I0
tp2094
a(I-6
I5
I-4
I3
I-2
I-3
I-5
I0
tp2095
a(I2
I-4
I-1
I-5
I-20
I11
I0
I-1
tp2096
a(I2
I-4
I0
I-6
I-10
I10
I2
I-4
tp2097
a(I2
I-2
I-3
I2
I-5
I-1
I-1
I0
tp2098
a(I-6
I5
I-3
I6
I-2
I-2
I-6
I-3
tp2099
a(I-1
I-4
I2
I-6
I-15
I14
I0
I0
tp2100
a(I3
I-2
I0
I-2
I-9
I7
I2
I-2
tp2101
a(I1
I-3
I-4
I1
I0
I-1
I1
I1
tp2102
a(I1
I-3
I-2
I-2
I-12
I9
I2
I-2
tp2103
a(I-3
I-4
I-5
I3
I-1
I3
I1
I-4
tp2104
as.